Microchip MPLAB XC8 Compiler V1.45 ()

Linker command line:

-W-3 --edf=C:\Program Files (x86)\Microchip\xc8\v1.45\dat\en_msgs.txt -cs \
  -h+dist/default/debug\AC_Power_Meter.X.debug.sym \
  --cmf=dist/default/debug\AC_Power_Meter.X.debug.cmf -z -Q18LF67K40 \
  -oC:\Users\DREWMA~1\AppData\Local\Temp\sf34.2 \
  -Mdist/default/debug/AC_Power_Meter.X.debug.map -E1 -ver=XC8 --acfsm=1493 \
  -ASTACK=06C9h-0de9h -pstack=STACK -ACODE=00h-01FFFFh -ACONST=00h-01FFFFh \
  -ASMALLCONST=0E00h-0EFFhx498 -AMEDIUMCONST=0E00h-0FFFFh,010E00h-01FFFFh \
  -ACOMRAM=01h-05Fh -AABS1=00h-0DE9h -ABIGRAM=01h-0DE9h \
  -ARAM=060h-0FFh,0100h-01FFhx12,0D00h-0DE9h -ABANK0=060h-0FFh \
  -ABANK1=0100h-01FFh -ABANK2=0200h-02FFh -ABANK3=0300h-03FFh \
  -ABANK4=0400h-04FFh -ABANK5=0500h-05FFh -ABANK6=0600h-06FFh \
  -ABANK7=0700h-07FFh -ABANK8=0800h-08FFh -ABANK9=0900h-09FFh \
  -ABANK10=0A00h-0AFFh -ABANK11=0B00h-0BFFh -ABANK12=0C00h-0CFFh \
  -ABANK13=0D00h-0DE9h \
  -ASFR=0DEFh-0DFFh,0E00h-0EFFh,0F00h-0F5Fh,0F60h-0FFFh \
  -preset_vec=00h,intcode=08h,intcodelo=018h,powerup,init -pramtop=0E00h \
  -psmallconst=SMALLCONST -pmediumconst=MEDIUMCONST -pconst=CONST \
  -AFARRAM=00h-00h -ACONFIG=0300000h-030000Bh -pconfig=CONFIG \
  -AIDLOC=0200000h-020000Fh -pidloc=IDLOC -AEEDATA=0310000h-03103FFh \
  -peeprom_data=EEDATA \
  -prdata=COMRAM,nvrram=COMRAM,nvbit=COMRAM,rbss=COMRAM,rbit=COMRAM \
  -pfarbss=FARRAM,fardata=FARRAM,nvFARRAM=FARRAM \
  -pintsave_regs=BIGRAM,bigbss=BIGRAM,bigdata=BIGRAM -pbss=RAM \
  -pidata=CODE,irdata=CODE,ibigdata=CODE,ifardata=CODE -prparam=COMRAM \
  C:\Users\DREWMA~1\AppData\Local\Temp\sf34.obj \
  dist/default/debug\AC_Power_Meter.X.debug.obj 

Object code version is 3.11

Machine type is 18LF67K40

Call graph: (short form)




                Name                               Link     Load   Length Selector   Space Scale
C:\Users\DREWMA~1\AppData\Local\Temp\sf34.obj
                init                                10A      10A        4        C       0
                reset_vec                             0        0        6        0       0
                idloc                            200000   200000       10   200000       0
                config                           300000   300000        C   300000       0
dist/default/debug\AC_Power_Meter.X.debug.obj
                intcodelo                            18       18       F2        C       0
                intcode                               8        8        6        4       0
                temp                                 5F       5F        1        1       1
                mediumconst                        CAE2     CAE2     351E     6571       0
                text262                            441E     441E       14        C       0
                text261                            4620     4620        4        C       0
                text260                            440A     440A       14        C       0
                text259                            4564     4564        C        C       0
                text258                            461C     461C        4        C       0
                text257                            3F48     3F48       2A        C       0
                text256                           1C2D8    1C2D8      33E     8000       0
                text255                             A68      A68      122        C       0
                text254                            161E     161E       DC        C       0
                text253                           1FB66    1FB66      150     8000       0
                text252                            2890     2890       7A        C       0
                text251                             B8A      B8A      114        C       0
                text250                           1E596    1E596      2B6     8000       0
                text249                            3F1A     3F1A       2E        C       0
                text248                            365A     365A       48        C       0
                text247                           1B90C    1B90C      350     8000       0
                text246                             FA6      FA6      100        C       0
                text245                           1CF46    1CF46      300     8000       0
                text244                            2720     2720       7C        C       0
                text243                            3BE2     3BE2       3C        C       0
                text242                           1F686    1F686      238     8000       0
                text241                           1D7D6    1D7D6      2C8     8000       0
                text240                           1CC36    1CC36      310     8000       0
                text239                            2B3E     2B3E       70        C       0
                text238                           1EFCC    1EFCC      24A     8000       0
                text237                           17F72    17F72      B2E     8000       0
                text236                            4630     4630        2        C       0
                text235                            3FEA     3FEA       28        C       0
                text234                            25A2     25A2       82        C       0
                text233                            2E86     2E86       66        C       0
                text232                            411C     411C       26        C       0
                text231                             6FC      6FC      128        C       0
                text230                             376      376      132        C       0
                text229                            251E     251E       84        C       0
                text228                            2ACE     2ACE       70        C       0
                text227                           1E84C    1E84C      2AE     8000       0
                text226                            42D2     42D2       1E        C       0
                text225                            372E     372E       46        C       0
                text224                            45B6     45B6        A        C       0
                text223                           1AA80    1AA80      480     8000       0
                text222                           16052    16052     1F20     8000       0
                text221                            3BA6     3BA6       3C        C       0
                text220                            1C40     1C40       B0        C       0
                text219                            3C1E     3C1E       3A        C       0
                text218                            33CC     33CC       4C        C       0
                text217                            3942     3942       40        C       0
                text216                            45FA     45FA        6        C       0
                text215                            42B4     42B4       1E        C       0
                text214                            3880     3880       42        C       0
                text213                           1EAFA    1EAFA      26C     8000       0
                text212                            4618     4618        4        C       0
                text211                            4328     4328       1C        C       0
                text210                            43DC     43DC       18        C       0
                text209                            462E     462E        2        C       0
                text208                            41AE     41AE       24        C       0
                text207                            45AC     45AC        A        C       0
                text206                            43C4     43C4       18        C       0
                text205                            3332     3332       4E        C       0
                text204                            249A     249A       84        C       0
                text203                            462C     462C        2        C       0
                text202                            418A     418A       24        C       0
                text201                            40F6     40F6       26        C       0
                text200                            4614     4614        4        C       0
                text199                            4558     4558        C        C       0
                text198                            462A     462A        2        C       0
                text197                            3D64     3D64       34        C       0
                intcode_body                        C9E      C9E      108        C       0
                text195                            3CC6     3CC6       36        C       0
                text194                            45A2     45A2        A        C       0
                text193                            1EEE     1EEE       A2        C       0
                text192                            36E8     36E8       46        C       0
                text191                            3294     3294       50        C       0
                text190                            1D9E     1D9E       AE        C       0
                text189                            1964     1964       C6        C       0
                text188                            3902     3902       40        C       0
                text187                            3056     3056       58        C       0
                text186                            2DB8     2DB8       68        C       0
                text185                            3B6A     3B6A       3C        C       0
                text184                            2816     2816       7A        C       0
                text183                            4598     4598        A        C       0
                text182                            4610     4610        4        C       0
                text181                            45F4     45F4        6        C       0
                text180                            460C     460C        4        C       0
                text179                            45EE     45EE        6        C       0
                text178                            458E     458E        A        C       0
                text177                            453E     453E        E        C       0
                text176                            1B90     1B90       B0        C       0
                text175                            137A     137A       E8        C       0
                text174                            40D0     40D0       26        C       0
                text173                           1E2E0    1E2E0      2B6     8000       0
                text172                             946      946      122        C       0
                text171                           1BF9A    1BF9A      33E     8000       0
                text170                           1B5BA    1B5BA      352     8000       0
                text169                             EA6      EA6      100        C       0
                text168                            3EEA     3EEA       30        C       0
                text167                            3A3C     3A3C       3E        C       0
                text166                           1F44E    1F44E      238     8000       0
                text165                           1D50E    1D50E      2C8     8000       0
                text164                           1C926    1C926      310     8000       0
                text163                            2A5E     2A5E       70        C       0
                text162                            3EBA     3EBA       30        C       0
                text161                            4392     4392       1A        C       0
                text160                            383E     383E       42        C       0
                text159                            4258     4258       20        C       0
                text158                            3B2E     3B2E       3C        C       0
                text157                            40AA     40AA       26        C       0
                text156                            1540     1540       DE        C       0
                text155                           1FA12    1FA12      154     8000       0
                text154                            26A2     26A2       7E        C       0
                text153                            2030     2030       A0        C       0
                text152                            1A2A     1A2A       B6        C       0
                text151                            3612     3612       48        C       0
                text150                            2416     2416       84        C       0
                text149                            2D50     2D50       68        C       0
                text148                            3FC2     3FC2       28        C       0
                text147                             5D2      5D2      12A        C       0
                text146                             242      242      134        C       0
                text145                            230C     230C       86        C       0
                text144                            297C     297C       72        C       0
                text143                           1DD64    1DD64      2C6     8000       0
                text142                            4216     4216       22        C       0
                text141                            35CA     35CA       48        C       0
                text140                            4530     4530        E        C       0
                text139                           1A5DC    1A5DC      4A4     8000       0
                text138                           14120    14120     1F32     8000       0
                text137                            3418     3418       4A        C       0
                text136                            3582     3582       48        C       0
                text135                           1936E    1936E      8CC     8000       0
                text134                            4628     4628        2        C       0
                text133                            4166     4166       24        C       0
                text132                            4084     4084       26        C       0
                text131                            37B8     37B8       44        C       0
                text130                            4626     4626        2        C       0
                text129                            3F9A     3F9A       28        C       0
                text128                            405E     405E       26        C       0
                text127                            45E8     45E8        6        C       0
                text126                            45C8     45C8        8        C       0
                text125                            4522     4522        E        C       0
                text124                            4444     4444       12        C       0
                text123                            4624     4624        2        C       0
                text122                            3D30     3D30       34        C       0
                text120                            4584     4584        A        C       0
                text119                            1E4C     1E4C       A2        C       0
                text118                            36A2     36A2       46        C       0
                text117                            3244     3244       50        C       0
                text116                            2CE8     2CE8       68        C       0
                text115                            20D0     20D0       9A        C       0
                text114                            4514     4514        E        C       0
                text113                            2BAE     2BAE       6A        C       0
                text112                            4506     4506        E        C       0
                text111                            44F8     44F8        E        C       0
                text110                            2E20     2E20       66        C       0
                text109                            44EA     44EA        E        C       0
                text108                            4296     4296       1E        C       0
                text107                            45C0     45C0        8        C       0
                text106                            4486     4486       10        C       0
                text105                            3C90     3C90       36        C       0
                text104                            4278     4278       1E        C       0
                text103                            430C     430C       1C        C       0
                text102                            17D2     17D2       CC        C       0
                text101                            42F0     42F0       1C        C       0
                text100                            44DC     44DC        E        C       0
                text99                             3E8A     3E8A       30        C       0
                text98                             44CE     44CE        E        C       0
                text97                             3E5A     3E5A       30        C       0
                text96                             44C0     44C0        E        C       0
                text95                             31F4     31F4       50        C       0
                text94                             44B2     44B2        E        C       0
                text93                             3D98     3D98       32        C       0
                text92                             44A4     44A4        E        C       0
                text91                             30AE     30AE       54        C       0
                text90                             39FE     39FE       3E        C       0
                text89                             2F4C     2F4C       5A        C       0
                text88                             4378     4378       1A        C       0
                text87                             3102     3102       52        C       0
                text86                            1FCB6    1FCB6      14C     8000       0
                text85                              824      824      122        C       0
                text84                             39C0     39C0       3E        C       0
                text83                             31A4     31A4       50        C       0
                text82                            1ED66    1ED66      266     8000       0
                text81                            1E02A    1E02A      2B6     8000       0
                text80                             3E2A     3E2A       30        C       0
                text79                            1BC5C    1BC5C      33E     8000       0
                text78                             353A     353A       48        C       0
                text77                             1462     1462       DE        C       0
                text76                             2392     2392       84        C       0
                text75                             2C80     2C80       68        C       0
                text74                             3F72     3F72       28        C       0
                text73                            1F8BE    1F8BE      154     8000       0
                text72                              4A8      4A8      12A        C       0
                text71                              10E      10E      134        C       0
                text70                             2286     2286       86        C       0
                text69                             290A     290A       72        C       0
                text68                            1B268    1B268      352     8000       0
                text67                            1DA9E    1DA9E      2C6     8000       0
                text66                             41F4     41F4       22        C       0
                text65                             34F2     34F2       48        C       0
                text64                             435E     435E       1A        C       0
                text63                            1A138    1A138      4A4     8000       0
                text62                            120E8    120E8     2038     8000       0
                text61                             3AF2     3AF2       3C        C       0
                text60                             4476     4476       10        C       0
                text59                             3CFC     3CFC       34        C       0
                text58                             43F4     43F4       16        C       0
                text57                             3DFA     3DFA       30        C       0
                text56                             4344     4344       1A        C       0
                text55                             37FC     37FC       42        C       0
                text54                             4238     4238       20        C       0
                text53                             2EEC     2EEC       60        C       0
                text52                             3AB6     3AB6       3C        C       0
                text51                             4038     4038       26        C       0
                text50                             3774     3774       44        C       0
                text49                             4466     4466       10        C       0
                text48                             3380     3380       4C        C       0
                text47                             2C18     2C18       68        C       0
                text46                            1AF00    1AF00      368     8000       0
                text45                             4432     4432       12        C       0
                text44                            19C3A    19C3A      4FE     8000       0
                text43                             32E4     32E4       4E        C       0
                text42                             1CF0     1CF0       AE        C       0
                text41                             189E     189E       C6        C       0
                text40                             38C2     38C2       40        C       0
                text39                             2FFE     2FFE       58        C       0
                text38                             3A7A     3A7A       3C        C       0
                text37                             279C     279C       7A        C       0
                text36                             457A     457A        A        C       0
                text35                             4608     4608        4        C       0
                text34                             45E2     45E2        6        C       0
                text33                             4604     4604        4        C       0
                text32                             45DC     45DC        6        C       0
                text31                             4570     4570        A        C       0
                text30                             4496     4496        E        C       0
                text29                             1AE0     1AE0       B0        C       0
                text28                             1292     1292       E8        C       0
                text27                             4012     4012       26        C       0
                text26                              DA6      DA6      100        C       0
                text25                             3982     3982       3E        C       0
                text24                            1F216    1F216      238     8000       0
                text23                            1D246    1D246      2C8     8000       0
                text22                            1C616    1C616      310     8000       0
                text21                             29EE     29EE       70        C       0
                text20                             3DCA     3DCA       30        C       0
                text19                             2624     2624       7E        C       0
                text18                             1F90     1F90       A0        C       0
                text17                            1FF3C    1FF3C       B6     8000       0
                text16                             34AA     34AA       48        C       0
                text15                             3462     3462       48        C       0
                text14                            18AA0    18AA0      8CE     8000       0
                text13                             4600     4600        4        C       0
                text12                             16FA     16FA       D8        C       0
                text11                             41D2     41D2       22        C       0
                text10                            1FFF2    1FFF2        E     8000       0
                text9                              3154     3154       50        C       0
                text8                              3C58     3C58       38        C       0
                text7                              2FA6     2FA6       58        C       0
                text6                              216A     216A       90        C       0
                text5                              21FA     21FA       8C        C       0
                text4                             10000    10000     20E8     8000       0
                text3                             1FE02    1FE02      13A     8000       0
                text2                              4456     4456       10        C       0
                text1                              43AC     43AC       18        C       0
                text0                              10A6     10A6       FA        C       0
                cstackCOMRAM                          1        1       5E        1       1
                cstackBANK0                          60       60       93       60       1
                cstackBANK1                         100      100       D6      100       1
                cstackBANK2                         200      200       76      200       1
                cstackBANK3                         300      300       DB      300       1
                cstackBANK4                         400      400       80      400       1
                cstackBANK6                         680      680       49      600       1
                bssBANK6                            600      600       80      600       1
                dataBANK5                           5D5      5D5       24      500       1
                bssBANK5                            500      500       D5      500       1
                dataBANK4                           4E0      4E0        6      400       1
                bssBANK4                            480      480       60      400       1
                bssBANK3                            3DB      3DB       24      300       1
                dataBANK2                           2CD      2CD        C      200       1
                bssBANK2                            276      276       57      200       1
                dataBANK1                           1EB      1EB        1      100       1
                bssBANK1                            1D6      1D6       15      100       1
                dataBANK0                            F3       F3        6       60       1
                bssBANK0                             F9       F9        4       60       1
                bitbssBANK0                         7E8       FD        2       60       1     8
                cinit                              11A0     11A0       F2        C       0
                nvBANK4                             4E6      4E6        1      400       1
                idataBANK5                         4142     4142       24        C       0
                idataBANK4                         45D6     45D6        6        C       0
                idataBANK2                         454C     454C        C        C       0
                idataBANK1                         4632     4632        1        C       0
                idataBANK0                         45D0     45D0        6        C       0

TOTAL           Name                               Link     Load   Length     Space
        CLASS   STACK          

        CLASS   CODE           
                intcodelo                            18       18       F2         0
                intcode                               8        8        6         0
                init                                10A      10A        4         0
                reset_vec                             0        0        6         0
                text262                            441E     441E       14         0
                text261                            4620     4620        4         0
                text260                            440A     440A       14         0
                text259                            4564     4564        C         0
                text258                            461C     461C        4         0
                text257                            3F48     3F48       2A         0
                text256                           1C2D8    1C2D8      33E         0
                text255                             A68      A68      122         0
                text254                            161E     161E       DC         0
                text253                           1FB66    1FB66      150         0
                text252                            2890     2890       7A         0
                text251                             B8A      B8A      114         0
                text250                           1E596    1E596      2B6         0
                text249                            3F1A     3F1A       2E         0
                text248                            365A     365A       48         0
                text247                           1B90C    1B90C      350         0
                text246                             FA6      FA6      100         0
                text245                           1CF46    1CF46      300         0
                text244                            2720     2720       7C         0
                text243                            3BE2     3BE2       3C         0
                text242                           1F686    1F686      238         0
                text241                           1D7D6    1D7D6      2C8         0
                text240                           1CC36    1CC36      310         0
                text239                            2B3E     2B3E       70         0
                text238                           1EFCC    1EFCC      24A         0
                text237                           17F72    17F72      B2E         0
                text236                            4630     4630        2         0
                text235                            3FEA     3FEA       28         0
                text234                            25A2     25A2       82         0
                text233                            2E86     2E86       66         0
                text232                            411C     411C       26         0
                text231                             6FC      6FC      128         0
                text230                             376      376      132         0
                text229                            251E     251E       84         0
                text228                            2ACE     2ACE       70         0
                text227                           1E84C    1E84C      2AE         0
                text226                            42D2     42D2       1E         0
                text225                            372E     372E       46         0
                text224                            45B6     45B6        A         0
                text223                           1AA80    1AA80      480         0
                text222                           16052    16052     1F20         0
                text221                            3BA6     3BA6       3C         0
                text220                            1C40     1C40       B0         0
                text219                            3C1E     3C1E       3A         0
                text218                            33CC     33CC       4C         0
                text217                            3942     3942       40         0
                text216                            45FA     45FA        6         0
                text215                            42B4     42B4       1E         0
                text214                            3880     3880       42         0
                text213                           1EAFA    1EAFA      26C         0
                text212                            4618     4618        4         0
                text211                            4328     4328       1C         0
                text210                            43DC     43DC       18         0
                text209                            462E     462E        2         0
                text208                            41AE     41AE       24         0
                text207                            45AC     45AC        A         0
                text206                            43C4     43C4       18         0
                text205                            3332     3332       4E         0
                text204                            249A     249A       84         0
                text203                            462C     462C        2         0
                text202                            418A     418A       24         0
                text201                            40F6     40F6       26         0
                text200                            4614     4614        4         0
                text199                            4558     4558        C         0
                text198                            462A     462A        2         0
                text197                            3D64     3D64       34         0
                intcode_body                        C9E      C9E      108         0
                text195                            3CC6     3CC6       36         0
                text194                            45A2     45A2        A         0
                text193                            1EEE     1EEE       A2         0
                text192                            36E8     36E8       46         0
                text191                            3294     3294       50         0
                text190                            1D9E     1D9E       AE         0
                text189                            1964     1964       C6         0
                text188                            3902     3902       40         0
                text187                            3056     3056       58         0
                text186                            2DB8     2DB8       68         0
                text185                            3B6A     3B6A       3C         0
                text184                            2816     2816       7A         0
                text183                            4598     4598        A         0
                text182                            4610     4610        4         0
                text181                            45F4     45F4        6         0
                text180                            460C     460C        4         0
                text179                            45EE     45EE        6         0
                text178                            458E     458E        A         0
                text177                            453E     453E        E         0
                text176                            1B90     1B90       B0         0
                text175                            137A     137A       E8         0
                text174                            40D0     40D0       26         0
                text173                           1E2E0    1E2E0      2B6         0
                text172                             946      946      122         0
                text171                           1BF9A    1BF9A      33E         0
                text170                           1B5BA    1B5BA      352         0
                text169                             EA6      EA6      100         0
                text168                            3EEA     3EEA       30         0
                text167                            3A3C     3A3C       3E         0
                text166                           1F44E    1F44E      238         0
                text165                           1D50E    1D50E      2C8         0
                text164                           1C926    1C926      310         0
                text163                            2A5E     2A5E       70         0
                text162                            3EBA     3EBA       30         0
                text161                            4392     4392       1A         0
                text160                            383E     383E       42         0
                text159                            4258     4258       20         0
                text158                            3B2E     3B2E       3C         0
                text157                            40AA     40AA       26         0
                text156                            1540     1540       DE         0
                text155                           1FA12    1FA12      154         0
                text154                            26A2     26A2       7E         0
                text153                            2030     2030       A0         0
                text152                            1A2A     1A2A       B6         0
                text151                            3612     3612       48         0
                text150                            2416     2416       84         0
                text149                            2D50     2D50       68         0
                text148                            3FC2     3FC2       28         0
                text147                             5D2      5D2      12A         0
                text146                             242      242      134         0
                text145                            230C     230C       86         0
                text144                            297C     297C       72         0
                text143                           1DD64    1DD64      2C6         0
                text142                            4216     4216       22         0
                text141                            35CA     35CA       48         0
                text140                            4530     4530        E         0
                text139                           1A5DC    1A5DC      4A4         0
                text138                           14120    14120     1F32         0
                text137                            3418     3418       4A         0
                text136                            3582     3582       48         0
                text135                           1936E    1936E      8CC         0
                text134                            4628     4628        2         0
                text133                            4166     4166       24         0
                text132                            4084     4084       26         0
                text131                            37B8     37B8       44         0
                text130                            4626     4626        2         0
                text129                            3F9A     3F9A       28         0
                text128                            405E     405E       26         0
                text127                            45E8     45E8        6         0
                text126                            45C8     45C8        8         0
                text125                            4522     4522        E         0
                text124                            4444     4444       12         0
                text123                            4624     4624        2         0
                text122                            3D30     3D30       34         0
                text120                            4584     4584        A         0
                text119                            1E4C     1E4C       A2         0
                text118                            36A2     36A2       46         0
                text117                            3244     3244       50         0
                text116                            2CE8     2CE8       68         0
                text115                            20D0     20D0       9A         0
                text114                            4514     4514        E         0
                text113                            2BAE     2BAE       6A         0
                text112                            4506     4506        E         0
                text111                            44F8     44F8        E         0
                text110                            2E20     2E20       66         0
                text109                            44EA     44EA        E         0
                text108                            4296     4296       1E         0
                text107                            45C0     45C0        8         0
                text106                            4486     4486       10         0
                text105                            3C90     3C90       36         0
                text104                            4278     4278       1E         0
                text103                            430C     430C       1C         0
                text102                            17D2     17D2       CC         0
                text101                            42F0     42F0       1C         0
                text100                            44DC     44DC        E         0
                text99                             3E8A     3E8A       30         0
                text98                             44CE     44CE        E         0
                text97                             3E5A     3E5A       30         0
                text96                             44C0     44C0        E         0
                text95                             31F4     31F4       50         0
                text94                             44B2     44B2        E         0
                text93                             3D98     3D98       32         0
                text92                             44A4     44A4        E         0
                text91                             30AE     30AE       54         0
                text90                             39FE     39FE       3E         0
                text89                             2F4C     2F4C       5A         0
                text88                             4378     4378       1A         0
                text87                             3102     3102       52         0
                text86                            1FCB6    1FCB6      14C         0
                text85                              824      824      122         0
                text84                             39C0     39C0       3E         0
                text83                             31A4     31A4       50         0
                text82                            1ED66    1ED66      266         0
                text81                            1E02A    1E02A      2B6         0
                text80                             3E2A     3E2A       30         0
                text79                            1BC5C    1BC5C      33E         0
                text78                             353A     353A       48         0
                text77                             1462     1462       DE         0
                text76                             2392     2392       84         0
                text75                             2C80     2C80       68         0
                text74                             3F72     3F72       28         0
                text73                            1F8BE    1F8BE      154         0
                text72                              4A8      4A8      12A         0
                text71                              10E      10E      134         0
                text70                             2286     2286       86         0
                text69                             290A     290A       72         0
                text68                            1B268    1B268      352         0
                text67                            1DA9E    1DA9E      2C6         0
                text66                             41F4     41F4       22         0
                text65                             34F2     34F2       48         0
                text64                             435E     435E       1A         0
                text63                            1A138    1A138      4A4         0
                text62                            120E8    120E8     2038         0
                text61                             3AF2     3AF2       3C         0
                text60                             4476     4476       10         0
                text59                             3CFC     3CFC       34         0
                text58                             43F4     43F4       16         0
                text57                             3DFA     3DFA       30         0
                text56                             4344     4344       1A         0
                text55                             37FC     37FC       42         0
                text54                             4238     4238       20         0
                text53                             2EEC     2EEC       60         0
                text52                             3AB6     3AB6       3C         0
                text51                             4038     4038       26         0
                text50                             3774     3774       44         0
                text49                             4466     4466       10         0
                text48                             3380     3380       4C         0
                text47                             2C18     2C18       68         0
                text46                            1AF00    1AF00      368         0
                text45                             4432     4432       12         0
                text44                            19C3A    19C3A      4FE         0
                text43                             32E4     32E4       4E         0
                text42                             1CF0     1CF0       AE         0
                text41                             189E     189E       C6         0
                text40                             38C2     38C2       40         0
                text39                             2FFE     2FFE       58         0
                text38                             3A7A     3A7A       3C         0
                text37                             279C     279C       7A         0
                text36                             457A     457A        A         0
                text35                             4608     4608        4         0
                text34                             45E2     45E2        6         0
                text33                             4604     4604        4         0
                text32                             45DC     45DC        6         0
                text31                             4570     4570        A         0
                text30                             4496     4496        E         0
                text29                             1AE0     1AE0       B0         0
                text28                             1292     1292       E8         0
                text27                             4012     4012       26         0
                text26                              DA6      DA6      100         0
                text25                             3982     3982       3E         0
                text24                            1F216    1F216      238         0
                text23                            1D246    1D246      2C8         0
                text22                            1C616    1C616      310         0
                text21                             29EE     29EE       70         0
                text20                             3DCA     3DCA       30         0
                text19                             2624     2624       7E         0
                text18                             1F90     1F90       A0         0
                text17                            1FF3C    1FF3C       B6         0
                text16                             34AA     34AA       48         0
                text15                             3462     3462       48         0
                text14                            18AA0    18AA0      8CE         0
                text13                             4600     4600        4         0
                text12                             16FA     16FA       D8         0
                text11                             41D2     41D2       22         0
                text10                            1FFF2    1FFF2        E         0
                text9                              3154     3154       50         0
                text8                              3C58     3C58       38         0
                text7                              2FA6     2FA6       58         0
                text6                              216A     216A       90         0
                text5                              21FA     21FA       8C         0
                text4                             10000    10000     20E8         0
                text3                             1FE02    1FE02      13A         0
                text2                              4456     4456       10         0
                text1                              43AC     43AC       18         0
                text0                              10A6     10A6       FA         0
                cinit                              11A0     11A0       F2         0
                idataBANK5                         4142     4142       24         0
                idataBANK4                         45D6     45D6        6         0
                idataBANK2                         454C     454C        C         0
                idataBANK1                         4632     4632        1         0
                idataBANK0                         45D0     45D0        6         0

        CLASS   CONST          

        CLASS   SMALLCONST     

        CLASS   MEDIUMCONST    
                mediumconst                        CAE2     CAE2     351E         0

        CLASS   COMRAM         
                temp                                 5F       5F        1         1
                cstackCOMRAM                          1        1       5E         1

        CLASS   ABS1           

        CLASS   BIGRAM         

        CLASS   RAM            

        CLASS   BANK0          
                cstackBANK0                          60       60       93         1
                dataBANK0                            F3       F3        6         1
                bssBANK0                             F9       F9        4         1
                bitbssBANK0                         7E8       FD        2         1

        CLASS   BANK1          
                cstackBANK1                         100      100       D6         1
                dataBANK1                           1EB      1EB        1         1
                bssBANK1                            1D6      1D6       15         1

        CLASS   BANK2          
                cstackBANK2                         200      200       76         1
                dataBANK2                           2CD      2CD        C         1
                bssBANK2                            276      276       57         1

        CLASS   BANK3          
                cstackBANK3                         300      300       DB         1
                bssBANK3                            3DB      3DB       24         1

        CLASS   BANK4          
                cstackBANK4                         400      400       80         1
                dataBANK4                           4E0      4E0        6         1
                bssBANK4                            480      480       60         1
                nvBANK4                             4E6      4E6        1         1

        CLASS   BANK5          
                dataBANK5                           5D5      5D5       24         1
                bssBANK5                            500      500       D5         1

        CLASS   BANK6          
                cstackBANK6                         680      680       49         1
                bssBANK6                            600      600       80         1

        CLASS   BANK7          

        CLASS   BANK8          

        CLASS   BANK9          

        CLASS   BANK10         

        CLASS   BANK11         

        CLASS   BANK12         

        CLASS   BANK13         

        CLASS   SFR            

        CLASS   FARRAM         

        CLASS   CONFIG         
                config                           300000   300000        C         0

        CLASS   IDLOC          
                idloc                            200000   200000       10         0

        CLASS   EEDATA         



SEGMENTS        Name                           Load    Length   Top    Selector   Space  Class

                reset_vec                      000000  000006  000006         0       0  CODE    
                cstackCOMRAM                   000001  00005F  000060         1       1  COMRAM  
                intcode                        000008  000006  00000E         4       0  CODE    
                intcodelo                      000018  00461B  004633         C       0  CODE    
                cstackBANK0                    000060  00009E  0000FE        60       1  BANK0   
                cstackBANK1                    000100  0000EC  0001EC       100       1  BANK1   
                cstackBANK2                    000200  0000D9  0002D9       200       1  BANK2   
                cstackBANK3                    000300  0000FF  0003FF       300       1  BANK3   
                cstackBANK4                    000400  0000E7  0004E7       400       1  BANK4   
                bssBANK5                       000500  0000F9  0005F9       500       1  BANK5   
                bssBANK6                       000600  0000C9  0006C9       600       1  BANK6   
                mediumconst                    00CAE2  00351E  010000      6571       0  MEDIUMCO
                text4                          010000  010000  020000      8000       0  CODE    
                idloc                          200000  000010  200010    200000       0  IDLOC   
                config                         300000  00000C  30000C    300000       0  CONFIG  


UNUSED ADDRESS RANGES

        Name                Unused          Largest block    Delta
        BANK0            0000FE-0000FF                2
        BANK1            0001EC-0001FF               14
        BANK10           000A00-000AFF              100
        BANK11           000B00-000BFF              100
        BANK12           000C00-000CFF              100
        BANK13           000D00-000DE9               EA
        BANK2            0002D9-0002FF               27
        BANK3            0003FF-0003FF                1
        BANK4            0004E7-0004FF               19
        BANK5            0005F9-0005FF                7
        BANK6            0006C9-0006FF               37
        BANK7            000700-0007FF              100
        BANK8            000800-0008FF              100
        BANK9            000900-0009FF              100
        BIGRAM           0000FE-0000FF                2
                         0001EC-0001FF               14
                         0002D9-0002FF               27
                         0003FF-0003FF                1
                         0004E7-0004FF               19
                         0005F9-0005FF                7
                         0006C9-000DE9              721
        CODE             000006-000007                2
                         00000E-000017                A
                         004633-00CAE1             84AF
        CONST            000006-000007                2
                         00000E-000017                A
                         004633-00CAE1             84AF
        EEDATA           310000-3103FF              400
        MEDIUMCONST      004633-00CAE1             84AF
        RAM              0000FE-0000FF                2
                         0001EC-0001FF               14
                         0002D9-0002FF               27
                         0003FF-0003FF                1
                         0004E7-0004FF               19
                         0005F9-0005FF                7
                         0006C9-000DE9              100
        SFR              000DEF-000FFF              100
        SMALLCONST       004633-00CAE1              100
        STACK            0006C9-000DE9              721

                                  Symbol Table

?_ADCC_GetConversionResult                     cstackCOMRAM 000001
?_ADCC_GetFilterValue                          cstackCOMRAM 000001
?_FLASH_ReadWord                               cstackBANK3  000304
?___awdiv                                      cstackBANK3  000306
?___awmod                                      cstackBANK3  000300
?___fladd                                      cstackBANK3  000312
?___fldiv                                      cstackBANK3  000326
?___flmul                                      cstackBANK3  00033F
?___flneg                                      cstackBANK3  00030E
?___flsub                                      cstackBANK3  000326
?___fltol                                      cstackBANK3  000361
?___ftdiv                                      cstackBANK3  00030B
?___ftpack                                     cstackBANK3  000300
?___lldiv                                      cstackBANK3  000300
?___llmod                                      cstackBANK3  00030D
?___lwtoft                                     cstackBANK3  000308
?___wmul                                       cstackBANK3  0003B4
?___xxtofl                                     cstackBANK3  000300
?__div_to_l_                                   cstackBANK3  000300
?__doprnt                                      cstackBANK3  0003BA
?__tdiv_to_l_                                  cstackBANK3  000300
?_abs                                          cstackBANK0  00007D
?_acos                                         cstackBANK3  0003A4
?_asin                                         cstackBANK3  00038C
?_atan                                         cstackBANK3  000377
?_atoi                                         cstackBANK3  0003BA
?_currentMeasuredToPeak                        cstackBANK0  0000AC
?_eval_poly                                    cstackBANK3  000358
?_fabs                                         cstackBANK3  000312
?_floor                                        cstackBANK0  000089
?_fround                                       cstackBANK3  000358
?_getCauseOfResetString                        cstackBANK3  000300
?_getCauseOfResetStringSmall                   cstackBANK3  000300
?_getDeviceID                                  cstackBANK3  00030B
?_getDeviceIDString                            cstackBANK3  00030D
?_getUserID                                    cstackBANK3  00030B
?_peakToRMS                                    cstackBANK0  0000C2
?_printf                                       cstackBANK3  0003C6
?_readDoubleFromEEPROM                         cstackBANK3  000302
?_round                                        cstackBANK3  0003AC
?_scale                                        cstackBANK3  000358
?_sin                                          cstackBANK0  00009B
?_sprintf                                      cstackBANK3  0003C6
?_sqrt                                         cstackBANK3  000358
?_strchr                                       cstackBANK3  000300
?_strcmp                                       cstackBANK3  000300
?_strlen                                       cstackBANK3  000300
?_strncmp                                      cstackBANK3  000306
?_strstr                                       cstackBANK3  00030F
?_trunc                                        cstackBANK3  00036B
?i1_FLASH_ReadWord                             cstackBANK1  000116
?i1___awdiv                                    cstackBANK1  000118
?i1___awmod                                    cstackBANK1  000112
?i1___fladd                                    cstackBANK1  000181
?i1___fldiv                                    cstackBANK1  000120
?i1___flmul                                    cstackBANK1  000139
?i1___flneg                                    cstackBANK1  00017D
?i1___flsub                                    cstackBANK1  000195
?i1___fltol                                    cstackBANK1  00015B
?i1___ftdiv                                    cstackBANK1  00011D
?i1___ftpack                                   cstackBANK1  000112
?i1___lldiv                                    cstackBANK1  000112
?i1___llmod                                    cstackBANK1  00011F
?i1___lwtoft                                   cstackBANK1  00011A
?i1___wmul                                     cstackBANK1  000112
?i1___xxtofl                                   cstackBANK1  000165
?i1__div_to_l_                                 cstackBANK1  000112
?i1__tdiv_to_l_                                cstackBANK1  000112
?i1_acos                                       cstackBANK1  0001D2
?i1_asin                                       cstackBANK1  0001BA
?i1_atan                                       cstackBANK1  0001A5
?i1_eval_poly                                  cstackBANK1  000195
?i1_fabs                                       cstackBANK1  000181
?i1_fround                                     cstackBANK1  000152
?i1_getCauseOfResetStringSmall                 cstackBANK1  000112
?i1_getDeviceID                                cstackBANK1  00011D
?i1_round                                      cstackBANK2  000204
?i1_scale                                      cstackBANK1  000152
?i1_sprintf                                    cstackBANK1  0001CB
?i1_sqrt                                       cstackBANK1  000195
?i1_trunc                                      cstackBANK1  000173
?i2___awdiv                                    cstackCOMRAM 000007
?i2___awmod                                    cstackCOMRAM 000001
?i2___fladd                                    cstackBANK0  00006D
?i2___fldiv                                    cstackCOMRAM 000049
?i2___flmul                                    cstackCOMRAM 00000F
?i2___flneg                                    cstackCOMRAM 000055
?i2___flsub                                    cstackBANK0  000093
?i2___fltol                                    cstackCOMRAM 000031
?i2___lldiv                                    cstackCOMRAM 000001
?i2___llmod                                    cstackCOMRAM 00000E
?i2___wmul                                     cstackCOMRAM 000001
?i2___xxtofl                                   cstackCOMRAM 00003B
?i2__div_to_l_                                 cstackCOMRAM 000001
?i2__doprnt                                    cstackBANK0  00009B
?i2__tdiv_to_l_                                cstackCOMRAM 000001
?i2_acos                                       cstackBANK0  0000BA
?i2_asin                                       cstackBANK0  0000A2
?i2_atan                                       cstackBANK0  00008D
?i2_eval_poly                                  cstackBANK0  00007D
?i2_fabs                                       cstackCOMRAM 000059
?i2_fround                                     cstackCOMRAM 000028
?i2_printf                                     cstackBANK0  0000C5
?i2_readDoubleFromEEPROM                       cstackCOMRAM 000003
?i2_scale                                      cstackCOMRAM 000028
?i2_sqrt                                       cstackBANK0  00007D
ADCC_SetADTIInterruptHandler@InterruptHandler  cstackBANK3  000300
ADCC_StartConversion@channel                   cstackBANK1  000112
ADC_PostProcessingCallback@current_adc_channel cstackBANK0  0000EA
DATAEE_ReadByte@bAdd                           cstackBANK3  000300
DATAEE_WriteByte@GIEBitValue                   cstackBANK3  000303
DATAEE_WriteByte@bAdd                          cstackBANK3  000300
DATAEE_WriteByte@bData                         cstackBANK3  000302
EUSART2_Read@readValue                         cstackBANK3  000300
EUSART2_SetRxInterruptHandler@interruptHandler cstackBANK3  000300
EUSART2_SetTxInterruptHandler@interruptHandler cstackBANK3  000300
EUSART2_Write@txData                           cstackBANK3  000300
FLASH_ReadByte@flashAddr                       cstackBANK3  000300
FLASH_ReadWord@flashAddr                       cstackBANK3  000304
I2C1_ISR@i2c_10bit_address_restart             bssBANK1     0001E8
I2C1_ISR@i2c_address                           bssBANK0     0000FB
I2C1_ISR@i2c_bytes_left                        bssBANK1     0001E9
I2C1_ISR@pi2c_buf_ptr                          bssBANK1     0001DA
I2C1_MasterRead@trBlock                        bssBANK4     0004D6
I2C1_MasterTRBInsert@count                     cstackBANK3  000305
I2C1_MasterTRBInsert@pflag                     cstackBANK3  000302
I2C1_MasterTRBInsert@ptrb_list                 cstackBANK3  000300
I2C1_MasterWrite@address                       cstackBANK3  00030C
I2C1_MasterWrite@length                        cstackBANK3  00030B
I2C1_MasterWrite@pdata                         cstackBANK3  000309
I2C1_MasterWrite@pflag                         cstackBANK3  00030E
I2C1_MasterWrite@trBlock                       bssBANK4     0004DB
I2C1_MasterWriteTRBBuild@address               cstackBANK3  000305
I2C1_MasterWriteTRBBuild@length                cstackBANK3  000304
I2C1_MasterWriteTRBBuild@pdata                 cstackBANK3  000302
I2C1_MasterWriteTRBBuild@ptrb                  cstackBANK3  000300
I2C1_Stop@completion_code                      cstackCOMRAM 000003
INT0_SetInterruptHandler@InterruptHandler      cstackBANK3  000300
OLED_Clear@col                                 cstackBANK3  000323
OLED_Clear@row                                 cstackBANK3  000321
OLED_Command@data_array                        cstackBANK3  000312
OLED_Command@length                            cstackBANK3  000311
OLED_Command@temp                              cstackBANK3  000310
OLED_PutChar@ch                                cstackBANK3  000320
OLED_PutChar@data_array                        cstackBANK3  000314
OLED_PutChar@input_base                        cstackBANK3  00031D
OLED_PutChar@length                            cstackBANK3  00031F
OLED_WriteString@s                             cstackBANK3  000321
OLED_YX@Column                                 cstackBANK3  000314
OLED_YX@Row                                    cstackBANK3  000316
OLED_updateCallback@TRIAC_degrees              cstackBANK4  000429
OLED_updateCallback@angle_string               cstackBANK4  000462
OLED_updateCallback@dev_id_str                 cstackBANK4  00042F
OLED_updateCallback@percentage                 cstackBANK4  00042C
OLED_updateCallback@percentage_string          cstackBANK4  000451
OLED_updateCallback@rev_id_str                 cstackBANK4  000440
TMR2_Counter8BitSet@timerVal                   cstackBANK3  000300
TMR2_Period8BitSet@periodVal                   cstackBANK3  000300
TMR2_SetInterruptHandler@InterruptHandler      cstackBANK3  000300
TMR2_WriteTimer@timerVal                       cstackBANK3  000301
TMR4_ISR@CountCallBack                         bssBANK1     0001E0
TMR4_SetInterruptHandler@InterruptHandler      cstackBANK3  000300
TMR5_SetInterruptHandler@InterruptHandler      cstackBANK3  000300
TMR5_WriteTimer@timerVal                       cstackCOMRAM 000001
TMR6_SetInterruptHandler@InterruptHandler      cstackBANK3  000300
TMR7_SetInterruptHandler@InterruptHandler      cstackBANK3  000300
TMR7_WriteTimer@timerVal                       cstackBANK1  000112
_ADACCH                                        (abs)        000F71
_ADACCL                                        (abs)        000F70
_ADACQ                                         (abs)        000F5C
_ADACT                                         (abs)        000F56
_ADCAP                                         (abs)        000F5D
_ADCC_ADTI_InterruptHandler                    bssBANK2     0002B1
_ADCC_ClearAccumulator                         text127      0045E8
_ADCC_DefaultInterruptHandler                  text236      004630
_ADCC_DischargeSampleCapacitor                 text126      0045C8
_ADCC_GetConversionResult                      text262      00441E
_ADCC_GetCurrentCountofConversions             text261      004620
_ADCC_GetFilterValue                           text260      00440A
_ADCC_HasAccumulatorOverflowed                 text259      004564
_ADCC_Initialize                               text113      002BAE
_ADCC_SetADTIInterruptHandler                  text114      004514
_ADCC_StartConversion                          text125      004522
_ADCC_StopConversion                           text258      00461C
_ADCC_ThresholdISR                             text235      003FEA
_ADCLK                                         (abs)        000F57
_ADCNT                                         (abs)        000F67
_ADCON0                                        (abs)        000F60
_ADCON0bits                                    (abs)        000F60
_ADCON1                                        (abs)        000F59
_ADCON1bits                                    (abs)        000F59
_ADCON2                                        (abs)        000F5A
_ADCON2bits                                    (abs)        000F5A
_ADCON3                                        (abs)        000F5B
_ADCON3bits                                    (abs)        000F5B
_ADC_PostProcessingCallback                    text237      017F72
_ADC_PostProcessingCallback$6524               cstackBANK0  0000EB
_ADC_PostProcessingCallback$6525               cstackBANK0  0000EF
_ADC_PostProcessingCallback$6526               cstackBANK0  0000DA
_ADC_PostProcessingCallback$6527               cstackBANK0  0000DE
_ADC_PostProcessingCallback$6528               cstackBANK0  0000E2
_ADC_PostProcessingCallback$6529               cstackBANK0  0000E6
_ADC_Result_Scaling                            bssBANK2     00029A
_ADERRH                                        (abs)        000F6F
_ADERRL                                        (abs)        000F6E
_ADFLTRH                                       (abs)        000F73
_ADFLTRL                                       (abs)        000F72
_ADLTHH                                        (abs)        000F6B
_ADLTHL                                        (abs)        000F6A
_ADPCH                                         (abs)        000F5F
_ADPRE                                         (abs)        000F5E
_ADPREVH                                       (abs)        000F62
_ADPREVL                                       (abs)        000F61
_ADREF                                         (abs)        000F58
_ADRESH                                        (abs)        000F64
_ADRESL                                        (abs)        000F63
_ADRPT                                         (abs)        000F66
_ADSTAT                                        (abs)        000F65
_ADSTATbits                                    (abs)        000F65
_ADSTPTH                                       (abs)        000F69
_ADSTPTL                                       (abs)        000F68
_ADUTHH                                        (abs)        000F6D
_ADUTHL                                        (abs)        000F6C
_ANSELA                                        (abs)        000E92
_ANSELB                                        (abs)        000E9A
_ANSELD                                        (abs)        000EA7
_ANSELE                                        (abs)        000EAF
_ANSELF                                        (abs)        000EB4
_ANSELG                                        (abs)        000EBC
_AVSS_ADC_Result                               bssBANK3     0003FB
_Avg_Power                                     bssBANK2     000286
_BAUD2CON                                      (abs)        000EF7
_CountCallBack                                 bssBANK2     0002BC
_DATAEE_ReadByte                               text88       004378
_DATAEE_WriteByte                              text84       0039C0
_EUSART2_Initialize                            text110      002E20
_EUSART2_Read                                  text43       0032E4
_EUSART2_Receive_ISR                           text220      001C40
_EUSART2_RxDefaultInterruptHandler             bssBANK4     00048C
_EUSART2_SetRxInterruptHandler                 text112      004506
_EUSART2_SetTxInterruptHandler                 text111      0044F8
_EUSART2_Transmit_ISR                          text195      003CC6
_EUSART2_TxDefaultInterruptHandler             bssBANK2     0002B7
_EUSART2_Write                                 text65       0034F2
_EXT_INT_Initialize                            text108      004296
_FLASH_ReadByte                                text56       004344
_FLASH_ReadWord                                text55       0037FC
_FVRCON                                        (abs)        000EC4
_FVRCONbits                                    (abs)        000EC4
_FVR_ADC_Result                                bssBANK2     0002C8
_FVR_Initialize                                text107      0045C0
_HLVDCON0                                      (abs)        000EC2
_HLVDCON0bits                                  (abs)        000EC2
_HLVDCON1                                      (abs)        000EC3
_HLVD_ISR                                      text217      003942
_HLVD_Initialize                               text106      004486
_I2C1_BusCollisionISR                          text216      0045FA
_I2C1_FunctionComplete                         text215      0042B4
_I2C1_ISR                                      text213      01EAFA
_I2C1_Initialize                               text105      003C90
_I2C1_MasterTRBInsert                          text119      001E4C
_I2C1_MasterWrite                              text117      003244
_I2C1_MasterWriteTRBBuild                      text118      0036A2
_I2C1_Stop                                     text214      003880
_I2C1_WaitForLastPacketToComplete              text120      004584
_INT0PPS                                       (abs)        000DF0
_INT0_CallBack                                 text208      0041AE
_INT0_DefaultInterruptHandler                  text209      00462E
_INT0_ISR                                      text207      0045AC
_INT0_InterruptHandler                         bssBANK2     0002A8
_INT0_SetInterruptHandler                      text109      0044EA
_INTCONbits                                    (abs)        000FF2
_INTERRUPT_Initialize                          text104      004278
_INTERRUPT_InterruptManagerHigh                intcode      000008
_INTERRUPT_InterruptManagerLow                 intcodelo    000018
_IPR0bits                                      (abs)        000E1F
_IPR1bits                                      (abs)        000E20
_IPR2bits                                      (abs)        000E21
_IPR3bits                                      (abs)        000E22
_IPR5bits                                      (abs)        000E24
_Imeas                                         bssBANK3     0003F3
_Ipk                                           bssBANK1     0001D6
_Irms                                          bssBANK2     00028A
_Irms_offset                                   dataBANK2    0002CD
_LATA                                          (abs)        000F79
_LATB                                          (abs)        000F7A
_LATC                                          (abs)        000F7B
_LATD                                          (abs)        000F7C
_LATE                                          (abs)        000F7D
_LATF                                          (abs)        000F7E
_LATFbits                                      (abs)        000F7E
_LATG                                          (abs)        000F7F
_LATGbits                                      (abs)        000F7F
_LATH                                          (abs)        000F80
_NVMADRH                                       (abs)        000F75
_NVMADRL                                       (abs)        000F74
_NVMCON1bits                                   (abs)        000F77
_NVMCON2                                       (abs)        000F78
_NVMDAT                                        (abs)        000F76
_ODCONA                                        (abs)        000E90
_ODCONB                                        (abs)        000E98
_ODCONC                                        (abs)        000EA0
_ODCOND                                        (abs)        000EA5
_ODCONE                                        (abs)        000EAD
_ODCONF                                        (abs)        000EB2
_ODCONG                                        (abs)        000EBA
_ODCONH                                        (abs)        000EBF
_OLED_Clear                                    text40       0038C2
_OLED_Command                                  text116      002CE8
_OLED_Frame                                    bssBANK4     000491
_OLED_I2C_Status                               bssBANK2     0002CC
_OLED_Init                                     text115      0020D0
_OLED_PutChar                                  text41       00189E
_OLED_RAM_Buffer                               bssBANK4     000492
_OLED_UpdateFromRAMBuffer                      text37       00279C
_OLED_WriteString                              text39       002FFE
_OLED_YX                                       text38       003A7A
_OLED_updateCallback                           text14       018AA0
_OLED_updateCallback$5789                      cstackBANK4  000425
_OLED_updateCallback$intlevel0                 text14       018AA6
_OSCCON1                                       (abs)        000E43
_OSCCON3                                       (abs)        000E45
_OSCEN                                         (abs)        000E47
_OSCFRQ                                        (abs)        000E49
_OSCILLATOR_Initialize                         text103      00430C
_OSCTUNE                                       (abs)        000E48
_OledFont                                      mediumconst  00CBA1
_PCON0bits                                     (abs)        000FD7
_PIE0bits                                      (abs)        000E29
_PIE1bits                                      (abs)        000E2A
_PIE2bits                                      (abs)        000E2B
_PIE3bits                                      (abs)        000E2C
_PIE5bits                                      (abs)        000E2E
_PIN_MANAGER_Initialize                        text102      0017D2
_PIR0bits                                      (abs)        000E33
_PIR1bits                                      (abs)        000E34
_PIR2bits                                      (abs)        000E35
_PIR3bits                                      (abs)        000E36
_PIR5bits                                      (abs)        000E38
_PIR8bits                                      (abs)        000E3B
_PLLR                                          (abs)        007230
_PMD0                                          (abs)        000E4C
_PMD1                                          (abs)        000E4D
_PMD2                                          (abs)        000E4E
_PMD3                                          (abs)        000E4F
_PMD4                                          (abs)        000E50
_PMD5                                          (abs)        000E51
_PMD_Initialize                                text101      0042F0
_POS12_ADC_Result                              bssBANK2     000292
_POS3P3_ADC_Result                             bssBANK2     000296
_PR2                                           (abs)        000FBC
_PR4                                           (abs)        000FB6
_PR6                                           (abs)        000FB0
_RC2REG                                        (abs)        000EF1
_RC2STA                                        (abs)        000EF5
_RC2STAbits                                    (abs)        000EF5
_RC6PPS                                        (abs)        000E68
_RC7PPS                                        (abs)        000E69
_RG7PPS                                        (abs)        000E89
_RX2PPS                                        (abs)        000E11
_SBOREN                                        (abs)        00725F
_SLRCONA                                       (abs)        000E8F
_SLRCONB                                       (abs)        000E97
_SLRCONC                                       (abs)        000E9F
_SLRCOND                                       (abs)        000EA4
_SLRCONE                                       (abs)        000EAC
_SLRCONF                                       (abs)        000EB1
_SLRCONG                                       (abs)        000EB9
_SLRCONH                                       (abs)        000EBE
_SP2BRGH                                       (abs)        000EF4
_SP2BRGL                                       (abs)        000EF3
_SSP1ADD                                       (abs)        000F92
_SSP1BUF                                       (abs)        000F91
_SSP1CLKPPS                                    (abs)        000E19
_SSP1CON1                                      (abs)        000F95
_SSP1CON1bits                                  (abs)        000F95
_SSP1CON2bits                                  (abs)        000F96
_SSP1CON3                                      (abs)        000F97
_SSP1DATPPS                                    (abs)        000E1A
_SSP1STAT                                      (abs)        000F94
_SYSTEM_Initialize                             text90       0039FE
_T2CLKCON                                      (abs)        000FBF
_T2CON                                         (abs)        000FBD
_T2CONbits                                     (abs)        000FBD
_T2HLT                                         (abs)        000FBE
_T2HLTbits                                     (abs)        000FBE
_T2PR                                          (abs)        000FBC
_T2RST                                         (abs)        000FC0
_T2RSTbits                                     (abs)        000FC0
_T2TMR                                         (abs)        000FBB
_T4CLKCON                                      (abs)        000FB9
_T4CON                                         (abs)        000FB7
_T4CONbits                                     (abs)        000FB7
_T4HLT                                         (abs)        000FB8
_T4HLTbits                                     (abs)        000FB8
_T4PR                                          (abs)        000FB6
_T4RST                                         (abs)        000FBA
_T4RSTbits                                     (abs)        000FBA
_T4TMR                                         (abs)        000FB5
_T5CLK                                         (abs)        000FC6
_T5CON                                         (abs)        000FC3
_T5CONbits                                     (abs)        000FC3
_T5GATE                                        (abs)        000FC5
_T5GCON                                        (abs)        000FC4
_T5GCONbits                                    (abs)        000FC4
_T6CLKCON                                      (abs)        000FB3
_T6CON                                         (abs)        000FB1
_T6CONbits                                     (abs)        000FB1
_T6HLT                                         (abs)        000FB2
_T6HLTbits                                     (abs)        000FB2
_T6PR                                          (abs)        000FB0
_T6RST                                         (abs)        000FB4
_T6RSTbits                                     (abs)        000FB4
_T6TMR                                         (abs)        000FAF
_T7CLK                                         (abs)        000F33
_T7CON                                         (abs)        000F30
_T7CONbits                                     (abs)        000F30
_T7GATE                                        (abs)        000F32
_T7GCON                                        (abs)        000F31
_T7GCONbits                                    (abs)        000F31
_TABLAT                                        (abs)        000FF5
_TBLPTRH                                       (abs)        000FF7
_TBLPTRL                                       (abs)        000FF6
_TBLPTRU                                       (abs)        000FF8
_TMR2                                          (abs)        000FBB
_TMR2_CallBack                                 text133      004166
_TMR2_Counter8BitSet                           text31       004570
_TMR2_DefaultInterruptHandler                  text134      004628
_TMR2_ISR                                      text132      004084
_TMR2_Initialize                               text99       003E8A
_TMR2_InterruptHandler                         bssBANK2     0002A2
_TMR2_Period8BitSet                            text36       00457A
_TMR2_SetInterruptHandler                      text100      0044DC
_TMR2_Start                                    text35       004608
_TMR2_StartTimer                               text34       0045E2
_TMR2_Stop                                     text33       004604
_TMR2_StopTimer                                text32       0045DC
_TMR2_WriteTimer                               text30       004496
_TMR4                                          (abs)        000FB5
_TMR4_CallBack                                 text202      00418A
_TMR4_DefaultInterruptHandler                  text203      00462C
_TMR4_ISR                                      text201      0040F6
_TMR4_Initialize                               text97       003E5A
_TMR4_InterruptHandler                         bssBANK2     0002A5
_TMR4_SetInterruptHandler                      text98       0044CE
_TMR5H                                         (abs)        000FC2
_TMR5L                                         (abs)        000FC1
_TMR5_DefaultInterruptHandler                  text198      00462A
_TMR5_ISR                                      text197      003D64
_TMR5_Initialize                               text95       0031F4
_TMR5_InterruptHandler                         bssBANK2     0002AB
_TMR5_SetInterruptHandler                      text96       0044C0
_TMR5_StartTimer                               text212      004618
_TMR5_StopTimer                                text13       004600
_TMR5_WriteTimer                               text211      004328
_TMR6                                          (abs)        000FAF
_TMR6_DefaultInterruptHandler                  text130      004626
_TMR6_ISR                                      text129      003F9A
_TMR6_Initialize                               text93       003D98
_TMR6_InterruptHandler                         bssBANK2     0002B4
_TMR6_SetInterruptHandler                      text94       0044B2
_TMR7H                                         (abs)        000F2F
_TMR7L                                         (abs)        000F2E
_TMR7_DefaultInterruptHandler                  text123      004624
_TMR7_ISR                                      text122      003D30
_TMR7_Initialize                               text91       0030AE
_TMR7_InterruptHandler                         bssBANK2     0002AE
_TMR7_SetInterruptHandler                      text92       0044A4
_TMR7_WriteTimer                               text128      00405E
_TRIAC_Firing_Angle                            dataBANK0    0000F5
_TRISA                                         (abs)        000F81
_TRISB                                         (abs)        000F82
_TRISC                                         (abs)        000F83
_TRISD                                         (abs)        000F84
_TRISE                                         (abs)        000F85
_TRISF                                         (abs)        000F86
_TRISG                                         (abs)        000F87
_TRISH                                         (abs)        000F88
_TX2REG                                        (abs)        000EF2
_TX2STA                                        (abs)        000EF6
_TX2STAbits                                    (abs)        000EF6
_Temp_ADC_Offset                               dataBANK2    0002D5
_Temp_ADC_Result                               bssBANK2     00028E
_Total_Energy                                  bssBANK2     00029E
_Total_Energy_address                          mediumconst  00CB9F
_Vpk                                           bssBANK3     0003F7
_Vpk_const                                     dataBANK2    0002D1
_Vrms                                          bssBANK4     000488
_WPUA                                          (abs)        000E91
_WPUB                                          (abs)        000E99
_WPUC                                          (abs)        000EA1
_WPUD                                          (abs)        000EA6
_WPUE                                          (abs)        000EAE
_WPUF                                          (abs)        000EB3
_WPUG                                          (abs)        000EBB
_WPUH                                          (abs)        000EC0
__CFG_BOREN$ON                                 (abs)        000000
__CFG_BORV$VBOR_190                            (abs)        000000
__CFG_CLKOUTEN$OFF                             (abs)        000000
__CFG_CP$OFF                                   (abs)        000000
__CFG_CPD$OFF                                  (abs)        000000
__CFG_CSWEN$OFF                                (abs)        000000
__CFG_DEBUG$OFF                                (abs)        000000
__CFG_EBTR0$OFF                                (abs)        000000
__CFG_EBTR1$OFF                                (abs)        000000
__CFG_EBTR2$OFF                                (abs)        000000
__CFG_EBTR3$OFF                                (abs)        000000
__CFG_EBTR4$OFF                                (abs)        000000
__CFG_EBTR5$OFF                                (abs)        000000
__CFG_EBTR6$OFF                                (abs)        000000
__CFG_EBTR7$OFF                                (abs)        000000
__CFG_EBTRB$OFF                                (abs)        000000
__CFG_FCMEN$ON                                 (abs)        000000
__CFG_FEXTOSC$ECH                              (abs)        000000
__CFG_IDLOC0$                                  (abs)        00000D
__CFG_IDLOC1$                                  (abs)        00000E
__CFG_IDLOC2$                                  (abs)        00000A
__CFG_IDLOC3$                                  (abs)        00000D
__CFG_IDLOC4$                                  (abs)        00000B
__CFG_IDLOC5$                                  (abs)        00000E
__CFG_IDLOC6$                                  (abs)        00000E
__CFG_IDLOC7$                                  (abs)        00000F
__CFG_LPBOREN$OFF                              (abs)        000000
__CFG_LVP$ON                                   (abs)        000000
__CFG_MCLRE$EXTMCLR                            (abs)        000000
__CFG_PPS1WAY$ON                               (abs)        000000
__CFG_PWRTE$ON                                 (abs)        000000
__CFG_RSTOSC$EXTOSC_4PLL                       (abs)        000000
__CFG_SCANE$OFF                                (abs)        000000
__CFG_STVREN$ON                                (abs)        000000
__CFG_WDTCCS$LFINTOSC                          (abs)        000000
__CFG_WDTCPS$WDTCPS_11                         (abs)        000000
__CFG_WDTCWS$WDTCWS_7                          (abs)        000000
__CFG_WDTE$NSLEEP                              (abs)        000000
__CFG_WRT0$ON                                  (abs)        000000
__CFG_WRT1$ON                                  (abs)        000000
__CFG_WRT2$ON                                  (abs)        000000
__CFG_WRT3$ON                                  (abs)        000000
__CFG_WRT4$ON                                  (abs)        000000
__CFG_WRT5$ON                                  (abs)        000000
__CFG_WRT6$ON                                  (abs)        000000
__CFG_WRT7$ON                                  (abs)        000000
__CFG_WRTB$ON                                  (abs)        000000
__CFG_WRTC$ON                                  (abs)        000000
__CFG_WRTD$OFF                                 (abs)        000000
__CFG_XINST$OFF                                (abs)        000000
__CFG_ZCD$OFF                                  (abs)        000000
__HRAM                                         (abs)        000000
__Habs1                                        abs1         000000
__Hbank0                                       bank0        000000
__Hbank1                                       bank1        000000
__Hbank10                                      bank10       000000
__Hbank11                                      bank11       000000
__Hbank12                                      bank12       000000
__Hbank13                                      bank13       000000
__Hbank2                                       bank2        000000
__Hbank3                                       bank3        000000
__Hbank4                                       bank4        000000
__Hbank5                                       bank5        000000
__Hbank6                                       bank6        000000
__Hbank7                                       bank7        000000
__Hbank8                                       bank8        000000
__Hbank9                                       bank9        000000
__Hbigbss                                      bigbss       000000
__Hbigdata                                     bigdata      000000
__Hbigram                                      bigram       000000
__HbitbssBANK0                                 bitbssBANK0  000000
__Hbss                                         bss          000000
__HbssBANK0                                    bssBANK0     000000
__HbssBANK1                                    bssBANK1     000000
__HbssBANK2                                    bssBANK2     000000
__HbssBANK3                                    bssBANK3     000000
__HbssBANK4                                    bssBANK4     000000
__HbssBANK5                                    bssBANK5     000000
__HbssBANK6                                    bssBANK6     000000
__Hcinit                                       cinit        000000
__Hclrtext                                     clrtext      000000
__Hcomram                                      comram       000000
__Hconfig                                      config       30000C
__Hconst                                       const        000000
__HcstackBANK0                                 cstackBANK0  000000
__HcstackBANK1                                 cstackBANK1  000000
__HcstackBANK2                                 cstackBANK2  000000
__HcstackBANK3                                 cstackBANK3  000000
__HcstackBANK4                                 cstackBANK4  000000
__HcstackBANK6                                 cstackBANK6  000000
__HcstackCOMRAM                                cstackCOMRAM 000000
__Hdata                                        data         000000
__HdataBANK0                                   dataBANK0    000000
__HdataBANK1                                   dataBANK1    000000
__HdataBANK2                                   dataBANK2    000000
__HdataBANK4                                   dataBANK4    000000
__HdataBANK5                                   dataBANK5    000000
__Heeprom_data                                 eeprom_data  000000
__Hfarbss                                      farbss       000000
__Hfardata                                     fardata      000000
__Hibigdata                                    ibigdata     000000
__Hidata                                       idata        000000
__HidataBANK0                                  idataBANK0   000000
__HidataBANK1                                  idataBANK1   000000
__HidataBANK2                                  idataBANK2   000000
__HidataBANK4                                  idataBANK4   000000
__HidataBANK5                                  idataBANK5   000000
__Hidloc                                       idloc        200010
__Hifardata                                    ifardata     000000
__Hinit                                        init         00010E
__Hintcode                                     intcode      00000E
__Hintcode_body                                intcode_body 000000
__Hintcodelo                                   intcodelo    00010A
__Hintentry                                    intentry     000000
__Hintret                                      intret       000000
__Hintsave_regs                                intsave_regs 000000
__Hirdata                                      irdata       000000
__Hmediumconst                                 mediumconst  010000
__HnvBANK4                                     nvBANK4      000000
__HnvFARRAM                                    nvFARRAM     000000
__Hnvbit                                       nvbit        000000
__Hnvrram                                      nvrram       000000
__Hparam                                       rparam       000000
__Hpowerup                                     powerup      00010A
__Hram                                         ram          000000
__Hramtop                                      ramtop       000E00
__Hrbit                                        rbit         000000
__Hrbss                                        rbss         000000
__Hrdata                                       rdata        000000
__Hreset_vec                                   reset_vec    000006
__Hrparam                                      rparam       000000
__Hsfr                                         sfr          000000
__Hsmallconst                                  smallconst   000000
__Hspace_0                                     (abs)        30000C
__Hspace_1                                     (abs)        0007EA
__Hspace_2                                     (abs)        000000
__Hstack                                       stack        000000
__Hstruct                                      struct       000000
__Htemp                                        temp         000060
__Htext                                        text         000000
__Htext0                                       text0        000000
__Htext1                                       text1        000000
__Htext10                                      text10       000000
__Htext100                                     text100      000000
__Htext101                                     text101      000000
__Htext102                                     text102      000000
__Htext103                                     text103      000000
__Htext104                                     text104      000000
__Htext105                                     text105      000000
__Htext106                                     text106      000000
__Htext107                                     text107      000000
__Htext108                                     text108      000000
__Htext109                                     text109      000000
__Htext11                                      text11       000000
__Htext110                                     text110      000000
__Htext111                                     text111      000000
__Htext112                                     text112      000000
__Htext113                                     text113      000000
__Htext114                                     text114      000000
__Htext115                                     text115      000000
__Htext116                                     text116      000000
__Htext117                                     text117      000000
__Htext118                                     text118      000000
__Htext119                                     text119      000000
__Htext12                                      text12       000000
__Htext120                                     text120      000000
__Htext122                                     text122      000000
__Htext123                                     text123      000000
__Htext124                                     text124      000000
__Htext125                                     text125      000000
__Htext126                                     text126      000000
__Htext127                                     text127      000000
__Htext128                                     text128      000000
__Htext129                                     text129      000000
__Htext13                                      text13       000000
__Htext130                                     text130      000000
__Htext131                                     text131      000000
__Htext132                                     text132      000000
__Htext133                                     text133      000000
__Htext134                                     text134      000000
__Htext135                                     text135      000000
__Htext136                                     text136      000000
__Htext137                                     text137      000000
__Htext138                                     text138      000000
__Htext139                                     text139      000000
__Htext14                                      text14       000000
__Htext140                                     text140      000000
__Htext141                                     text141      000000
__Htext142                                     text142      000000
__Htext143                                     text143      000000
__Htext144                                     text144      000000
__Htext145                                     text145      000000
__Htext146                                     text146      000000
__Htext147                                     text147      000000
__Htext148                                     text148      000000
__Htext149                                     text149      000000
__Htext15                                      text15       000000
__Htext150                                     text150      000000
__Htext151                                     text151      000000
__Htext152                                     text152      000000
__Htext153                                     text153      000000
__Htext154                                     text154      000000
__Htext155                                     text155      000000
__Htext156                                     text156      000000
__Htext157                                     text157      000000
__Htext158                                     text158      000000
__Htext159                                     text159      000000
__Htext16                                      text16       000000
__Htext160                                     text160      000000
__Htext161                                     text161      000000
__Htext162                                     text162      000000
__Htext163                                     text163      000000
__Htext164                                     text164      000000
__Htext165                                     text165      000000
__Htext166                                     text166      000000
__Htext167                                     text167      000000
__Htext168                                     text168      000000
__Htext169                                     text169      000000
__Htext17                                      text17       000000
__Htext170                                     text170      000000
__Htext171                                     text171      000000
__Htext172                                     text172      000000
__Htext173                                     text173      000000
__Htext174                                     text174      000000
__Htext175                                     text175      000000
__Htext176                                     text176      000000
__Htext177                                     text177      000000
__Htext178                                     text178      000000
__Htext179                                     text179      000000
__Htext18                                      text18       000000
__Htext180                                     text180      000000
__Htext181                                     text181      000000
__Htext182                                     text182      000000
__Htext183                                     text183      000000
__Htext184                                     text184      000000
__Htext185                                     text185      000000
__Htext186                                     text186      000000
__Htext187                                     text187      000000
__Htext188                                     text188      000000
__Htext189                                     text189      000000
__Htext19                                      text19       000000
__Htext190                                     text190      000000
__Htext191                                     text191      000000
__Htext192                                     text192      000000
__Htext193                                     text193      000000
__Htext194                                     text194      000000
__Htext195                                     text195      000000
__Htext197                                     text197      000000
__Htext198                                     text198      000000
__Htext199                                     text199      000000
__Htext2                                       text2        000000
__Htext20                                      text20       000000
__Htext200                                     text200      000000
__Htext201                                     text201      000000
__Htext202                                     text202      000000
__Htext203                                     text203      000000
__Htext204                                     text204      000000
__Htext205                                     text205      000000
__Htext206                                     text206      000000
__Htext207                                     text207      000000
__Htext208                                     text208      000000
__Htext209                                     text209      000000
__Htext21                                      text21       000000
__Htext210                                     text210      000000
__Htext211                                     text211      000000
__Htext212                                     text212      000000
__Htext213                                     text213      000000
__Htext214                                     text214      000000
__Htext215                                     text215      000000
__Htext216                                     text216      000000
__Htext217                                     text217      000000
__Htext218                                     text218      000000
__Htext219                                     text219      000000
__Htext22                                      text22       000000
__Htext220                                     text220      000000
__Htext221                                     text221      000000
__Htext222                                     text222      000000
__Htext223                                     text223      000000
__Htext224                                     text224      000000
__Htext225                                     text225      000000
__Htext226                                     text226      000000
__Htext227                                     text227      000000
__Htext228                                     text228      000000
__Htext229                                     text229      000000
__Htext23                                      text23       000000
__Htext230                                     text230      000000
__Htext231                                     text231      000000
__Htext232                                     text232      000000
__Htext233                                     text233      000000
__Htext234                                     text234      000000
__Htext235                                     text235      000000
__Htext236                                     text236      000000
__Htext237                                     text237      000000
__Htext238                                     text238      000000
__Htext239                                     text239      000000
__Htext24                                      text24       000000
__Htext240                                     text240      000000
__Htext241                                     text241      000000
__Htext242                                     text242      000000
__Htext243                                     text243      000000
__Htext244                                     text244      000000
__Htext245                                     text245      000000
__Htext246                                     text246      000000
__Htext247                                     text247      000000
__Htext248                                     text248      000000
__Htext249                                     text249      000000
__Htext25                                      text25       000000
__Htext250                                     text250      000000
__Htext251                                     text251      000000
__Htext252                                     text252      000000
__Htext253                                     text253      000000
__Htext254                                     text254      000000
__Htext255                                     text255      000000
__Htext256                                     text256      000000
__Htext257                                     text257      000000
__Htext258                                     text258      000000
__Htext259                                     text259      000000
__Htext26                                      text26       000000
__Htext260                                     text260      000000
__Htext261                                     text261      000000
__Htext262                                     text262      000000
__Htext263                                     text263      000000
__Htext27                                      text27       000000
__Htext28                                      text28       000000
__Htext29                                      text29       000000
__Htext3                                       text3        000000
__Htext30                                      text30       000000
__Htext31                                      text31       000000
__Htext32                                      text32       000000
__Htext33                                      text33       000000
__Htext34                                      text34       000000
__Htext35                                      text35       000000
__Htext36                                      text36       000000
__Htext37                                      text37       000000
__Htext38                                      text38       000000
__Htext39                                      text39       000000
__Htext4                                       text4        000000
__Htext40                                      text40       000000
__Htext41                                      text41       000000
__Htext42                                      text42       000000
__Htext43                                      text43       000000
__Htext44                                      text44       000000
__Htext45                                      text45       000000
__Htext46                                      text46       000000
__Htext47                                      text47       000000
__Htext48                                      text48       000000
__Htext49                                      text49       000000
__Htext5                                       text5        000000
__Htext50                                      text50       000000
__Htext51                                      text51       000000
__Htext52                                      text52       000000
__Htext53                                      text53       000000
__Htext54                                      text54       000000
__Htext55                                      text55       000000
__Htext56                                      text56       000000
__Htext57                                      text57       000000
__Htext58                                      text58       000000
__Htext59                                      text59       000000
__Htext6                                       text6        000000
__Htext60                                      text60       000000
__Htext61                                      text61       000000
__Htext62                                      text62       000000
__Htext63                                      text63       000000
__Htext64                                      text64       000000
__Htext65                                      text65       000000
__Htext66                                      text66       000000
__Htext67                                      text67       000000
__Htext68                                      text68       000000
__Htext69                                      text69       000000
__Htext7                                       text7        000000
__Htext70                                      text70       000000
__Htext71                                      text71       000000
__Htext72                                      text72       000000
__Htext73                                      text73       000000
__Htext74                                      text74       000000
__Htext75                                      text75       000000
__Htext76                                      text76       000000
__Htext77                                      text77       000000
__Htext78                                      text78       000000
__Htext79                                      text79       000000
__Htext8                                       text8        000000
__Htext80                                      text80       000000
__Htext81                                      text81       000000
__Htext82                                      text82       000000
__Htext83                                      text83       000000
__Htext84                                      text84       000000
__Htext85                                      text85       000000
__Htext86                                      text86       000000
__Htext87                                      text87       000000
__Htext88                                      text88       000000
__Htext89                                      text89       000000
__Htext9                                       text9        000000
__Htext90                                      text90       000000
__Htext91                                      text91       000000
__Htext92                                      text92       000000
__Htext93                                      text93       000000
__Htext94                                      text94       000000
__Htext95                                      text95       000000
__Htext96                                      text96       000000
__Htext97                                      text97       000000
__Htext98                                      text98       000000
__Htext99                                      text99       000000
__LRAM                                         (abs)        000001
__Labs1                                        abs1         000000
__Lbank0                                       bank0        000000
__Lbank1                                       bank1        000000
__Lbank10                                      bank10       000000
__Lbank11                                      bank11       000000
__Lbank12                                      bank12       000000
__Lbank13                                      bank13       000000
__Lbank2                                       bank2        000000
__Lbank3                                       bank3        000000
__Lbank4                                       bank4        000000
__Lbank5                                       bank5        000000
__Lbank6                                       bank6        000000
__Lbank7                                       bank7        000000
__Lbank8                                       bank8        000000
__Lbank9                                       bank9        000000
__Lbigbss                                      bigbss       000000
__Lbigdata                                     bigdata      000000
__Lbigram                                      bigram       000000
__LbitbssBANK0                                 bitbssBANK0  000000
__Lbss                                         bss          000000
__LbssBANK0                                    bssBANK0     000000
__LbssBANK1                                    bssBANK1     000000
__LbssBANK2                                    bssBANK2     000000
__LbssBANK3                                    bssBANK3     000000
__LbssBANK4                                    bssBANK4     000000
__LbssBANK5                                    bssBANK5     000000
__LbssBANK6                                    bssBANK6     000000
__Lcinit                                       cinit        000000
__Lclrtext                                     clrtext      000000
__Lcomram                                      comram       000000
__Lconfig                                      config       300000
__Lconst                                       const        000000
__LcstackBANK0                                 cstackBANK0  000000
__LcstackBANK1                                 cstackBANK1  000000
__LcstackBANK2                                 cstackBANK2  000000
__LcstackBANK3                                 cstackBANK3  000000
__LcstackBANK4                                 cstackBANK4  000000
__LcstackBANK6                                 cstackBANK6  000000
__LcstackCOMRAM                                cstackCOMRAM 000000
__Ldata                                        data         000000
__LdataBANK0                                   dataBANK0    000000
__LdataBANK1                                   dataBANK1    000000
__LdataBANK2                                   dataBANK2    000000
__LdataBANK4                                   dataBANK4    000000
__LdataBANK5                                   dataBANK5    000000
__Leeprom_data                                 eeprom_data  000000
__Lfarbss                                      farbss       000000
__Lfardata                                     fardata      000000
__Libigdata                                    ibigdata     000000
__Lidata                                       idata        000000
__LidataBANK0                                  idataBANK0   000000
__LidataBANK1                                  idataBANK1   000000
__LidataBANK2                                  idataBANK2   000000
__LidataBANK4                                  idataBANK4   000000
__LidataBANK5                                  idataBANK5   000000
__Lidloc                                       idloc        200000
__Lifardata                                    ifardata     000000
__Linit                                        init         00010A
__Lintcode                                     intcode      000008
__Lintcode_body                                intcode_body 000000
__Lintcodelo                                   intcodelo    000018
__Lintentry                                    intentry     000000
__Lintret                                      intret       000000
__Lintsave_regs                                intsave_regs 000000
__Lirdata                                      irdata       000000
__Lmediumconst                                 mediumconst  00CAE2
__LnvBANK4                                     nvBANK4      000000
__LnvFARRAM                                    nvFARRAM     000000
__Lnvbit                                       nvbit        000000
__Lnvrram                                      nvrram       000000
__Lparam                                       rparam       000000
__Lpowerup                                     powerup      00010A
__Lram                                         ram          000000
__Lramtop                                      ramtop       000E00
__Lrbit                                        rbit         000000
__Lrbss                                        rbss         000000
__Lrdata                                       rdata        000000
__Lreset_vec                                   reset_vec    000000
__Lrparam                                      rparam       000000
__Lsfr                                         sfr          000000
__Lsmallconst                                  smallconst   000000
__Lspace_0                                     (abs)        000000
__Lspace_1                                     (abs)        000000
__Lspace_2                                     (abs)        000000
__Lstack                                       stack        000000
__Lstruct                                      struct       000000
__Ltemp                                        temp         00005F
__Ltext                                        text         000000
__Ltext0                                       text0        000000
__Ltext1                                       text1        000000
__Ltext10                                      text10       000000
__Ltext100                                     text100      000000
__Ltext101                                     text101      000000
__Ltext102                                     text102      000000
__Ltext103                                     text103      000000
__Ltext104                                     text104      000000
__Ltext105                                     text105      000000
__Ltext106                                     text106      000000
__Ltext107                                     text107      000000
__Ltext108                                     text108      000000
__Ltext109                                     text109      000000
__Ltext11                                      text11       000000
__Ltext110                                     text110      000000
__Ltext111                                     text111      000000
__Ltext112                                     text112      000000
__Ltext113                                     text113      000000
__Ltext114                                     text114      000000
__Ltext115                                     text115      000000
__Ltext116                                     text116      000000
__Ltext117                                     text117      000000
__Ltext118                                     text118      000000
__Ltext119                                     text119      000000
__Ltext12                                      text12       000000
__Ltext120                                     text120      000000
__Ltext122                                     text122      000000
__Ltext123                                     text123      000000
__Ltext124                                     text124      000000
__Ltext125                                     text125      000000
__Ltext126                                     text126      000000
__Ltext127                                     text127      000000
__Ltext128                                     text128      000000
__Ltext129                                     text129      000000
__Ltext13                                      text13       000000
__Ltext130                                     text130      000000
__Ltext131                                     text131      000000
__Ltext132                                     text132      000000
__Ltext133                                     text133      000000
__Ltext134                                     text134      000000
__Ltext135                                     text135      000000
__Ltext136                                     text136      000000
__Ltext137                                     text137      000000
__Ltext138                                     text138      000000
__Ltext139                                     text139      000000
__Ltext14                                      text14       000000
__Ltext140                                     text140      000000
__Ltext141                                     text141      000000
__Ltext142                                     text142      000000
__Ltext143                                     text143      000000
__Ltext144                                     text144      000000
__Ltext145                                     text145      000000
__Ltext146                                     text146      000000
__Ltext147                                     text147      000000
__Ltext148                                     text148      000000
__Ltext149                                     text149      000000
__Ltext15                                      text15       000000
__Ltext150                                     text150      000000
__Ltext151                                     text151      000000
__Ltext152                                     text152      000000
__Ltext153                                     text153      000000
__Ltext154                                     text154      000000
__Ltext155                                     text155      000000
__Ltext156                                     text156      000000
__Ltext157                                     text157      000000
__Ltext158                                     text158      000000
__Ltext159                                     text159      000000
__Ltext16                                      text16       000000
__Ltext160                                     text160      000000
__Ltext161                                     text161      000000
__Ltext162                                     text162      000000
__Ltext163                                     text163      000000
__Ltext164                                     text164      000000
__Ltext165                                     text165      000000
__Ltext166                                     text166      000000
__Ltext167                                     text167      000000
__Ltext168                                     text168      000000
__Ltext169                                     text169      000000
__Ltext17                                      text17       000000
__Ltext170                                     text170      000000
__Ltext171                                     text171      000000
__Ltext172                                     text172      000000
__Ltext173                                     text173      000000
__Ltext174                                     text174      000000
__Ltext175                                     text175      000000
__Ltext176                                     text176      000000
__Ltext177                                     text177      000000
__Ltext178                                     text178      000000
__Ltext179                                     text179      000000
__Ltext18                                      text18       000000
__Ltext180                                     text180      000000
__Ltext181                                     text181      000000
__Ltext182                                     text182      000000
__Ltext183                                     text183      000000
__Ltext184                                     text184      000000
__Ltext185                                     text185      000000
__Ltext186                                     text186      000000
__Ltext187                                     text187      000000
__Ltext188                                     text188      000000
__Ltext189                                     text189      000000
__Ltext19                                      text19       000000
__Ltext190                                     text190      000000
__Ltext191                                     text191      000000
__Ltext192                                     text192      000000
__Ltext193                                     text193      000000
__Ltext194                                     text194      000000
__Ltext195                                     text195      000000
__Ltext197                                     text197      000000
__Ltext198                                     text198      000000
__Ltext199                                     text199      000000
__Ltext2                                       text2        000000
__Ltext20                                      text20       000000
__Ltext200                                     text200      000000
__Ltext201                                     text201      000000
__Ltext202                                     text202      000000
__Ltext203                                     text203      000000
__Ltext204                                     text204      000000
__Ltext205                                     text205      000000
__Ltext206                                     text206      000000
__Ltext207                                     text207      000000
__Ltext208                                     text208      000000
__Ltext209                                     text209      000000
__Ltext21                                      text21       000000
__Ltext210                                     text210      000000
__Ltext211                                     text211      000000
__Ltext212                                     text212      000000
__Ltext213                                     text213      000000
__Ltext214                                     text214      000000
__Ltext215                                     text215      000000
__Ltext216                                     text216      000000
__Ltext217                                     text217      000000
__Ltext218                                     text218      000000
__Ltext219                                     text219      000000
__Ltext22                                      text22       000000
__Ltext220                                     text220      000000
__Ltext221                                     text221      000000
__Ltext222                                     text222      000000
__Ltext223                                     text223      000000
__Ltext224                                     text224      000000
__Ltext225                                     text225      000000
__Ltext226                                     text226      000000
__Ltext227                                     text227      000000
__Ltext228                                     text228      000000
__Ltext229                                     text229      000000
__Ltext23                                      text23       000000
__Ltext230                                     text230      000000
__Ltext231                                     text231      000000
__Ltext232                                     text232      000000
__Ltext233                                     text233      000000
__Ltext234                                     text234      000000
__Ltext235                                     text235      000000
__Ltext236                                     text236      000000
__Ltext237                                     text237      000000
__Ltext238                                     text238      000000
__Ltext239                                     text239      000000
__Ltext24                                      text24       000000
__Ltext240                                     text240      000000
__Ltext241                                     text241      000000
__Ltext242                                     text242      000000
__Ltext243                                     text243      000000
__Ltext244                                     text244      000000
__Ltext245                                     text245      000000
__Ltext246                                     text246      000000
__Ltext247                                     text247      000000
__Ltext248                                     text248      000000
__Ltext249                                     text249      000000
__Ltext25                                      text25       000000
__Ltext250                                     text250      000000
__Ltext251                                     text251      000000
__Ltext252                                     text252      000000
__Ltext253                                     text253      000000
__Ltext254                                     text254      000000
__Ltext255                                     text255      000000
__Ltext256                                     text256      000000
__Ltext257                                     text257      000000
__Ltext258                                     text258      000000
__Ltext259                                     text259      000000
__Ltext26                                      text26       000000
__Ltext260                                     text260      000000
__Ltext261                                     text261      000000
__Ltext262                                     text262      000000
__Ltext263                                     text263      000000
__Ltext27                                      text27       000000
__Ltext28                                      text28       000000
__Ltext29                                      text29       000000
__Ltext3                                       text3        000000
__Ltext30                                      text30       000000
__Ltext31                                      text31       000000
__Ltext32                                      text32       000000
__Ltext33                                      text33       000000
__Ltext34                                      text34       000000
__Ltext35                                      text35       000000
__Ltext36                                      text36       000000
__Ltext37                                      text37       000000
__Ltext38                                      text38       000000
__Ltext39                                      text39       000000
__Ltext4                                       text4        000000
__Ltext40                                      text40       000000
__Ltext41                                      text41       000000
__Ltext42                                      text42       000000
__Ltext43                                      text43       000000
__Ltext44                                      text44       000000
__Ltext45                                      text45       000000
__Ltext46                                      text46       000000
__Ltext47                                      text47       000000
__Ltext48                                      text48       000000
__Ltext49                                      text49       000000
__Ltext5                                       text5        000000
__Ltext50                                      text50       000000
__Ltext51                                      text51       000000
__Ltext52                                      text52       000000
__Ltext53                                      text53       000000
__Ltext54                                      text54       000000
__Ltext55                                      text55       000000
__Ltext56                                      text56       000000
__Ltext57                                      text57       000000
__Ltext58                                      text58       000000
__Ltext59                                      text59       000000
__Ltext6                                       text6        000000
__Ltext60                                      text60       000000
__Ltext61                                      text61       000000
__Ltext62                                      text62       000000
__Ltext63                                      text63       000000
__Ltext64                                      text64       000000
__Ltext65                                      text65       000000
__Ltext66                                      text66       000000
__Ltext67                                      text67       000000
__Ltext68                                      text68       000000
__Ltext69                                      text69       000000
__Ltext7                                       text7        000000
__Ltext70                                      text70       000000
__Ltext71                                      text71       000000
__Ltext72                                      text72       000000
__Ltext73                                      text73       000000
__Ltext74                                      text74       000000
__Ltext75                                      text75       000000
__Ltext76                                      text76       000000
__Ltext77                                      text77       000000
__Ltext78                                      text78       000000
__Ltext79                                      text79       000000
__Ltext8                                       text8        000000
__Ltext80                                      text80       000000
__Ltext81                                      text81       000000
__Ltext82                                      text82       000000
__Ltext83                                      text83       000000
__Ltext84                                      text84       000000
__Ltext85                                      text85       000000
__Ltext86                                      text86       000000
__Ltext87                                      text87       000000
__Ltext88                                      text88       000000
__Ltext89                                      text89       000000
__Ltext9                                       text9        000000
__Ltext90                                      text90       000000
__Ltext91                                      text91       000000
__Ltext92                                      text92       000000
__Ltext93                                      text93       000000
__Ltext94                                      text94       000000
__Ltext95                                      text95       000000
__Ltext96                                      text96       000000
__Ltext97                                      text97       000000
__Ltext98                                      text98       000000
__Ltext99                                      text99       000000
__S0                                           (abs)        30000C
__S1                                           (abs)        0006C9
__S2                                           (abs)        000000
___awdiv                                       text70       002286
___awdiv@counter                               cstackBANK3  00030A
___awdiv@dividend                              cstackBANK3  000306
___awdiv@divisor                               cstackBANK3  000308
___awdiv@quotient                              cstackBANK3  00030C
___awdiv@sign                                  cstackBANK3  00030B
___awmod                                       text69       00290A
___awmod@counter                               cstackBANK3  000304
___awmod@dividend                              cstackBANK3  000300
___awmod@divisor                               cstackBANK3  000302
___awmod@sign                                  cstackBANK3  000305
___fladd                                       text79       01BC5C
___fladd@a                                     cstackBANK3  000316
___fladd@aexp                                  cstackBANK3  000323
___fladd@b                                     cstackBANK3  000312
___fladd@bexp                                  cstackBANK3  000324
___fladd@grs                                   cstackBANK3  000325
___fladd@signs                                 cstackBANK3  000322
___fldiv                                       text81       01E02A
___fldiv@a                                     cstackBANK3  00032A
___fldiv@aexp                                  cstackBANK3  00033E
___fldiv@b                                     cstackBANK3  000326
___fldiv@bexp                                  cstackBANK3  00033D
___fldiv@grs                                   cstackBANK3  000339
___fldiv@new_exp                               cstackBANK3  000337
___fldiv@rem                                   cstackBANK3  000333
___fldiv@sign                                  cstackBANK3  000332
___flge                                        text85       000824
___flge@ff1                                    cstackBANK3  00036B
___flge@ff2                                    cstackBANK3  00036F
___flmul                                       text68       01B268
___flmul@a                                     cstackBANK3  000343
___flmul@aexp                                  cstackBANK3  00034C
___flmul@b                                     cstackBANK3  00033F
___flmul@bexp                                  cstackBANK3  000351
___flmul@grs                                   cstackBANK3  00034D
___flmul@prod                                  cstackBANK3  000352
___flmul@sign                                  cstackBANK3  00034B
___flmul@temp                                  cstackBANK3  000356
___flneg                                       text80       003E2A
___flneg@f1                                    cstackBANK3  00030E
___flsub                                       text78       00353A
___flsub@a                                     cstackBANK3  00032A
___flsub@b                                     cstackBANK3  000326
___fltol                                       text77       001462
___fltol@exp1                                  cstackBANK3  00036A
___fltol@f1                                    cstackBANK3  000361
___fltol@sign1                                 cstackBANK3  000369
___ftdiv                                       text28       001292
___ftdiv@cntr                                  cstackBANK3  000314
___ftdiv@exp                                   cstackBANK3  000318
___ftdiv@f1                                    cstackBANK3  00030B
___ftdiv@f2                                    cstackBANK3  00030E
___ftdiv@f3                                    cstackBANK3  000315
___ftdiv@sign                                  cstackBANK3  000319
___ftpack                                      text29       001AE0
___ftpack@arg                                  cstackBANK3  000300
___ftpack@exp                                  cstackBANK3  000303
___ftpack@sign                                 cstackBANK3  000304
___inthi_sp                                    stack        000000
___intlo_sp                                    stack        000000
___lldiv                                       text76       002392
___lldiv@counter                               cstackBANK3  00030C
___lldiv@dividend                              cstackBANK3  000300
___lldiv@divisor                               cstackBANK3  000304
___lldiv@quotient                              cstackBANK3  000308
___llmod                                       text75       002C80
___llmod@counter                               cstackBANK3  000315
___llmod@dividend                              cstackBANK3  00030D
___llmod@divisor                               cstackBANK3  000311
___lwtoft                                      text27       004012
___lwtoft@c                                    cstackBANK3  000308
___param_bank                                  (abs)        000000
___rparam_used                                 (abs)        000001
___sp                                          stack        000000
___wmul                                        text74       003F72
___wmul@multiplicand                           cstackBANK3  0003B6
___wmul@multiplier                             cstackBANK3  0003B4
___wmul@product                                cstackBANK3  0003B8
___xxtofl                                      text73       01F8BE
___xxtofl@arg                                  cstackBANK3  00030A
___xxtofl@exp                                  cstackBANK3  000309
___xxtofl@sign                                 cstackBANK3  000308
___xxtofl@val                                  cstackBANK3  000300
__accesstop                                    (abs)        000060
__activetblptr                                 (abs)        000003
__div_to_l_                                    text72       0004A8
__div_to_l_@cntr                               cstackBANK3  00030C
__div_to_l_@exp1                               cstackBANK3  00030D
__div_to_l_@f1                                 cstackBANK3  000300
__div_to_l_@f2                                 cstackBANK3  000304
__div_to_l_@quot                               cstackBANK3  000308
__doprnt                                       text62       0120E8
__doprnt$5794                                  cstackBANK4  000400
__doprnt@ap                                    cstackBANK3  0003BE
__doprnt@c                                     cstackBANK4  00041D
__doprnt@cp                                    cstackBANK4  000405
__doprnt@exp                                   cstackBANK4  000413
__doprnt@f                                     cstackBANK3  0003BC
__doprnt@flag                                  cstackBANK4  000415
__doprnt@fval                                  cstackBANK4  000417
__doprnt@idx                                   cstackBANK4  000404
__doprnt@len                                   cstackBANK4  000407
__doprnt@pb                                    cstackBANK3  0003BA
__doprnt@prec                                  cstackBANK4  00041B
__doprnt@tmpval                                cstackBANK4  000409
__doprnt@val                                   cstackBANK4  00040F
__doprnt@width                                 cstackBANK4  00040D
__end_of_ADCC_ClearAccumulator                 text127      0045EE
__end_of_ADCC_DefaultInterruptHandler          text236      004632
__end_of_ADCC_DischargeSampleCapacitor         text126      0045D0
__end_of_ADCC_GetConversionResult              text262      004432
__end_of_ADCC_GetCurrentCountofConversions     text261      004624
__end_of_ADCC_GetFilterValue                   text260      00441E
__end_of_ADCC_HasAccumulatorOverflowed         text259      004570
__end_of_ADCC_Initialize                       text113      002C18
__end_of_ADCC_SetADTIInterruptHandler          text114      004522
__end_of_ADCC_StartConversion                  text125      004530
__end_of_ADCC_StopConversion                   text258      004620
__end_of_ADCC_ThresholdISR                     text235      004012
__end_of_ADC_PostProcessingCallback            text237      018AA0
__end_of_DATAEE_ReadByte                       text88       004392
__end_of_DATAEE_WriteByte                      text84       0039FE
__end_of_EUSART2_Initialize                    text110      002E86
__end_of_EUSART2_Read                          text43       003332
__end_of_EUSART2_Receive_ISR                   text220      001CF0
__end_of_EUSART2_SetRxInterruptHandler         text112      004514
__end_of_EUSART2_SetTxInterruptHandler         text111      004506
__end_of_EUSART2_Transmit_ISR                  text195      003CFC
__end_of_EUSART2_Write                         text65       00353A
__end_of_EXT_INT_Initialize                    text108      0042B4
__end_of_FLASH_ReadByte                        text56       00435E
__end_of_FLASH_ReadWord                        text55       00383E
__end_of_FVR_Initialize                        text107      0045C8
__end_of_HLVD_ISR                              text217      003982
__end_of_HLVD_Initialize                       text106      004496
__end_of_I2C1_BusCollisionISR                  text216      004600
__end_of_I2C1_FunctionComplete                 text215      0042D2
__end_of_I2C1_ISR                              text213      01ED66
__end_of_I2C1_Initialize                       text105      003CC6
__end_of_I2C1_MasterTRBInsert                  text119      001EEE
__end_of_I2C1_MasterWrite                      text117      003294
__end_of_I2C1_MasterWriteTRBBuild              text118      0036E8
__end_of_I2C1_Stop                             text214      0038C2
__end_of_I2C1_WaitForLastPacketToComplete      text120      00458E
__end_of_INT0_CallBack                         text208      0041D2
__end_of_INT0_DefaultInterruptHandler          text209      004630
__end_of_INT0_ISR                              text207      0045B6
__end_of_INT0_SetInterruptHandler              text109      0044F8
__end_of_INTERRUPT_Initialize                  text104      004296
__end_of_INTERRUPT_InterruptManagerHigh        intcode_body 000DA6
__end_of_INTERRUPT_InterruptManagerLow         intcodelo    00010A
__end_of_OLED_Clear                            text40       003902
__end_of_OLED_Command                          text116      002D50
__end_of_OLED_Init                             text115      00216A
__end_of_OLED_PutChar                          text41       001964
__end_of_OLED_UpdateFromRAMBuffer              text37       002816
__end_of_OLED_WriteString                      text39       003056
__end_of_OLED_YX                               text38       003AB6
__end_of_OLED_updateCallback                   text14       01936E
__end_of_OSCILLATOR_Initialize                 text103      004328
__end_of_OledFont                              mediumconst  00CEA1
__end_of_PIN_MANAGER_Initialize                text102      00189E
__end_of_PMD_Initialize                        text101      00430C
__end_of_SYSTEM_Initialize                     text90       003A3C
__end_of_TMR2_CallBack                         text133      00418A
__end_of_TMR2_Counter8BitSet                   text31       00457A
__end_of_TMR2_DefaultInterruptHandler          text134      00462A
__end_of_TMR2_ISR                              text132      0040AA
__end_of_TMR2_Initialize                       text99       003EBA
__end_of_TMR2_Period8BitSet                    text36       004584
__end_of_TMR2_SetInterruptHandler              text100      0044EA
__end_of_TMR2_Start                            text35       00460C
__end_of_TMR2_StartTimer                       text34       0045E8
__end_of_TMR2_Stop                             text33       004608
__end_of_TMR2_StopTimer                        text32       0045E2
__end_of_TMR2_WriteTimer                       text30       0044A4
__end_of_TMR4_CallBack                         text202      0041AE
__end_of_TMR4_DefaultInterruptHandler          text203      00462E
__end_of_TMR4_ISR                              text201      00411C
__end_of_TMR4_Initialize                       text97       003E8A
__end_of_TMR4_SetInterruptHandler              text98       0044DC
__end_of_TMR5_DefaultInterruptHandler          text198      00462C
__end_of_TMR5_ISR                              text197      003D98
__end_of_TMR5_Initialize                       text95       003244
__end_of_TMR5_SetInterruptHandler              text96       0044CE
__end_of_TMR5_StartTimer                       text212      00461C
__end_of_TMR5_StopTimer                        text13       004604
__end_of_TMR5_WriteTimer                       text211      004344
__end_of_TMR6_DefaultInterruptHandler          text130      004628
__end_of_TMR6_ISR                              text129      003FC2
__end_of_TMR6_Initialize                       text93       003DCA
__end_of_TMR6_SetInterruptHandler              text94       0044C0
__end_of_TMR7_DefaultInterruptHandler          text123      004626
__end_of_TMR7_ISR                              text122      003D64
__end_of_TMR7_Initialize                       text91       003102
__end_of_TMR7_SetInterruptHandler              text92       0044B2
__end_of_TMR7_WriteTimer                       text128      004084
__end_of_Total_Energy_address                  mediumconst  00CBA1
__end_of___awdiv                               text70       00230C
__end_of___awmod                               text69       00297C
__end_of___fladd                               text79       01BF9A
__end_of___fldiv                               text81       01E2E0
__end_of___flge                                text85       000946
__end_of___flmul                               text68       01B5BA
__end_of___flneg                               text80       003E5A
__end_of___flsub                               text78       003582
__end_of___fltol                               text77       001540
__end_of___ftdiv                               text28       00137A
__end_of___ftpack                              text29       001B90
__end_of___lldiv                               text76       002416
__end_of___llmod                               text75       002CE8
__end_of___lwtoft                              text27       004038
__end_of___wmul                                text74       003F9A
__end_of___xxtofl                              text73       01FA12
__end_of__div_to_l_                            text72       0005D2
__end_of__doprnt                               text62       014120
__end_of__initialization                       cinit        001288
__end_of__npowers_                             mediumconst  00CB4B
__end_of__powers_                              mediumconst  00CB17
__end_of__tdiv_to_l_                           text71       000242
__end_of_abs                                   text257      003F72
__end_of_acos                                  text21       002A5E
__end_of_acquisitionTimerCallback              text124      004456
__end_of_asin                                  text22       01C926
__end_of_atan                                  text24       01F44E
__end_of_atoi                                  text12       0017D2
__end_of_clearADCErrors                        text11       0041F4
__end_of_clearCOMMErrors                       text10       020000
__end_of_currentMeasuredToPeak                 text244      00279C
__end_of_dimmingOffTimeCallback                text210      0043F4
__end_of_dimmingOnTimeCallback                 text199      004564
__end_of_dpowers                               mediumconst  00CB73
__end_of_eval_poly                             text26       000EA6
__end_of_fabs                                  text25       0039C0
__end_of_floor                                 text251      000C9E
__end_of_frexp                                 text19       0026A2
__end_of_fround                                text67       01DD64
__end_of_getADCError                           text59       003D30
__end_of_getCOMMError                          text58       00440A
__end_of_getCauseOfReset                       text89       002FA6
__end_of_getCauseOfResetString                 text57       003E2A
__end_of_getCauseOfResetStringSmall            text20       003DFA
__end_of_getDeviceID                           text54       004258
__end_of_getDeviceIDString                     text53       002F4C
__end_of_getMajorRevisionID                    text52       003AF2
__end_of_getMinorRevisionID                    text51       00405E
__end_of_getUserID                             text50       0037B8
__end_of_heartbeatTimerCallback                text131      0037FC
__end_of_hexpowers                             mediumconst  00CB93
__end_of_isdigit                               text66       004216
__end_of_main                                  text0        0011A0
__end_of_max_FVR_ADC_Result_address            mediumconst  00CB95
__end_of_max_Irms_address                      mediumconst  00CB9F
__end_of_max_POS12_ADC_Result_address          mediumconst  00CB99
__end_of_max_POS3P3_ADC_Result_address         mediumconst  00CB9B
__end_of_max_Power_address                     mediumconst  00CB9D
__end_of_max_Temp_ADC_Result_address           mediumconst  00CB97
__end_of_memmove                               text42       001D9E
__end_of_peakToRMS                             text238      01F216
__end_of_printf                                text61       003B2E
__end_of_putch                                 text64       004378
__end_of_readDoubleFromEEPROM                  text87       003154
__end_of_recoverSRAMMaxFromEEPROM              text86       01FE02
__end_of_ringBufferLUT                         text4        0120E8
__end_of_round                                 text17       01FFF2
__end_of_saveSRAMMaxToEEPROM                   text82       01EFCC
__end_of_scale                                 text63       01A5DC
__end_of_sin                                   text245      01D246
__end_of_sprintf                               text16       0034F2
__end_of_sqrt                                  text23       01D50E
__end_of_strcat                                text48       0033CC
__end_of_strchr                                text8        003C90
__end_of_strcmp                                text9        0031A4
__end_of_strcpy                                text15       0034AA
__end_of_strlen                                text7        002FFE
__end_of_strncmp                               text6        0021FA
__end_of_strncpy                               text47       002C80
__end_of_strstr                                text5        002286
__end_of_terminal_clearTerminal                text60       004486
__end_of_terminal_printNewline                 text49       004476
__end_of_terminal_printResetMessage            text44       01A138
__end_of_terminal_ringBufferPull               text3        01FF3C
__end_of_terminal_setCursorHome                text2        004466
__end_of_terminal_textAttributes               text46       01B268
__end_of_terminal_textAttributesReset          text45       004444
__end_of_trunc                                 text18       002030
__end_of_updateErrorLEDs                       text1        0043C4
__end_of_writeDoubleToEEPROM                   text83       0031F4
__end_of_writeEnergyToEEPROMCallback           text204      00251E
__end_ofatan@coeff_a                           mediumconst  00CEB9
__end_ofatan@coeff_b                           mediumconst  00CEE1
__end_ofi1_EUSART2_Write                       text141      003612
__end_ofi1_FLASH_ReadByte                      text161      0043AC
__end_ofi1_FLASH_ReadWord                      text160      003880
__end_ofi1_I2C1_MasterTRBInsert                text193      001F90
__end_ofi1_I2C1_MasterWrite                    text191      0032E4
__end_ofi1_I2C1_MasterWriteTRBBuild            text192      00372E
__end_ofi1_I2C1_WaitForLastPacketToComplete    text194      0045AC
__end_ofi1_OLED_Clear                          text188      003942
__end_ofi1_OLED_Command                        text186      002E20
__end_ofi1_OLED_PutChar                        text189      001A2A
__end_ofi1_OLED_UpdateFromRAMBuffer            text184      002890
__end_ofi1_OLED_WriteString                    text187      0030AE
__end_ofi1_OLED_YX                             text185      003BA6
__end_ofi1_OLED_updateCallback                 text135      019C3A
__end_ofi1_TMR2_Counter8BitSet                 text178      004598
__end_ofi1_TMR2_Period8BitSet                  text183      0045A2
__end_ofi1_TMR2_Start                          text182      004614
__end_ofi1_TMR2_StartTimer                     text181      0045FA
__end_ofi1_TMR2_Stop                           text180      004610
__end_ofi1_TMR2_StopTimer                      text179      0045F4
__end_ofi1_TMR2_WriteTimer                     text177      00454C
__end_ofi1___awdiv                             text145      002392
__end_ofi1___awmod                             text144      0029EE
__end_ofi1___fladd                             text171      01C2D8
__end_ofi1___fldiv                             text173      01E596
__end_ofi1___flge                              text172      000A68
__end_ofi1___flmul                             text170      01B90C
__end_ofi1___flneg                             text168      003F1A
__end_ofi1___flsub                             text151      00365A
__end_ofi1___fltol                             text156      00161E
__end_ofi1___ftdiv                             text175      001462
__end_ofi1___ftpack                            text176      001C40
__end_ofi1___lldiv                             text150      00249A
__end_ofi1___llmod                             text149      002DB8
__end_ofi1___lwtoft                            text174      0040F6
__end_ofi1___wmul                              text148      003FEA
__end_ofi1___xxtofl                            text155      01FB66
__end_ofi1__div_to_l_                          text147      0006FC
__end_ofi1__doprnt                             text138      016052
__end_ofi1__tdiv_to_l_                         text146      000376
__end_ofi1_acos                                text163      002ACE
__end_ofi1_asin                                text164      01CC36
__end_ofi1_atan                                text166      01F686
__end_ofi1_eval_poly                           text169      000FA6
__end_ofi1_fabs                                text167      003A7A
__end_ofi1_frexp                               text154      002720
__end_ofi1_fround                              text143      01E02A
__end_ofi1_getCauseOfResetStringSmall          text162      003EEA
__end_ofi1_getDeviceID                         text159      004278
__end_ofi1_getMajorRevisionID                  text158      003B6A
__end_ofi1_getMinorRevisionID                  text157      0040D0
__end_ofi1_isdigit                             text142      004238
__end_ofi1_memmove                             text190      001E4C
__end_ofi1_putch                               text140      00453E
__end_ofi1_round                               text152      001AE0
__end_ofi1_scale                               text139      01AA80
__end_ofi1_sprintf                             text137      003462
__end_ofi1_sqrt                                text165      01D7D6
__end_ofi1_strcpy                              text136      0035CA
__end_ofi1_trunc                               text153      0020D0
__end_ofi2_DATAEE_ReadByte                     text206      0043DC
__end_ofi2_DATAEE_WriteByte                    text219      003C58
__end_ofi2_EUSART2_Write                       text225      003774
__end_ofi2_TMR5_StopTimer                      text200      004618
__end_ofi2___awdiv                             text229      0025A2
__end_ofi2___awmod                             text228      002B3E
__end_ofi2___fladd                             text256      01C616
__end_ofi2___fldiv                             text250      01E84C
__end_ofi2___flge                              text255      000B8A
__end_ofi2___flmul                             text247      01BC5C
__end_ofi2___flneg                             text249      003F48
__end_ofi2___flsub                             text248      0036A2
__end_ofi2___fltol                             text254      0016FA
__end_ofi2___lldiv                             text234      002624
__end_ofi2___llmod                             text233      002EEC
__end_ofi2___wmul                              text232      004142
__end_ofi2___xxtofl                            text253      01FCB6
__end_ofi2__div_to_l_                          text231      000824
__end_ofi2__doprnt                             text222      017F72
__end_ofi2__tdiv_to_l_                         text230      0004A8
__end_ofi2_acos                                text239      002BAE
__end_ofi2_asin                                text240      01CF46
__end_ofi2_atan                                text242      01F8BE
__end_ofi2_eval_poly                           text246      0010A6
__end_ofi2_fabs                                text243      003C1E
__end_ofi2_frexp                               text252      00290A
__end_ofi2_fround                              text227      01EAFA
__end_ofi2_isdigit                             text226      0042F0
__end_ofi2_printf                              text221      003BE2
__end_ofi2_putch                               text224      0045C0
__end_ofi2_readDoubleFromEEPROM                text205      003380
__end_ofi2_scale                               text223      01AF00
__end_ofi2_sqrt                                text241      01DA9E
__end_ofi2_writeDoubleToEEPROM                 text218      003418
__end_ofsin@coeff_a                            mediumconst  00CECD
__end_ofsin@coeff_b                            mediumconst  00CEF1
__initialization                               cinit        0011A0
__mediumconst                                  mediumconst  00CAE2
__npowers_                                     mediumconst  00CB17
__pbitbssBANK0                                 bitbssBANK0  0007E8
__pbssBANK0                                    bssBANK0     0000F9
__pbssBANK1                                    bssBANK1     0001D6
__pbssBANK2                                    bssBANK2     000276
__pbssBANK3                                    bssBANK3     0003DB
__pbssBANK4                                    bssBANK4     000480
__pbssBANK5                                    bssBANK5     000500
__pbssBANK6                                    bssBANK6     000600
__pcinit                                       cinit        0011A0
__pcstackBANK0                                 cstackBANK0  000060
__pcstackBANK1                                 cstackBANK1  000100
__pcstackBANK2                                 cstackBANK2  000200
__pcstackBANK3                                 cstackBANK3  000300
__pcstackBANK4                                 cstackBANK4  000400
__pcstackBANK6                                 cstackBANK6  000680
__pcstackCOMRAM                                cstackCOMRAM 000001
__pdataBANK0                                   dataBANK0    0000F3
__pdataBANK1                                   dataBANK1    0001EB
__pdataBANK2                                   dataBANK2    0002CD
__pdataBANK4                                   dataBANK4    0004E0
__pdataBANK5                                   dataBANK5    0005D5
__pidataBANK0                                  idataBANK0   0045D0
__pidataBANK1                                  idataBANK1   004632
__pidataBANK2                                  idataBANK2   00454C
__pidataBANK4                                  idataBANK4   0045D6
__pidataBANK5                                  idataBANK5   004142
__pintcode                                     intcode      000008
__pintcode_body                                intcode_body 000C9E
__pintcodelo                                   intcodelo    000018
__pmediumconst                                 mediumconst  00CAE2
__pnvBANK4                                     nvBANK4      0004E6
__powers_                                      mediumconst  00CAE3
__ptext0                                       text0        0010A6
__ptext1                                       text1        0043AC
__ptext10                                      text10       01FFF2
__ptext100                                     text100      0044DC
__ptext101                                     text101      0042F0
__ptext102                                     text102      0017D2
__ptext103                                     text103      00430C
__ptext104                                     text104      004278
__ptext105                                     text105      003C90
__ptext106                                     text106      004486
__ptext107                                     text107      0045C0
__ptext108                                     text108      004296
__ptext109                                     text109      0044EA
__ptext11                                      text11       0041D2
__ptext110                                     text110      002E20
__ptext111                                     text111      0044F8
__ptext112                                     text112      004506
__ptext113                                     text113      002BAE
__ptext114                                     text114      004514
__ptext115                                     text115      0020D0
__ptext116                                     text116      002CE8
__ptext117                                     text117      003244
__ptext118                                     text118      0036A2
__ptext119                                     text119      001E4C
__ptext12                                      text12       0016FA
__ptext120                                     text120      004584
__ptext122                                     text122      003D30
__ptext123                                     text123      004624
__ptext124                                     text124      004444
__ptext125                                     text125      004522
__ptext126                                     text126      0045C8
__ptext127                                     text127      0045E8
__ptext128                                     text128      00405E
__ptext129                                     text129      003F9A
__ptext13                                      text13       004600
__ptext130                                     text130      004626
__ptext131                                     text131      0037B8
__ptext132                                     text132      004084
__ptext133                                     text133      004166
__ptext134                                     text134      004628
__ptext135                                     text135      01936E
__ptext136                                     text136      003582
__ptext137                                     text137      003418
__ptext138                                     text138      014120
__ptext139                                     text139      01A5DC
__ptext14                                      text14       018AA0
__ptext140                                     text140      004530
__ptext141                                     text141      0035CA
__ptext142                                     text142      004216
__ptext143                                     text143      01DD64
__ptext144                                     text144      00297C
__ptext145                                     text145      00230C
__ptext146                                     text146      000242
__ptext147                                     text147      0005D2
__ptext148                                     text148      003FC2
__ptext149                                     text149      002D50
__ptext15                                      text15       003462
__ptext150                                     text150      002416
__ptext151                                     text151      003612
__ptext152                                     text152      001A2A
__ptext153                                     text153      002030
__ptext154                                     text154      0026A2
__ptext155                                     text155      01FA12
__ptext156                                     text156      001540
__ptext157                                     text157      0040AA
__ptext158                                     text158      003B2E
__ptext159                                     text159      004258
__ptext16                                      text16       0034AA
__ptext160                                     text160      00383E
__ptext161                                     text161      004392
__ptext162                                     text162      003EBA
__ptext163                                     text163      002A5E
__ptext164                                     text164      01C926
__ptext165                                     text165      01D50E
__ptext166                                     text166      01F44E
__ptext167                                     text167      003A3C
__ptext168                                     text168      003EEA
__ptext169                                     text169      000EA6
__ptext17                                      text17       01FF3C
__ptext170                                     text170      01B5BA
__ptext171                                     text171      01BF9A
__ptext172                                     text172      000946
__ptext173                                     text173      01E2E0
__ptext174                                     text174      0040D0
__ptext175                                     text175      00137A
__ptext176                                     text176      001B90
__ptext177                                     text177      00453E
__ptext178                                     text178      00458E
__ptext179                                     text179      0045EE
__ptext18                                      text18       001F90
__ptext180                                     text180      00460C
__ptext181                                     text181      0045F4
__ptext182                                     text182      004610
__ptext183                                     text183      004598
__ptext184                                     text184      002816
__ptext185                                     text185      003B6A
__ptext186                                     text186      002DB8
__ptext187                                     text187      003056
__ptext188                                     text188      003902
__ptext189                                     text189      001964
__ptext19                                      text19       002624
__ptext190                                     text190      001D9E
__ptext191                                     text191      003294
__ptext192                                     text192      0036E8
__ptext193                                     text193      001EEE
__ptext194                                     text194      0045A2
__ptext195                                     text195      003CC6
__ptext197                                     text197      003D64
__ptext198                                     text198      00462A
__ptext199                                     text199      004558
__ptext2                                       text2        004456
__ptext20                                      text20       003DCA
__ptext200                                     text200      004614
__ptext201                                     text201      0040F6
__ptext202                                     text202      00418A
__ptext203                                     text203      00462C
__ptext204                                     text204      00249A
__ptext205                                     text205      003332
__ptext206                                     text206      0043C4
__ptext207                                     text207      0045AC
__ptext208                                     text208      0041AE
__ptext209                                     text209      00462E
__ptext21                                      text21       0029EE
__ptext210                                     text210      0043DC
__ptext211                                     text211      004328
__ptext212                                     text212      004618
__ptext213                                     text213      01EAFA
__ptext214                                     text214      003880
__ptext215                                     text215      0042B4
__ptext216                                     text216      0045FA
__ptext217                                     text217      003942
__ptext218                                     text218      0033CC
__ptext219                                     text219      003C1E
__ptext22                                      text22       01C616
__ptext220                                     text220      001C40
__ptext221                                     text221      003BA6
__ptext222                                     text222      016052
__ptext223                                     text223      01AA80
__ptext224                                     text224      0045B6
__ptext225                                     text225      00372E
__ptext226                                     text226      0042D2
__ptext227                                     text227      01E84C
__ptext228                                     text228      002ACE
__ptext229                                     text229      00251E
__ptext23                                      text23       01D246
__ptext230                                     text230      000376
__ptext231                                     text231      0006FC
__ptext232                                     text232      00411C
__ptext233                                     text233      002E86
__ptext234                                     text234      0025A2
__ptext235                                     text235      003FEA
__ptext236                                     text236      004630
__ptext237                                     text237      017F72
__ptext238                                     text238      01EFCC
__ptext239                                     text239      002B3E
__ptext24                                      text24       01F216
__ptext240                                     text240      01CC36
__ptext241                                     text241      01D7D6
__ptext242                                     text242      01F686
__ptext243                                     text243      003BE2
__ptext244                                     text244      002720
__ptext245                                     text245      01CF46
__ptext246                                     text246      000FA6
__ptext247                                     text247      01B90C
__ptext248                                     text248      00365A
__ptext249                                     text249      003F1A
__ptext25                                      text25       003982
__ptext250                                     text250      01E596
__ptext251                                     text251      000B8A
__ptext252                                     text252      002890
__ptext253                                     text253      01FB66
__ptext254                                     text254      00161E
__ptext255                                     text255      000A68
__ptext256                                     text256      01C2D8
__ptext257                                     text257      003F48
__ptext258                                     text258      00461C
__ptext259                                     text259      004564
__ptext26                                      text26       000DA6
__ptext260                                     text260      00440A
__ptext261                                     text261      004620
__ptext262                                     text262      00441E
__ptext263                                     text263      000000
__ptext27                                      text27       004012
__ptext28                                      text28       001292
__ptext29                                      text29       001AE0
__ptext3                                       text3        01FE02
__ptext30                                      text30       004496
__ptext31                                      text31       004570
__ptext32                                      text32       0045DC
__ptext33                                      text33       004604
__ptext34                                      text34       0045E2
__ptext35                                      text35       004608
__ptext36                                      text36       00457A
__ptext37                                      text37       00279C
__ptext38                                      text38       003A7A
__ptext39                                      text39       002FFE
__ptext4                                       text4        010000
__ptext40                                      text40       0038C2
__ptext41                                      text41       00189E
__ptext42                                      text42       001CF0
__ptext43                                      text43       0032E4
__ptext44                                      text44       019C3A
__ptext45                                      text45       004432
__ptext46                                      text46       01AF00
__ptext47                                      text47       002C18
__ptext48                                      text48       003380
__ptext49                                      text49       004466
__ptext5                                       text5        0021FA
__ptext50                                      text50       003774
__ptext51                                      text51       004038
__ptext52                                      text52       003AB6
__ptext53                                      text53       002EEC
__ptext54                                      text54       004238
__ptext55                                      text55       0037FC
__ptext56                                      text56       004344
__ptext57                                      text57       003DFA
__ptext58                                      text58       0043F4
__ptext59                                      text59       003CFC
__ptext6                                       text6        00216A
__ptext60                                      text60       004476
__ptext61                                      text61       003AF2
__ptext62                                      text62       0120E8
__ptext63                                      text63       01A138
__ptext64                                      text64       00435E
__ptext65                                      text65       0034F2
__ptext66                                      text66       0041F4
__ptext67                                      text67       01DA9E
__ptext68                                      text68       01B268
__ptext69                                      text69       00290A
__ptext7                                       text7        002FA6
__ptext70                                      text70       002286
__ptext71                                      text71       00010E
__ptext72                                      text72       0004A8
__ptext73                                      text73       01F8BE
__ptext74                                      text74       003F72
__ptext75                                      text75       002C80
__ptext76                                      text76       002392
__ptext77                                      text77       001462
__ptext78                                      text78       00353A
__ptext79                                      text79       01BC5C
__ptext8                                       text8        003C58
__ptext80                                      text80       003E2A
__ptext81                                      text81       01E02A
__ptext82                                      text82       01ED66
__ptext83                                      text83       0031A4
__ptext84                                      text84       0039C0
__ptext85                                      text85       000824
__ptext86                                      text86       01FCB6
__ptext87                                      text87       003102
__ptext88                                      text88       004378
__ptext89                                      text89       002F4C
__ptext9                                       text9        003154
__ptext90                                      text90       0039FE
__ptext91                                      text91       0030AE
__ptext92                                      text92       0044A4
__ptext93                                      text93       003D98
__ptext94                                      text94       0044B2
__ptext95                                      text95       0031F4
__ptext96                                      text96       0044C0
__ptext97                                      text97       003E5A
__ptext98                                      text98       0044CE
__ptext99                                      text99       003E8A
__ramtop                                       ramtop       000E00
__size_of_ADCC_ClearAccumulator                (abs)        000000
__size_of_ADCC_DefaultInterruptHandler         (abs)        000000
__size_of_ADCC_DischargeSampleCapacitor        (abs)        000000
__size_of_ADCC_GetConversionResult             (abs)        000000
__size_of_ADCC_GetCurrentCountofConversions    (abs)        000000
__size_of_ADCC_GetFilterValue                  (abs)        000000
__size_of_ADCC_HasAccumulatorOverflowed        (abs)        000000
__size_of_ADCC_Initialize                      (abs)        000000
__size_of_ADCC_SetADTIInterruptHandler         (abs)        000000
__size_of_ADCC_StartConversion                 (abs)        000000
__size_of_ADCC_StopConversion                  (abs)        000000
__size_of_ADCC_ThresholdISR                    (abs)        000000
__size_of_ADC_PostProcessingCallback           (abs)        000000
__size_of_DATAEE_ReadByte                      (abs)        000000
__size_of_DATAEE_WriteByte                     (abs)        000000
__size_of_EUSART2_Initialize                   (abs)        000000
__size_of_EUSART2_Read                         (abs)        000000
__size_of_EUSART2_Receive_ISR                  (abs)        000000
__size_of_EUSART2_SetRxInterruptHandler        (abs)        000000
__size_of_EUSART2_SetTxInterruptHandler        (abs)        000000
__size_of_EUSART2_Transmit_ISR                 (abs)        000000
__size_of_EUSART2_Write                        (abs)        000000
__size_of_EXT_INT_Initialize                   (abs)        000000
__size_of_FLASH_ReadByte                       (abs)        000000
__size_of_FLASH_ReadWord                       (abs)        000000
__size_of_FVR_Initialize                       (abs)        000000
__size_of_HLVD_ISR                             (abs)        000000
__size_of_HLVD_Initialize                      (abs)        000000
__size_of_I2C1_BusCollisionISR                 (abs)        000000
__size_of_I2C1_FunctionComplete                (abs)        000000
__size_of_I2C1_ISR                             (abs)        000000
__size_of_I2C1_Initialize                      (abs)        000000
__size_of_I2C1_MasterTRBInsert                 (abs)        000000
__size_of_I2C1_MasterWrite                     (abs)        000000
__size_of_I2C1_MasterWriteTRBBuild             (abs)        000000
__size_of_I2C1_Stop                            (abs)        000000
__size_of_I2C1_WaitForLastPacketToComplete     (abs)        000000
__size_of_INT0_CallBack                        (abs)        000000
__size_of_INT0_DefaultInterruptHandler         (abs)        000000
__size_of_INT0_ISR                             (abs)        000000
__size_of_INT0_SetInterruptHandler             (abs)        000000
__size_of_INTERRUPT_Initialize                 (abs)        000000
__size_of_INTERRUPT_InterruptManagerHigh       (abs)        000000
__size_of_INTERRUPT_InterruptManagerLow        (abs)        000000
__size_of_OLED_Clear                           (abs)        000000
__size_of_OLED_Command                         (abs)        000000
__size_of_OLED_Init                            (abs)        000000
__size_of_OLED_PutChar                         (abs)        000000
__size_of_OLED_UpdateFromRAMBuffer             (abs)        000000
__size_of_OLED_WriteString                     (abs)        000000
__size_of_OLED_YX                              (abs)        000000
__size_of_OLED_updateCallback                  (abs)        000000
__size_of_OSCILLATOR_Initialize                (abs)        000000
__size_of_PIN_MANAGER_Initialize               (abs)        000000
__size_of_PMD_Initialize                       (abs)        000000
__size_of_SYSTEM_Initialize                    (abs)        000000
__size_of_TMR2_CallBack                        (abs)        000000
__size_of_TMR2_Counter8BitSet                  (abs)        000000
__size_of_TMR2_DefaultInterruptHandler         (abs)        000000
__size_of_TMR2_ISR                             (abs)        000000
__size_of_TMR2_Initialize                      (abs)        000000
__size_of_TMR2_Period8BitSet                   (abs)        000000
__size_of_TMR2_SetInterruptHandler             (abs)        000000
__size_of_TMR2_Start                           (abs)        000000
__size_of_TMR2_StartTimer                      (abs)        000000
__size_of_TMR2_Stop                            (abs)        000000
__size_of_TMR2_StopTimer                       (abs)        000000
__size_of_TMR2_WriteTimer                      (abs)        000000
__size_of_TMR4_CallBack                        (abs)        000000
__size_of_TMR4_DefaultInterruptHandler         (abs)        000000
__size_of_TMR4_ISR                             (abs)        000000
__size_of_TMR4_Initialize                      (abs)        000000
__size_of_TMR4_SetInterruptHandler             (abs)        000000
__size_of_TMR5_DefaultInterruptHandler         (abs)        000000
__size_of_TMR5_ISR                             (abs)        000000
__size_of_TMR5_Initialize                      (abs)        000000
__size_of_TMR5_SetInterruptHandler             (abs)        000000
__size_of_TMR5_StartTimer                      (abs)        000000
__size_of_TMR5_StopTimer                       (abs)        000000
__size_of_TMR5_WriteTimer                      (abs)        000000
__size_of_TMR6_DefaultInterruptHandler         (abs)        000000
__size_of_TMR6_ISR                             (abs)        000000
__size_of_TMR6_Initialize                      (abs)        000000
__size_of_TMR6_SetInterruptHandler             (abs)        000000
__size_of_TMR7_DefaultInterruptHandler         (abs)        000000
__size_of_TMR7_ISR                             (abs)        000000
__size_of_TMR7_Initialize                      (abs)        000000
__size_of_TMR7_SetInterruptHandler             (abs)        000000
__size_of_TMR7_WriteTimer                      (abs)        000000
__size_of___awdiv                              (abs)        000000
__size_of___awmod                              (abs)        000000
__size_of___fladd                              (abs)        000000
__size_of___fldiv                              (abs)        000000
__size_of___flge                               (abs)        000000
__size_of___flmul                              (abs)        000000
__size_of___flneg                              (abs)        000000
__size_of___flsub                              (abs)        000000
__size_of___fltol                              (abs)        000000
__size_of___ftdiv                              (abs)        000000
__size_of___ftpack                             (abs)        000000
__size_of___lldiv                              (abs)        000000
__size_of___llmod                              (abs)        000000
__size_of___lwtoft                             (abs)        000000
__size_of___wmul                               (abs)        000000
__size_of___xxtofl                             (abs)        000000
__size_of__div_to_l_                           (abs)        000000
__size_of__doprnt                              (abs)        000000
__size_of__tdiv_to_l_                          (abs)        000000
__size_of_abs                                  (abs)        000000
__size_of_acos                                 (abs)        000000
__size_of_acquisitionTimerCallback             (abs)        000000
__size_of_asin                                 (abs)        000000
__size_of_atan                                 (abs)        000000
__size_of_atoi                                 (abs)        000000
__size_of_clearADCErrors                       (abs)        000000
__size_of_clearCOMMErrors                      (abs)        000000
__size_of_currentMeasuredToPeak                (abs)        000000
__size_of_dimmingOffTimeCallback               (abs)        000000
__size_of_dimmingOnTimeCallback                (abs)        000000
__size_of_eval_poly                            (abs)        000000
__size_of_fabs                                 (abs)        000000
__size_of_floor                                (abs)        000000
__size_of_frexp                                (abs)        000000
__size_of_fround                               (abs)        000000
__size_of_getADCError                          (abs)        000000
__size_of_getCOMMError                         (abs)        000000
__size_of_getCauseOfReset                      (abs)        000000
__size_of_getCauseOfResetString                (abs)        000000
__size_of_getCauseOfResetStringSmall           (abs)        000000
__size_of_getDeviceID                          (abs)        000000
__size_of_getDeviceIDString                    (abs)        000000
__size_of_getMajorRevisionID                   (abs)        000000
__size_of_getMinorRevisionID                   (abs)        000000
__size_of_getUserID                            (abs)        000000
__size_of_heartbeatTimerCallback               (abs)        000000
__size_of_isdigit                              (abs)        000000
__size_of_main                                 (abs)        000000
__size_of_memmove                              (abs)        000000
__size_of_peakToRMS                            (abs)        000000
__size_of_printf                               (abs)        000000
__size_of_putch                                (abs)        000000
__size_of_readDoubleFromEEPROM                 (abs)        000000
__size_of_recoverSRAMMaxFromEEPROM             (abs)        000000
__size_of_ringBufferLUT                        (abs)        000000
__size_of_round                                (abs)        000000
__size_of_saveSRAMMaxToEEPROM                  (abs)        000000
__size_of_scale                                (abs)        000000
__size_of_sin                                  (abs)        000000
__size_of_sprintf                              (abs)        000000
__size_of_sqrt                                 (abs)        000000
__size_of_strcat                               (abs)        000000
__size_of_strchr                               (abs)        000000
__size_of_strcmp                               (abs)        000000
__size_of_strcpy                               (abs)        000000
__size_of_strlen                               (abs)        000000
__size_of_strncmp                              (abs)        000000
__size_of_strncpy                              (abs)        000000
__size_of_strstr                               (abs)        000000
__size_of_terminal_clearTerminal               (abs)        000000
__size_of_terminal_printNewline                (abs)        000000
__size_of_terminal_printResetMessage           (abs)        000000
__size_of_terminal_ringBufferPull              (abs)        000000
__size_of_terminal_setCursorHome               (abs)        000000
__size_of_terminal_textAttributes              (abs)        000000
__size_of_terminal_textAttributesReset         (abs)        000000
__size_of_trunc                                (abs)        000000
__size_of_updateErrorLEDs                      (abs)        000000
__size_of_writeDoubleToEEPROM                  (abs)        000000
__size_of_writeEnergyToEEPROMCallback          (abs)        000000
__size_ofi1_EUSART2_Write                      (abs)        000000
__size_ofi1_FLASH_ReadByte                     (abs)        000000
__size_ofi1_FLASH_ReadWord                     (abs)        000000
__size_ofi1_I2C1_MasterTRBInsert               (abs)        000000
__size_ofi1_I2C1_MasterWrite                   (abs)        000000
__size_ofi1_I2C1_MasterWriteTRBBuild           (abs)        000000
__size_ofi1_I2C1_WaitForLastPacketToComplete   (abs)        000000
__size_ofi1_OLED_Clear                         (abs)        000000
__size_ofi1_OLED_Command                       (abs)        000000
__size_ofi1_OLED_PutChar                       (abs)        000000
__size_ofi1_OLED_UpdateFromRAMBuffer           (abs)        000000
__size_ofi1_OLED_WriteString                   (abs)        000000
__size_ofi1_OLED_YX                            (abs)        000000
__size_ofi1_OLED_updateCallback                (abs)        000000
__size_ofi1_TMR2_Counter8BitSet                (abs)        000000
__size_ofi1_TMR2_Period8BitSet                 (abs)        000000
__size_ofi1_TMR2_Start                         (abs)        000000
__size_ofi1_TMR2_StartTimer                    (abs)        000000
__size_ofi1_TMR2_Stop                          (abs)        000000
__size_ofi1_TMR2_StopTimer                     (abs)        000000
__size_ofi1_TMR2_WriteTimer                    (abs)        000000
__size_ofi1___awdiv                            (abs)        000000
__size_ofi1___awmod                            (abs)        000000
__size_ofi1___fladd                            (abs)        000000
__size_ofi1___fldiv                            (abs)        000000
__size_ofi1___flge                             (abs)        000000
__size_ofi1___flmul                            (abs)        000000
__size_ofi1___flneg                            (abs)        000000
__size_ofi1___flsub                            (abs)        000000
__size_ofi1___fltol                            (abs)        000000
__size_ofi1___ftdiv                            (abs)        000000
__size_ofi1___ftpack                           (abs)        000000
__size_ofi1___lldiv                            (abs)        000000
__size_ofi1___llmod                            (abs)        000000
__size_ofi1___lwtoft                           (abs)        000000
__size_ofi1___wmul                             (abs)        000000
__size_ofi1___xxtofl                           (abs)        000000
__size_ofi1__div_to_l_                         (abs)        000000
__size_ofi1__doprnt                            (abs)        000000
__size_ofi1__tdiv_to_l_                        (abs)        000000
__size_ofi1_acos                               (abs)        000000
__size_ofi1_asin                               (abs)        000000
__size_ofi1_atan                               (abs)        000000
__size_ofi1_eval_poly                          (abs)        000000
__size_ofi1_fabs                               (abs)        000000
__size_ofi1_frexp                              (abs)        000000
__size_ofi1_fround                             (abs)        000000
__size_ofi1_getCauseOfResetStringSmall         (abs)        000000
__size_ofi1_getDeviceID                        (abs)        000000
__size_ofi1_getMajorRevisionID                 (abs)        000000
__size_ofi1_getMinorRevisionID                 (abs)        000000
__size_ofi1_isdigit                            (abs)        000000
__size_ofi1_memmove                            (abs)        000000
__size_ofi1_putch                              (abs)        000000
__size_ofi1_round                              (abs)        000000
__size_ofi1_scale                              (abs)        000000
__size_ofi1_sprintf                            (abs)        000000
__size_ofi1_sqrt                               (abs)        000000
__size_ofi1_strcpy                             (abs)        000000
__size_ofi1_trunc                              (abs)        000000
__size_ofi2_DATAEE_ReadByte                    (abs)        000000
__size_ofi2_DATAEE_WriteByte                   (abs)        000000
__size_ofi2_EUSART2_Write                      (abs)        000000
__size_ofi2_TMR5_StopTimer                     (abs)        000000
__size_ofi2___awdiv                            (abs)        000000
__size_ofi2___awmod                            (abs)        000000
__size_ofi2___fladd                            (abs)        000000
__size_ofi2___fldiv                            (abs)        000000
__size_ofi2___flge                             (abs)        000000
__size_ofi2___flmul                            (abs)        000000
__size_ofi2___flneg                            (abs)        000000
__size_ofi2___flsub                            (abs)        000000
__size_ofi2___fltol                            (abs)        000000
__size_ofi2___lldiv                            (abs)        000000
__size_ofi2___llmod                            (abs)        000000
__size_ofi2___wmul                             (abs)        000000
__size_ofi2___xxtofl                           (abs)        000000
__size_ofi2__div_to_l_                         (abs)        000000
__size_ofi2__doprnt                            (abs)        000000
__size_ofi2__tdiv_to_l_                        (abs)        000000
__size_ofi2_acos                               (abs)        000000
__size_ofi2_asin                               (abs)        000000
__size_ofi2_atan                               (abs)        000000
__size_ofi2_eval_poly                          (abs)        000000
__size_ofi2_fabs                               (abs)        000000
__size_ofi2_frexp                              (abs)        000000
__size_ofi2_fround                             (abs)        000000
__size_ofi2_isdigit                            (abs)        000000
__size_ofi2_printf                             (abs)        000000
__size_ofi2_putch                              (abs)        000000
__size_ofi2_readDoubleFromEEPROM               (abs)        000000
__size_ofi2_scale                              (abs)        000000
__size_ofi2_sqrt                               (abs)        000000
__size_ofi2_writeDoubleToEEPROM                (abs)        000000
__smallconst                                   smallconst   000000
__tdiv_to_l_                                   text71       00010E
__tdiv_to_l_@cntr                              cstackBANK3  00030D
__tdiv_to_l_@exp1                              cstackBANK3  00030E
__tdiv_to_l_@f1                                cstackBANK3  000300
__tdiv_to_l_@f2                                cstackBANK3  000303
__tdiv_to_l_@quot                              cstackBANK3  000309
_abs                                           text257      003F48
_acos                                          text21       0029EE
_acos$5795                                     cstackBANK3  0003A8
_acquisitionTimerCallback                      text124      004444
_asin                                          text22       01C616
_asin$5796                                     cstackBANK3  0003A0
_asin$5797                                     cstackBANK3  000398
_asin$5798                                     cstackBANK3  000394
_atan                                          text24       01F216
_atoi                                          text12       0016FA
_attribute                                     bssBANK1     0001E7
_background_color                              bssBANK1     0001E5
_clearADCErrors                                text11       0041D2
_clearCOMMErrors                               text10       01FFF2
_currentMeasuredToPeak                         text244      002720
_current_adc_channel                           bssBANK1     0001E4
_dev_on_time                                   bssBANK3     0003EF
_dimmingOffTimeCallback                        text210      0043DC
_dimmingOnTimeCallback                         text199      004558
_dimming_period                                dataBANK0    0000F3
_dpowers                                       mediumconst  00CB4B
_errno                                         bssBANK4     00048F
_error_handler                                 bssBANK2     000276
_eusart2RxBuffer                               bssBANK5     000500
_eusart2RxCount                                bssBANK2     0002BE
_eusart2RxHead                                 bssBANK0     0000FA
_eusart2RxStringReady                          bitbssBANK0  0007E9
_eusart2RxTail                                 bssBANK2     0002BF
_eusart2TxBuffer                               bssBANK6     000600
_eusart2TxBufferRemaining                      bssBANK2     0002C0
_eusart2TxHead                                 bssBANK2     0002C2
_eusart2TxTail                                 bssBANK2     0002C1
_eval_poly                                     text26       000DA6
_fabs                                          text25       003982
_floor                                         text251      000B8A
_foreground_color                              bssBANK1     0001E6
_frexp                                         text19       002624
_fround                                        text67       01DA9E
_fround$5791                                   cstackBANK3  000360
_fround$5792                                   cstackBANK3  00035C
_getADCError                                   text59       003CFC
_getCOMMError                                  text58       0043F4
_getCauseOfReset                               text89       002F4C
_getCauseOfResetString                         text57       003DFA
_getCauseOfResetStringSmall                    text20       003DCA
_getDeviceID                                   text54       004238
_getDeviceIDString                             text53       002EEC
_getMajorRevisionID                            text52       003AB6
_getMinorRevisionID                            text51       004038
_getUserID                                     text50       003774
_heartbeatTimerCallback                        text131      0037B8
_hexpowers                                     mediumconst  00CB73
_i2c1_object                                   bssBANK2     00027F
_i2c1_state                                    bssBANK0     0000F9
_i2c1_tr_queue                                 bssBANK2     0002C3
_i2c1_trb_count                                bssBANK1     0001EA
_isdigit                                       text66       0041F4
_isdigit$4890                                  cstackBANK3  000301
_line                                          bssBANK5     000540
_load_enable                                   bitbssBANK0  0007E8
_load_on_time                                  bssBANK3     0003EB
_main                                          text0        0010A6
_max_FVR_ADC_Result                            bssBANK4     000480
_max_FVR_ADC_Result_address                    mediumconst  00CB93
_max_Irms                                      bssBANK3     0003E7
_max_Irms_address                              mediumconst  00CB9D
_max_POS12_ADC_Result                          bssBANK3     0003DB
_max_POS12_ADC_Result_address                  mediumconst  00CB97
_max_POS3P3_ADC_Result                         bssBANK3     0003DF
_max_POS3P3_ADC_Result_address                 mediumconst  00CB99
_max_Power                                     bssBANK3     0003E3
_max_Power_address                             mediumconst  00CB9B
_max_Temp_ADC_Result                           bssBANK4     000484
_max_Temp_ADC_Result_address                   mediumconst  00CB95
_memmove                                       text42       001CF0
_next_channel                                  dataBANK1    0001EB
_p_i2c1_current                                bssBANK1     0001DC
_p_i2c1_trb_current                            bssBANK1     0001DE
_peakToRMS                                     text238      01EFCC
_peakToRMS$6521                                cstackBANK0  0000D2
_peakToRMS$6522                                cstackBANK0  0000CA
_peakToRMS$6523                                cstackBANK0  0000CE
_print_Energy_str                              bssBANK5     000591
_print_Irms_str                                bssBANK5     0005C4
_print_Power_str                               bssBANK5     0005B3
_print_Vrms_str                                bssBANK5     0005A2
_printf                                        text61       003AF2
_putch                                         text64       00435E
_putch$intlevel0                               text64       00436A
_putch$intlevel1                               text64       004364
_readDoubleFromEEPROM                          text87       003102
_recoverSRAMMaxFromEEPROM                      text86       01FCB6
_reset_cause                                   nvBANK4      0004E6
_ringBufferLUT                                 text4        010000
_ringBufferLUT$5790                            cstackBANK6  0006B7
_round                                         text17       01FF3C
_saveSRAMMaxToEEPROM                           text82       01ED66
_scale                                         text63       01A138
_scale$5793                                    cstackBANK3  00035C
_sin                                           text245      01CF46
_sin$6530                                      cstackBANK0  0000A3
_sprintf                                       text16       0034AA
_sqrt                                          text23       01D246
_strcat                                        text48       003380
_strchr                                        text8        003C58
_strcmp                                        text9        003154
_strcpy                                        text15       003462
_strlen                                        text7        002FA6
_strncmp                                       text6        00216A
_strncpy                                       text47       002C18
_strstr                                        text5        0021FA
_terminal_clearTerminal                        text60       004476
_terminal_printNewline                         text49       004466
_terminal_printResetMessage                    text44       019C3A
_terminal_ringBufferPull                       text3        01FE02
_terminal_setCursorHome                        text2        004456
_terminal_textAttributes                       text46       01AF00
_terminal_textAttributesReset                  text45       004432
_timer5ReloadVal                               bssBANK2     0002BA
_timer7ReloadVal                               bssBANK1     0001E2
_trunc                                         text18       001F90
_updateErrorLEDs                               text1        0043AC
_writeDoubleToEEPROM                           text83       0031A4
_writeEnergyToEEPROMCallback                   text204      00249A
abs@a                                          cstackBANK0  00007D
acos@x                                         cstackBANK3  0003A4
asin@sgn                                       cstackBANK3  000390
asin@x                                         cstackBANK3  00038C
asin@y                                         cstackBANK3  00039C
atan@coeff_a                                   mediumconst  00CEA1
atan@coeff_b                                   mediumconst  00CECD
atan@f                                         cstackBANK3  000377
atan@recip                                     cstackBANK3  000383
atan@val                                       cstackBANK3  000388
atan@val_squared                               cstackBANK3  000384
atan@x                                         cstackBANK3  00037F
atan@y                                         cstackBANK3  00037B
atoi@a                                         cstackBANK3  0003BF
atoi@s                                         cstackBANK3  0003BA
atoi@sign                                      cstackBANK3  0003BE
btemp                                          temp         00005F
currentMeasuredToPeak@Angle                    cstackBANK0  0000B0
currentMeasuredToPeak@Measured                 cstackBANK0  0000AC
currentMeasuredToPeak@Peak                     cstackBANK0  0000B4
end_of_initialization                          cinit        001288
eval_poly@d                                    cstackBANK3  00035C
eval_poly@n                                    cstackBANK3  00035E
eval_poly@res                                  cstackBANK3  000364
eval_poly@x                                    cstackBANK3  000358
fabs@d                                         cstackBANK3  000312
floor@expon                                    cstackBANK0  000091
floor@i                                        cstackBANK0  00008D
floor@x                                        cstackBANK0  000089
frexp@eptr                                     cstackBANK3  000304
frexp@value                                    cstackBANK3  000300
fround@prec                                    cstackBANK3  000364
ftoa@buf                                       bssBANK5     000580
getCauseOfReset@return_reset_cause             cstackBANK3  000300
getCauseOfResetString@r                        cstackBANK3  000302
getCauseOfResetString@strings                  dataBANK5    0005E7
getCauseOfResetStringSmall@r                   cstackBANK3  000302
getCauseOfResetStringSmall@strings             dataBANK5    0005D5
getDeviceIDString@F17550                       dataBANK4    0004E0
getDeviceIDString@inputDevID                   cstackBANK3  00030D
getDeviceIDString@strings                      cstackBANK3  000311
getMajorRevisionID@REVID_RAW                   cstackBANK3  00030E
getMinorRevisionID@REVID_RAW                   cstackBANK3  00030B
getUserID@IDOffset                             cstackBANK3  000312
getUserID@initialOffset                        cstackBANK3  00030D
getUserID@inputUserID                          cstackBANK3  000311
i1EUSART2_Write@txData                         cstackBANK1  000112
i1FLASH_ReadByte@flashAddr                     cstackBANK1  000112
i1FLASH_ReadWord@flashAddr                     cstackBANK1  000116
i1I2C1_MasterTRBInsert@count                   cstackBANK1  000117
i1I2C1_MasterTRBInsert@pflag                   cstackBANK1  000114
i1I2C1_MasterTRBInsert@ptrb_list               cstackBANK1  000112
i1I2C1_MasterWrite@address                     cstackBANK1  00011E
i1I2C1_MasterWrite@length                      cstackBANK1  00011D
i1I2C1_MasterWrite@pdata                       cstackBANK1  00011B
i1I2C1_MasterWrite@pflag                       cstackBANK1  000120
i1I2C1_MasterWriteTRBBuild@address             cstackBANK1  000117
i1I2C1_MasterWriteTRBBuild@length              cstackBANK1  000116
i1I2C1_MasterWriteTRBBuild@pdata               cstackBANK1  000114
i1I2C1_MasterWriteTRBBuild@ptrb                cstackBANK1  000112
i1OLED_Clear@col                               cstackBANK1  000135
i1OLED_Clear@row                               cstackBANK1  000133
i1OLED_Command@data_array                      cstackBANK1  000122
i1OLED_Command@length                          cstackBANK1  000125
i1OLED_Command@temp                            cstackBANK1  000124
i1OLED_PutChar@ch                              cstackBANK1  000132
i1OLED_PutChar@data_array                      cstackBANK1  000126
i1OLED_PutChar@input_base                      cstackBANK1  00012F
i1OLED_PutChar@length                          cstackBANK1  000131
i1OLED_WriteString@s                           cstackBANK1  000133
i1OLED_YX@Column                               cstackBANK1  000126
i1OLED_YX@Row                                  cstackBANK1  000128
i1OLED_updateCallback@TRIAC_degrees            cstackBANK2  00025B
i1OLED_updateCallback@angle_string             cstackBANK2  000246
i1OLED_updateCallback@dev_id_str               cstackBANK2  000213
i1OLED_updateCallback@percentage               cstackBANK2  00025E
i1OLED_updateCallback@percentage_string        cstackBANK2  000235
i1OLED_updateCallback@rev_id_str               cstackBANK2  000224
i1TMR2_Counter8BitSet@timerVal                 cstackBANK1  000112
i1TMR2_Period8BitSet@periodVal                 cstackBANK1  000112
i1TMR2_WriteTimer@timerVal                     cstackBANK1  000113
i1_EUSART2_Write                               text141      0035CA
i1_FLASH_ReadByte                              text161      004392
i1_FLASH_ReadWord                              text160      00383E
i1_I2C1_MasterTRBInsert                        text193      001EEE
i1_I2C1_MasterWrite                            text191      003294
i1_I2C1_MasterWriteTRBBuild                    text192      0036E8
i1_I2C1_WaitForLastPacketToComplete            text194      0045A2
i1_OLED_Clear                                  text188      003902
i1_OLED_Command                                text186      002DB8
i1_OLED_PutChar                                text189      001964
i1_OLED_UpdateFromRAMBuffer                    text184      002816
i1_OLED_WriteString                            text187      003056
i1_OLED_YX                                     text185      003B6A
i1_OLED_updateCallback                         text135      01936E
i1_OLED_updateCallback$6531                    cstackBANK2  000257
i1_TMR2_Counter8BitSet                         text178      00458E
i1_TMR2_Period8BitSet                          text183      004598
i1_TMR2_Start                                  text182      004610
i1_TMR2_StartTimer                             text181      0045F4
i1_TMR2_Stop                                   text180      00460C
i1_TMR2_StopTimer                              text179      0045EE
i1_TMR2_WriteTimer                             text177      00453E
i1___awdiv                                     text145      00230C
i1___awdiv@counter                             cstackBANK1  00011C
i1___awdiv@dividend                            cstackBANK1  000118
i1___awdiv@divisor                             cstackBANK1  00011A
i1___awdiv@quotient                            cstackBANK1  00011E
i1___awdiv@sign                                cstackBANK1  00011D
i1___awmod                                     text144      00297C
i1___awmod@counter                             cstackBANK1  000116
i1___awmod@dividend                            cstackBANK1  000112
i1___awmod@divisor                             cstackBANK1  000114
i1___awmod@sign                                cstackBANK1  000117
i1___fladd                                     text171      01BF9A
i1___fladd@a                                   cstackBANK1  000185
i1___fladd@aexp                                cstackBANK1  000192
i1___fladd@b                                   cstackBANK1  000181
i1___fladd@bexp                                cstackBANK1  000193
i1___fladd@grs                                 cstackBANK1  000194
i1___fladd@signs                               cstackBANK1  000191
i1___fldiv                                     text173      01E2E0
i1___fldiv@a                                   cstackBANK1  000124
i1___fldiv@aexp                                cstackBANK1  000138
i1___fldiv@b                                   cstackBANK1  000120
i1___fldiv@bexp                                cstackBANK1  000137
i1___fldiv@grs                                 cstackBANK1  000133
i1___fldiv@new_exp                             cstackBANK1  000131
i1___fldiv@rem                                 cstackBANK1  00012D
i1___fldiv@sign                                cstackBANK1  00012C
i1___flge                                      text172      000946
i1___flge@ff1                                  cstackBANK1  000195
i1___flge@ff2                                  cstackBANK1  000199
i1___flmul                                     text170      01B5BA
i1___flmul@a                                   cstackBANK1  00013D
i1___flmul@aexp                                cstackBANK1  000146
i1___flmul@b                                   cstackBANK1  000139
i1___flmul@bexp                                cstackBANK1  00014B
i1___flmul@grs                                 cstackBANK1  000147
i1___flmul@prod                                cstackBANK1  00014C
i1___flmul@sign                                cstackBANK1  000145
i1___flmul@temp                                cstackBANK1  000150
i1___flneg                                     text168      003EEA
i1___flneg@f1                                  cstackBANK1  00017D
i1___flsub                                     text151      003612
i1___flsub@a                                   cstackBANK1  000199
i1___flsub@b                                   cstackBANK1  000195
i1___fltol                                     text156      001540
i1___fltol@exp1                                cstackBANK1  000164
i1___fltol@f1                                  cstackBANK1  00015B
i1___fltol@sign1                               cstackBANK1  000163
i1___ftdiv                                     text175      00137A
i1___ftdiv@cntr                                cstackBANK1  000126
i1___ftdiv@exp                                 cstackBANK1  00012A
i1___ftdiv@f1                                  cstackBANK1  00011D
i1___ftdiv@f2                                  cstackBANK1  000120
i1___ftdiv@f3                                  cstackBANK1  000127
i1___ftdiv@sign                                cstackBANK1  00012B
i1___ftpack                                    text176      001B90
i1___ftpack@arg                                cstackBANK1  000112
i1___ftpack@exp                                cstackBANK1  000115
i1___ftpack@sign                               cstackBANK1  000116
i1___lldiv                                     text150      002416
i1___lldiv@counter                             cstackBANK1  00011E
i1___lldiv@dividend                            cstackBANK1  000112
i1___lldiv@divisor                             cstackBANK1  000116
i1___lldiv@quotient                            cstackBANK1  00011A
i1___llmod                                     text149      002D50
i1___llmod@counter                             cstackBANK1  000127
i1___llmod@dividend                            cstackBANK1  00011F
i1___llmod@divisor                             cstackBANK1  000123
i1___lwtoft                                    text174      0040D0
i1___lwtoft@c                                  cstackBANK1  00011A
i1___wmul                                      text148      003FC2
i1___wmul@multiplicand                         cstackBANK1  000114
i1___wmul@multiplier                           cstackBANK1  000112
i1___wmul@product                              cstackBANK1  000116
i1___xxtofl                                    text155      01FA12
i1___xxtofl@arg                                cstackBANK1  00016F
i1___xxtofl@exp                                cstackBANK1  00016E
i1___xxtofl@sign                               cstackBANK1  00016D
i1___xxtofl@val                                cstackBANK1  000165
i1__div_to_l_                                  text147      0005D2
i1__div_to_l_@cntr                             cstackBANK1  00011E
i1__div_to_l_@exp1                             cstackBANK1  00011F
i1__div_to_l_@f1                               cstackBANK1  000112
i1__div_to_l_@f2                               cstackBANK1  000116
i1__div_to_l_@quot                             cstackBANK1  00011A
i1__doprnt                                     text138      014120
i1__doprnt$6538                                cstackBANK1  0001AD
i1__doprnt@ap                                  cstackBANK1  0001A5
i1__doprnt@c                                   cstackBANK1  0001CA
i1__doprnt@cp                                  cstackBANK1  0001B2
i1__doprnt@exp                                 cstackBANK1  0001C0
i1__doprnt@f                                   cstackBANK1  0001A3
i1__doprnt@flag                                cstackBANK1  0001C2
i1__doprnt@fval                                cstackBANK1  0001C4
i1__doprnt@idx                                 cstackBANK1  0001B1
i1__doprnt@len                                 cstackBANK1  0001B4
i1__doprnt@pb                                  cstackBANK1  0001A1
i1__doprnt@prec                                cstackBANK1  0001C8
i1__doprnt@tmpval                              cstackBANK1  0001B6
i1__doprnt@val                                 cstackBANK1  0001BC
i1__doprnt@width                               cstackBANK1  0001BA
i1__tdiv_to_l_                                 text146      000242
i1__tdiv_to_l_@cntr                            cstackBANK1  00011F
i1__tdiv_to_l_@exp1                            cstackBANK1  000120
i1__tdiv_to_l_@f1                              cstackBANK1  000112
i1__tdiv_to_l_@f2                              cstackBANK1  000115
i1__tdiv_to_l_@quot                            cstackBANK1  00011B
i1_acos                                        text163      002A5E
i1_acos$6540                                   cstackBANK2  000200
i1_asin                                        text164      01C926
i1_asin$6542                                   cstackBANK1  0001CE
i1_asin$6543                                   cstackBANK1  0001C6
i1_asin$6544                                   cstackBANK1  0001C2
i1_atan                                        text166      01F44E
i1_eval_poly                                   text169      000EA6
i1_fabs                                        text167      003A3C
i1_frexp                                       text154      0026A2
i1_fround                                      text143      01DD64
i1_fround$6532                                 cstackBANK1  00015A
i1_fround$6533                                 cstackBANK1  000156
i1_getCauseOfResetStringSmall                  text162      003EBA
i1_getDeviceID                                 text159      004258
i1_getMajorRevisionID                          text158      003B2E
i1_getMinorRevisionID                          text157      0040AA
i1_isdigit                                     text142      004216
i1_isdigit$4890                                cstackBANK1  000113
i1_memmove                                     text190      001D9E
i1_putch                                       text140      004530
i1_round                                       text152      001A2A
i1_scale                                       text139      01A5DC
i1_scale$6536                                  cstackBANK1  000156
i1_sprintf                                     text137      003418
i1_sqrt                                        text165      01D50E
i1_strcpy                                      text136      003582
i1_trunc                                       text153      002030
i1acos@x                                       cstackBANK1  0001D2
i1asin@sgn                                     cstackBANK1  0001BE
i1asin@x                                       cstackBANK1  0001BA
i1asin@y                                       cstackBANK1  0001CA
i1atan@f                                       cstackBANK1  0001A5
i1atan@recip                                   cstackBANK1  0001B1
i1atan@val                                     cstackBANK1  0001B6
i1atan@val_squared                             cstackBANK1  0001B2
i1atan@x                                       cstackBANK1  0001AD
i1atan@y                                       cstackBANK1  0001A9
i1eval_poly@d                                  cstackBANK1  000199
i1eval_poly@n                                  cstackBANK1  00019B
i1eval_poly@res                                cstackBANK1  0001A1
i1eval_poly@x                                  cstackBANK1  000195
i1fabs@d                                       cstackBANK1  000181
i1frexp@eptr                                   cstackBANK1  000116
i1frexp@value                                  cstackBANK1  000112
i1fround@prec                                  cstackBANK1  00015E
i1getCauseOfResetStringSmall@r                 cstackBANK1  000114
i1getMajorRevisionID@REVID_RAW                 cstackBANK1  000120
i1getMinorRevisionID@REVID_RAW                 cstackBANK1  00011D
i1isdigit@c                                    cstackBANK1  000114
i1memmove@d                                    cstackBANK1  00011A
i1memmove@d1                                   cstackBANK1  000112
i1memmove@n                                    cstackBANK1  000116
i1memmove@s                                    cstackBANK1  00011C
i1memmove@s1                                   cstackBANK1  000114
i1putch@txData                                 cstackBANK1  000113
i1round@f                                      cstackBANK2  000208
i1round@x                                      cstackBANK2  000204
i1scale@scl                                    cstackBANK1  00015A
i1sprintf@ap                                   cstackBANK2  000200
i1sprintf@f                                    cstackBANK1  0001CD
i1sprintf@pb                                   cstackBANK2  000202
i1sprintf@wh                                   cstackBANK1  0001CB
i1sqrt@a                                       cstackBANK1  000195
i1sqrt@exp                                     cstackBANK1  0001A8
i1sqrt@frac                                    cstackBANK1  0001AE
i1sqrt@grs                                     cstackBANK1  0001A4
i1sqrt@i                                       cstackBANK1  00019E
i1sqrt@p                                       cstackBANK1  0001A3
i1sqrt@root                                    cstackBANK1  0001AA
i1sqrt@sign                                    cstackBANK1  00019D
i1sqrt@tfrac                                   cstackBANK1  00019F
i1strcpy@cp                                    cstackBANK1  000119
i1strcpy@from                                  cstackBANK1  000117
i1strcpy@to                                    cstackBANK1  000115
i1trunc@expon                                  cstackBANK1  00017B
i1trunc@i                                      cstackBANK1  000177
i1trunc@x                                      cstackBANK1  000173
i2DATAEE_ReadByte@bAdd                         cstackCOMRAM 000001
i2DATAEE_WriteByte@GIEBitValue                 cstackCOMRAM 000004
i2DATAEE_WriteByte@bAdd                        cstackCOMRAM 000001
i2DATAEE_WriteByte@bData                       cstackCOMRAM 000003
i2EUSART2_Write@txData                         cstackCOMRAM 000001
i2_DATAEE_ReadByte                             text206      0043C4
i2_DATAEE_WriteByte                            text219      003C1E
i2_EUSART2_Write                               text225      00372E
i2_TMR5_StopTimer                              text200      004614
i2___awdiv                                     text229      00251E
i2___awdiv@counter                             cstackCOMRAM 00000B
i2___awdiv@dividend                            cstackCOMRAM 000007
i2___awdiv@divisor                             cstackCOMRAM 000009
i2___awdiv@quotient                            cstackCOMRAM 00000D
i2___awdiv@sign                                cstackCOMRAM 00000C
i2___awmod                                     text228      002ACE
i2___awmod@counter                             cstackCOMRAM 000005
i2___awmod@dividend                            cstackCOMRAM 000001
i2___awmod@divisor                             cstackCOMRAM 000003
i2___awmod@sign                                cstackCOMRAM 000006
i2___fladd                                     text256      01C2D8
i2___fladd@a                                   cstackBANK0  000071
i2___fladd@aexp                                cstackCOMRAM 00005A
i2___fladd@b                                   cstackBANK0  00006D
i2___fladd@bexp                                cstackCOMRAM 00005B
i2___fladd@grs                                 cstackCOMRAM 00005C
i2___fladd@signs                               cstackCOMRAM 000059
i2___fldiv                                     text250      01E596
i2___fldiv@a                                   cstackCOMRAM 00004D
i2___fldiv@aexp                                cstackBANK0  00006C
i2___fldiv@b                                   cstackCOMRAM 000049
i2___fldiv@bexp                                cstackBANK0  00006B
i2___fldiv@grs                                 cstackBANK0  000067
i2___fldiv@new_exp                             cstackBANK0  000065
i2___fldiv@rem                                 cstackBANK0  000061
i2___fldiv@sign                                cstackBANK0  000060
i2___flge                                      text255      000A68
i2___flge@ff1                                  cstackBANK0  00007D
i2___flge@ff2                                  cstackBANK0  000081
i2___flmul                                     text247      01B90C
i2___flmul@a                                   cstackCOMRAM 000013
i2___flmul@aexp                                cstackCOMRAM 00001C
i2___flmul@b                                   cstackCOMRAM 00000F
i2___flmul@bexp                                cstackCOMRAM 000021
i2___flmul@grs                                 cstackCOMRAM 00001D
i2___flmul@prod                                cstackCOMRAM 000022
i2___flmul@sign                                cstackCOMRAM 00001B
i2___flmul@temp                                cstackCOMRAM 000026
i2___flneg                                     text249      003F1A
i2___flneg@f1                                  cstackCOMRAM 000055
i2___flsub                                     text248      00365A
i2___flsub@a                                   cstackBANK0  000097
i2___flsub@b                                   cstackBANK0  000093
i2___fltol                                     text254      00161E
i2___fltol@exp1                                cstackCOMRAM 00003A
i2___fltol@f1                                  cstackCOMRAM 000031
i2___fltol@sign1                               cstackCOMRAM 000039
i2___lldiv                                     text234      0025A2
i2___lldiv@counter                             cstackCOMRAM 00000D
i2___lldiv@dividend                            cstackCOMRAM 000001
i2___lldiv@divisor                             cstackCOMRAM 000005
i2___lldiv@quotient                            cstackCOMRAM 000009
i2___llmod                                     text233      002E86
i2___llmod@counter                             cstackCOMRAM 000016
i2___llmod@dividend                            cstackCOMRAM 00000E
i2___llmod@divisor                             cstackCOMRAM 000012
i2___wmul                                      text232      00411C
i2___wmul@multiplicand                         cstackCOMRAM 000003
i2___wmul@multiplier                           cstackCOMRAM 000001
i2___wmul@product                              cstackCOMRAM 000005
i2___xxtofl                                    text253      01FB66
i2___xxtofl@arg                                cstackCOMRAM 000045
i2___xxtofl@exp                                cstackCOMRAM 000044
i2___xxtofl@sign                               cstackCOMRAM 000043
i2___xxtofl@val                                cstackCOMRAM 00003B
i2__div_to_l_                                  text231      0006FC
i2__div_to_l_@cntr                             cstackCOMRAM 00000D
i2__div_to_l_@exp1                             cstackCOMRAM 00000E
i2__div_to_l_@f1                               cstackCOMRAM 000001
i2__div_to_l_@f2                               cstackCOMRAM 000005
i2__div_to_l_@quot                             cstackCOMRAM 000009
i2__doprnt                                     text222      016052
i2__doprnt$6539                                cstackBANK0  0000A7
i2__doprnt@ap                                  cstackBANK0  00009F
i2__doprnt@c                                   cstackBANK0  0000C4
i2__doprnt@cp                                  cstackBANK0  0000AC
i2__doprnt@exp                                 cstackBANK0  0000BA
i2__doprnt@f                                   cstackBANK0  00009D
i2__doprnt@flag                                cstackBANK0  0000BC
i2__doprnt@fval                                cstackBANK0  0000BE
i2__doprnt@idx                                 cstackBANK0  0000AB
i2__doprnt@len                                 cstackBANK0  0000AE
i2__doprnt@pb                                  cstackBANK0  00009B
i2__doprnt@prec                                cstackBANK0  0000C2
i2__doprnt@tmpval                              cstackBANK0  0000B0
i2__doprnt@val                                 cstackBANK0  0000B6
i2__doprnt@width                               cstackBANK0  0000B4
i2__tdiv_to_l_                                 text230      000376
i2__tdiv_to_l_@cntr                            cstackCOMRAM 00000E
i2__tdiv_to_l_@exp1                            cstackCOMRAM 00000F
i2__tdiv_to_l_@f1                              cstackCOMRAM 000001
i2__tdiv_to_l_@f2                              cstackCOMRAM 000004
i2__tdiv_to_l_@quot                            cstackCOMRAM 00000A
i2_acos                                        text239      002B3E
i2_acos$6541                                   cstackBANK0  0000BE
i2_asin                                        text240      01CC36
i2_asin$6545                                   cstackBANK0  0000B6
i2_asin$6546                                   cstackBANK0  0000AE
i2_asin$6547                                   cstackBANK0  0000AA
i2_atan                                        text242      01F686
i2_eval_poly                                   text246      000FA6
i2_fabs                                        text243      003BE2
i2_frexp                                       text252      002890
i2_fround                                      text227      01E84C
i2_fround$6534                                 cstackCOMRAM 000030
i2_fround$6535                                 cstackCOMRAM 00002C
i2_isdigit                                     text226      0042D2
i2_isdigit$4890                                cstackCOMRAM 000002
i2_printf                                      text221      003BA6
i2_putch                                       text224      0045B6
i2_readDoubleFromEEPROM                        text205      003332
i2_scale                                       text223      01AA80
i2_scale$6537                                  cstackCOMRAM 00002C
i2_sqrt                                        text241      01D7D6
i2_writeDoubleToEEPROM                         text218      0033CC
i2acos@x                                       cstackBANK0  0000BA
i2asin@sgn                                     cstackBANK0  0000A6
i2asin@x                                       cstackBANK0  0000A2
i2asin@y                                       cstackBANK0  0000B2
i2atan@f                                       cstackBANK0  00008D
i2atan@recip                                   cstackBANK0  000099
i2atan@val                                     cstackBANK0  00009E
i2atan@val_squared                             cstackBANK0  00009A
i2atan@x                                       cstackBANK0  000095
i2atan@y                                       cstackBANK0  000091
i2eval_poly@d                                  cstackBANK0  000081
i2eval_poly@n                                  cstackBANK0  000083
i2eval_poly@res                                cstackBANK0  000089
i2eval_poly@x                                  cstackBANK0  00007D
i2fabs@d                                       cstackCOMRAM 000059
i2frexp@eptr                                   cstackCOMRAM 000005
i2frexp@value                                  cstackCOMRAM 000001
i2fround@prec                                  cstackCOMRAM 000034
i2isdigit@c                                    cstackCOMRAM 000003
i2printf@ap                                    cstackBANK0  0000C7
i2printf@f                                     cstackBANK0  0000C5
i2printf@pb                                    cstackBANK0  0000C9
i2putch@txData                                 cstackCOMRAM 000002
i2readDoubleFromEEPROM@byte_index              cstackCOMRAM 00000B
i2readDoubleFromEEPROM@output_data             cstackCOMRAM 000007
i2readDoubleFromEEPROM@starting_address        cstackCOMRAM 000003
i2scale@scl                                    cstackCOMRAM 000030
i2sqrt@a                                       cstackBANK0  00007D
i2sqrt@exp                                     cstackBANK0  000090
i2sqrt@frac                                    cstackBANK0  000096
i2sqrt@grs                                     cstackBANK0  00008C
i2sqrt@i                                       cstackBANK0  000086
i2sqrt@p                                       cstackBANK0  00008B
i2sqrt@root                                    cstackBANK0  000092
i2sqrt@sign                                    cstackBANK0  000085
i2sqrt@tfrac                                   cstackBANK0  000087
i2writeDoubleToEEPROM@byte_index               cstackCOMRAM 00000F
i2writeDoubleToEEPROM@input_data               cstackCOMRAM 00000B
i2writeDoubleToEEPROM@input_double             cstackCOMRAM 000005
i2writeDoubleToEEPROM@starting_address         cstackCOMRAM 000009
int$flags                                      temp         00005F
int_func                                       intcode_body 000C9E
intlevel0                                      text         000000
intlevel1                                      text         000000
intlevel2                                      text         000000
intlevel3                                      text         000000
isdigit@c                                      cstackBANK3  000302
memmove@d                                      cstackBANK3  000308
memmove@d1                                     cstackBANK3  000300
memmove@n                                      cstackBANK3  000304
memmove@s                                      cstackBANK3  00030A
memmove@s1                                     cstackBANK3  000302
peakToRMS@Angle                                cstackBANK0  0000C6
peakToRMS@Peak                                 cstackBANK0  0000C2
peakToRMS@RMS                                  cstackBANK0  0000D6
printf@ap                                      cstackBANK3  0003D0
printf@f                                       cstackBANK3  0003C6
printf@pb                                      cstackBANK3  0003D2
putch@txData                                   cstackBANK3  000301
readDoubleFromEEPROM@byte_index                cstackBANK3  00030A
readDoubleFromEEPROM@output_data               cstackBANK3  000306
readDoubleFromEEPROM@starting_address          cstackBANK3  000302
ringBufferLUT@angle_degrees                    cstackBANK6  000683
ringBufferLUT@angle_degrees_4145               cstackBANK6  0006BD
ringBufferLUT@arg_buff                         cstackBANK6  000680
ringBufferLUT@index                            cstackBANK6  0006C1
ringBufferLUT@line                             cstackBANK3  0003D9
ringBufferLUT@max_FVR_print                    cstackBANK6  0006AB
ringBufferLUT@max_POS12_print                  cstackBANK6  0006A3
ringBufferLUT@max_POS3P3_print                 cstackBANK6  00069F
ringBufferLUT@max_Power_print                  cstackBANK6  00068B
ringBufferLUT@max_Power_print_4161             cstackBANK6  0006B3
ringBufferLUT@max_current_print                cstackBANK6  000687
ringBufferLUT@max_current_print_4159           cstackBANK6  0006AF
ringBufferLUT@max_temp_print                   cstackBANK6  000697
ringBufferLUT@max_temp_print_4139              cstackBANK6  0006A7
ringBufferLUT@max_voltage_print                cstackBANK6  00068F
ringBufferLUT@max_voltage_print_4096           cstackBANK6  000693
ringBufferLUT@max_voltage_print_4102           cstackBANK6  00069B
ringBufferLUT@percentage                       cstackBANK6  0006C3
ringBufferLUT@percentage_print                 cstackBANK6  0006BB
ringBufferLUT@userID                           cstackBANK6  0006C5
ringBufferLUT@userID_4111                      cstackBANK6  0006C7
round@f                                        cstackBANK3  0003B0
round@x                                        cstackBANK3  0003AC
scale@scl                                      cstackBANK3  000360
sin@coeff_a                                    mediumconst  00CEB9
sin@coeff_b                                    mediumconst  00CEE1
sin@f                                          cstackBANK0  00009B
sin@sgn                                        cstackBANK0  0000AB
sin@x2                                         cstackBANK0  0000A7
sin@y                                          cstackBANK0  00009F
sprintf@ap                                     cstackBANK3  0003D2
sprintf@f                                      cstackBANK3  0003C8
sprintf@pb                                     cstackBANK3  0003D4
sprintf@wh                                     cstackBANK3  0003C6
sqrt@a                                         cstackBANK3  000358
sqrt@exp                                       cstackBANK3  00036B
sqrt@frac                                      cstackBANK3  00036D
sqrt@grs                                       cstackBANK3  000367
sqrt@i                                         cstackBANK3  000361
sqrt@p                                         cstackBANK3  000366
sqrt@root                                      cstackBANK3  000371
sqrt@sign                                      cstackBANK3  000360
sqrt@tfrac                                     cstackBANK3  000362
stackhi                                        (abs)        000DE9
stacklo                                        (abs)        0006C9
start                                          init         00010A
start_initialization                           cinit        0011A0
strcat@cp                                      cstackBANK3  000304
strcat@from                                    cstackBANK3  000302
strcat@to                                      cstackBANK3  000300
strchr@chr                                     cstackBANK3  000302
strchr@ptr                                     cstackBANK3  000300
strcmp@r                                       cstackBANK3  000305
strcmp@s1                                      cstackBANK3  000300
strcmp@s2                                      cstackBANK3  000302
strcpy@cp                                      cstackBANK3  000307
strcpy@from                                    cstackBANK3  000305
strcpy@to                                      cstackBANK3  000303
strlen@cp                                      cstackBANK3  000304
strlen@s                                       cstackBANK3  000300
strncmp@len                                    cstackBANK3  00030A
strncmp@s1                                     cstackBANK3  000306
strncmp@s2                                     cstackBANK3  000308
strncpy@cp                                     cstackBANK3  000306
strncpy@from                                   cstackBANK3  000302
strncpy@size                                   cstackBANK3  000304
strncpy@to                                     cstackBANK3  000300
strstr@s1                                      cstackBANK3  00030F
strstr@s2                                      cstackBANK3  000311
terminal_printResetMessage@userID              cstackBANK4  00042E
terminal_ringBufferPull@charNumber             cstackBANK4  000478
terminal_ringBufferPull@index                  cstackBANK4  00047C
terminal_ringBufferPull@index_3739             cstackBANK4  00047A
terminal_textAttributes@background_color       cstackBANK3  0003D7
terminal_textAttributes@foreground_color       cstackBANK4  00041E
terminal_textAttributes@input_attribute        cstackBANK3  0003D8
terminal_textAttributes@output_buff            cstackBANK4  00041F
trunc@expon                                    cstackBANK3  000373
trunc@i                                        cstackBANK3  00036F
trunc@x                                        cstackBANK3  00036B
writeDoubleToEEPROM@byte_index                 cstackBANK3  00030E
writeDoubleToEEPROM@input_data                 cstackBANK3  00030A
writeDoubleToEEPROM@input_double               cstackBANK3  000304
writeDoubleToEEPROM@starting_address           cstackBANK3  000308
writeEnergyToEEPROMCallback@current_value      cstackBANK0  000089
wtemp6                                         temp         000060


FUNCTION INFORMATION:

 *************** function _main *****************
 Defined at:
		line 762 in file "main.c"
 Parameters:    Size  Location     Type
		None
 Auto vars:     Size  Location     Type
		None
 Return value:  Size  Location     Type
                  1    wreg      void 
 Registers used:
		wreg, fsr0l, fsr0h, fsr1l, fsr1h, fsr2l, fsr2h, status,2, status,0, pclath, tosl, tblptrl, tblptrh, tblptru, prodl, prodh, cstack
 Tracked objects:
		On entry : 
		On exit  : 
		Unchanged: 
 Data sizes:     COMRAM   BANK0   BANK1   BANK2   BANK3   BANK4   BANK5   BANK6   BANK7   BANK8   BANK9  BANK10  BANK11  BANK12  BANK13
      Params:         0       0       0       0       0       0       0       0       0       0       0       0       0       0       0
      Locals:         0       0       0       0       0       0       0       0       0       0       0       0       0       0       0
      Temps:          0       0       0       0       0       2       0       0       0       0       0       0       0       0       0
      Totals:         0       0       0       0       0       2       0       0       0       0       0       0       0       0       0
Total ram usage:        2 bytes
 Hardware stack levels required when called:   28
 This function calls:
		_ADCC_SetADTIInterruptHandler
		_INT0_SetInterruptHandler
		_OLED_Clear
		_OLED_Init
		_OLED_updateCallback
		_SYSTEM_Initialize
		_TMR2_SetInterruptHandler
		_TMR2_StopTimer
		_TMR2_WriteTimer
		_TMR4_SetInterruptHandler
		_TMR5_SetInterruptHandler
		_TMR5_StopTimer
		_TMR6_SetInterruptHandler
		_TMR7_SetInterruptHandler
		_getCauseOfReset
		_recoverSRAMMaxFromEEPROM
		_saveSRAMMaxToEEPROM
		_terminal_clearTerminal
		_terminal_printResetMessage
		_terminal_ringBufferPull
		_terminal_setCursorHome
		_terminal_textAttributesReset
		_updateErrorLEDs
 This function is called by:
		Startup code after reset
 This function uses a non-reentrant model


 *************** function _updateErrorLEDs *****************
 Defined at:
		line 54 in file "error_handling.c"
 Parameters:    Size  Location     Type
		None
 Auto vars:     Size  Location     Type
		None
 Return value:  Size  Location     Type
                  1    wreg      void 
 Registers used:
		wreg, status,2, cstack
 Tracked objects:
		On entry : 
		On exit  : 
		Unchanged: 
 Data sizes:     COMRAM   BANK0   BANK1   BANK2   BANK3   BANK4   BANK5   BANK6   BANK7   BANK8   BANK9  BANK10  BANK11  BANK12  BANK13
      Params:         0       0       0       0       0       0       0       0       0       0       0       0       0       0       0
      Locals:         0       0       0       0       0       0       0       0       0       0       0       0       0       0       0
      Temps:          0       0       0       0       0       0       0       0       0       0       0       0       0       0       0
      Totals:         0       0       0       0       0       0       0       0       0       0       0       0       0       0       0
Total ram usage:        0 bytes
 Hardware stack levels used:    1
 Hardware stack levels required when called:   20
 This function calls:
		_getADCError
		_getCOMMError
 This function is called by:
		_main
 This function uses a non-reentrant model


 *************** function _terminal_setCursorHome *****************
 Defined at:
		line 58 in file "ring_buffer_interface.c"
 Parameters:    Size  Location     Type
		None
 Auto vars:     Size  Location     Type
		None
 Return value:  Size  Location     Type
                  1    wreg      void 
 Registers used:
		wreg, fsr0l, fsr0h, fsr2l, fsr2h, status,2, status,0, pclath, tosl, tblptrl, tblptrh, tblptru, prodl, prodh, cstack
 Tracked objects:
		On entry : 
		On exit  : 
		Unchanged: 
 Data sizes:     COMRAM   BANK0   BANK1   BANK2   BANK3   BANK4   BANK5   BANK6   BANK7   BANK8   BANK9  BANK10  BANK11  BANK12  BANK13
      Params:         0       0       0       0       0       0       0       0       0       0       0       0       0       0       0
      Locals:         0       0       0       0       0       0       0       0       0       0       0       0       0       0       0
      Temps:          0       0       0       0       0       0       0       0       0       0       0       0       0       0       0
      Totals:         0       0       0       0       0       0       0       0       0       0       0       0       0       0       0
Total ram usage:        0 bytes
 Hardware stack levels used:    1
 Hardware stack levels required when called:   23
 This function calls:
		_printf
 This function is called by:
		_main
 This function uses a non-reentrant model


 *************** function _terminal_ringBufferPull *****************
 Defined at:
		line 12 in file "ring_buffer_interface.c"
 Parameters:    Size  Location     Type
		None
 Auto vars:     Size  Location     Type
  index           2  122[BANK4 ] int 
  index           2  124[BANK4 ] int 
  charNumber      2  120[BANK4 ] int 
 Return value:  Size  Location     Type
                  1    wreg      void 
 Registers used:
		wreg, fsr0l, fsr0h, fsr1l, fsr1h, fsr2l, fsr2h, status,2, status,0, pclath, tosl, tblptrl, tblptrh, tblptru, prodl, prodh, cstack
 Tracked objects:
		On entry : 
		On exit  : 
		Unchanged: 
 Data sizes:     COMRAM   BANK0   BANK1   BANK2   BANK3   BANK4   BANK5   BANK6   BANK7   BANK8   BANK9  BANK10  BANK11  BANK12  BANK13
      Params:         0       0       0       0       0       0       0       0       0       0       0       0       0       0       0
      Locals:         0       0       0       0       0       6       0       0       0       0       0       0       0       0       0
      Temps:          0       0       0       0       0       3       0       0       0       0       0       0       0       0       0
      Totals:         0       0       0       0       0       9       0       0       0       0       0       0       0       0       0
Total ram usage:        9 bytes
 Hardware stack levels used:    1
 Hardware stack levels required when called:   27
 This function calls:
		_EUSART2_Read
		_ringBufferLUT
		_strlen
 This function is called by:
		_main
 This function uses a non-reentrant model


 *************** function _ringBufferLUT *****************
 Defined at:
		line 65 in file "ring_buffer_LUT.c"
 Parameters:    Size  Location     Type
  line            2  217[BANK3 ] PTR unsigned char 
		 -> line(64), 
 Auto vars:     Size  Location     Type
  angle_degree    4   61[BANK6 ] PTR unsigned char 
  percentage_p    2   59[BANK6 ] int 
  userID          2   71[BANK6 ] int 
  angle_degree    4    3[BANK6 ] int 
  index           2   65[BANK6 ] int 
  userID          2   69[BANK6 ] int 
  max_Power_pr    4   51[BANK6 ] int 
  max_current_    4   47[BANK6 ] int 
  max_FVR_prin    4   43[BANK6 ] int 
  max_temp_pri    4   39[BANK6 ] int 
  max_POS12_pr    4   35[BANK6 ] int 
  max_POS3P3_p    4   31[BANK6 ] int 
  max_voltage_    4   27[BANK6 ] int 
  max_temp_pri    4   23[BANK6 ] int 
  max_voltage_    4   19[BANK6 ] int 
  max_voltage_    4   15[BANK6 ] int 
  max_Power_pr    4   11[BANK6 ] int 
  max_current_    4    7[BANK6 ] int 
  arg_buff        3    0[BANK6 ] unsigned char [3]
  percentage      2   67[BANK6 ] int 
 Return value:  Size  Location     Type
                  1    wreg      void 
 Registers used:
		wreg, fsr0l, fsr0h, fsr1l, fsr1h, fsr2l, fsr2h, status,2, status,0, pclath, tosl, tblptrl, tblptrh, tblptru, prodl, prodh, cstack
 Tracked objects:
		On entry : 
		On exit  : 
		Unchanged: 
 Data sizes:     COMRAM   BANK0   BANK1   BANK2   BANK3   BANK4   BANK5   BANK6   BANK7   BANK8   BANK9  BANK10  BANK11  BANK12  BANK13
      Params:         0       0       0       0       2       0       0       0       0       0       0       0       0       0       0
      Locals:         0       0       0       0       0       0       0      73       0       0       0       0       0       0       0
      Temps:          0       0       0       0       0       2       0       0       0       0       0       0       0       0       0
      Totals:         0       0       0       0       2       2       0      73       0       0       0       0       0       0       0
Total ram usage:       77 bytes
 Hardware stack levels used:    1
 Hardware stack levels required when called:   26
 This function calls:
		_OLED_updateCallback
		_TMR5_StopTimer
		___fladd
		___fldiv
		___flge
		___flmul
		___flneg
		___fltol
		___wmul
		___xxtofl
		_atoi
		_clearADCErrors
		_clearCOMMErrors
		_getADCError
		_getCOMMError
		_getCauseOfResetString
		_getDeviceID
		_getDeviceIDString
		_getMajorRevisionID
		_getMinorRevisionID
		_getUserID
		_printf
		_readDoubleFromEEPROM
		_round
		_strcmp
		_strlen
		_strstr
		_terminal_printNewline
		_terminal_textAttributes
		_terminal_textAttributesReset
		_writeDoubleToEEPROM
 This function is called by:
		_terminal_ringBufferPull
 This function uses a non-reentrant model


 *************** function _strstr *****************
 Defined at:
		line 4 in file "C:\Program Files (x86)\Microchip\xc8\v1.45\sources\common\strstr.c"
 Parameters:    Size  Location     Type
  s1              2   15[BANK3 ] PTR const unsigned char 
		 -> line(64), NULL(0), 
  s2              2   17[BANK3 ] PTR const unsigned char 
		 -> STR_165(25), 
 Auto vars:     Size  Location     Type
		None
 Return value:  Size  Location     Type
                  2   15[BANK3 ] PTR unsigned char 
 Registers used:
		wreg, fsr0l, fsr0h, fsr2l, fsr2h, status,2, status,0, tblptrl, tblptrh, tblptru, cstack
 Tracked objects:
		On entry : 
		On exit  : 
		Unchanged: 
 Data sizes:     COMRAM   BANK0   BANK1   BANK2   BANK3   BANK4   BANK5   BANK6   BANK7   BANK8   BANK9  BANK10  BANK11  BANK12  BANK13
      Params:         0       0       0       0       4       0       0       0       0       0       0       0       0       0       0
      Locals:         0       0       0       0       0       0       0       0       0       0       0       0       0       0       0
      Temps:          0       0       0       0       0       0       0       0       0       0       0       0       0       0       0
      Totals:         0       0       0       0       4       0       0       0       0       0       0       0       0       0       0
Total ram usage:        4 bytes
 Hardware stack levels used:    1
 Hardware stack levels required when called:   20
 This function calls:
		_strchr
		_strlen
		_strncmp
 This function is called by:
		_ringBufferLUT
 This function uses a non-reentrant model


 *************** function _strncmp *****************
 Defined at:
		line 4 in file "C:\Program Files (x86)\Microchip\xc8\v1.45\sources\common\strncmp.c"
 Parameters:    Size  Location     Type
  s1              2    6[BANK3 ] PTR const unsigned char 
		 -> line(64), NULL(0), 
  s2              2    8[BANK3 ] PTR const unsigned char 
		 -> STR_165(25), 
  len             2   10[BANK3 ] unsigned int 
 Auto vars:     Size  Location     Type
		None
 Return value:  Size  Location     Type
                  2    6[BANK3 ] int 
 Registers used:
		wreg, fsr2l, fsr2h, status,2, status,0, tblptrl, tblptrh, tblptru
 Tracked objects:
		On entry : 
		On exit  : 
		Unchanged: 
 Data sizes:     COMRAM   BANK0   BANK1   BANK2   BANK3   BANK4   BANK5   BANK6   BANK7   BANK8   BANK9  BANK10  BANK11  BANK12  BANK13
      Params:         0       0       0       0       6       0       0       0       0       0       0       0       0       0       0
      Locals:         0       0       0       0       0       0       0       0       0       0       0       0       0       0       0
      Temps:          0       0       0       0       3       0       0       0       0       0       0       0       0       0       0
      Totals:         0       0       0       0       9       0       0       0       0       0       0       0       0       0       0
Total ram usage:        9 bytes
 Hardware stack levels used:    1
 Hardware stack levels required when called:   19
 This function calls:
		Nothing
 This function is called by:
		_strstr
 This function uses a non-reentrant model


 *************** function _strlen *****************
 Defined at:
		line 4 in file "C:\Program Files (x86)\Microchip\xc8\v1.45\sources\common\strlen.c"
 Parameters:    Size  Location     Type
  s               2    0[BANK3 ] PTR const unsigned char 
		 -> STR_165(25), line(64), 
 Auto vars:     Size  Location     Type
  cp              2    4[BANK3 ] PTR const unsigned char 
		 -> STR_165(25), line(64), 
 Return value:  Size  Location     Type
                  2    0[BANK3 ] unsigned int 
 Registers used:
		wreg, fsr0l, fsr0h, status,2, status,0, tblptrl, tblptrh, tblptru
 Tracked objects:
		On entry : 
		On exit  : 
		Unchanged: 
 Data sizes:     COMRAM   BANK0   BANK1   BANK2   BANK3   BANK4   BANK5   BANK6   BANK7   BANK8   BANK9  BANK10  BANK11  BANK12  BANK13
      Params:         0       0       0       0       2       0       0       0       0       0       0       0       0       0       0
      Locals:         0       0       0       0       2       0       0       0       0       0       0       0       0       0       0
      Temps:          0       0       0       0       2       0       0       0       0       0       0       0       0       0       0
      Totals:         0       0       0       0       6       0       0       0       0       0       0       0       0       0       0
Total ram usage:        6 bytes
 Hardware stack levels used:    1
 Hardware stack levels required when called:   19
 This function calls:
		Nothing
 This function is called by:
		_terminal_ringBufferPull
		_ringBufferLUT
		_strstr
 This function uses a non-reentrant model


 *************** function _strchr *****************
 Defined at:
		line 4 in file "C:\Program Files (x86)\Microchip\xc8\v1.45\sources\common\strchr.c"
 Parameters:    Size  Location     Type
  ptr             2    0[BANK3 ] PTR const unsigned char 
		 -> line(64), NULL(0), 
  chr             2    2[BANK3 ] int 
 Auto vars:     Size  Location     Type
		None
 Return value:  Size  Location     Type
                  2    0[BANK3 ] PTR unsigned char 
 Registers used:
		wreg, fsr2l, fsr2h, status,2, status,0
 Tracked objects:
		On entry : 
		On exit  : 
		Unchanged: 
 Data sizes:     COMRAM   BANK0   BANK1   BANK2   BANK3   BANK4   BANK5   BANK6   BANK7   BANK8   BANK9  BANK10  BANK11  BANK12  BANK13
      Params:         0       0       0       0       4       0       0       0       0       0       0       0       0       0       0
      Locals:         0       0       0       0       0       0       0       0       0       0       0       0       0       0       0
      Temps:          0       0       0       0       1       0       0       0       0       0       0       0       0       0       0
      Totals:         0       0       0       0       5       0       0       0       0       0       0       0       0       0       0
Total ram usage:        5 bytes
 Hardware stack levels used:    1
 Hardware stack levels required when called:   19
 This function calls:
		Nothing
 This function is called by:
		_strstr
 This function uses a non-reentrant model


 *************** function _strcmp *****************
 Defined at:
		line 33 in file "C:\Program Files (x86)\Microchip\xc8\v1.45\sources\common\strcmp.c"
 Parameters:    Size  Location     Type
  s1              2    0[BANK3 ] PTR const unsigned char 
		 -> line(64), 
  s2              2    2[BANK3 ] PTR const unsigned char 
		 -> STR_255(11), STR_248(5), STR_246(9), STR_244(29), 
		 -> STR_242(34), STR_240(33), STR_238(29), STR_222(20), 
		 -> STR_190(15), STR_188(17), STR_186(17), STR_184(14), 
		 -> STR_182(19), STR_180(20), STR_178(11), STR_176(17), 
		 -> STR_174(14), STR_172(16), STR_163(13), STR_159(17), 
		 -> STR_156(14), STR_154(12), STR_152(16), STR_148(17), 
		 -> STR_143(15), STR_141(13), STR_137(16), STR_135(15), 
		 -> STR_133(21), STR_131(21), STR_129(26), STR_127(14), 
		 -> STR_125(13), STR_123(18), STR_121(15), STR_119(16), 
		 -> STR_117(18), STR_111(13), STR_109(17), STR_97(12), 
		 -> STR_94(10), STR_92(13), STR_90(11), STR_87(4), 
		 -> STR_86(6), STR_84(16), STR_81(6), STR_78(6), 
 Auto vars:     Size  Location     Type
  r               1    5[BANK3 ] char 
 Return value:  Size  Location     Type
                  2    0[BANK3 ] int 
 Registers used:
		wreg, fsr2l, fsr2h, status,2, status,0, tblptrl, tblptrh, tblptru
 Tracked objects:
		On entry : 
		On exit  : 
		Unchanged: 
 Data sizes:     COMRAM   BANK0   BANK1   BANK2   BANK3   BANK4   BANK5   BANK6   BANK7   BANK8   BANK9  BANK10  BANK11  BANK12  BANK13
      Params:         0       0       0       0       4       0       0       0       0       0       0       0       0       0       0
      Locals:         0       0       0       0       1       0       0       0       0       0       0       0       0       0       0
      Temps:          0       0       0       0       1       0       0       0       0       0       0       0       0       0       0
      Totals:         0       0       0       0       6       0       0       0       0       0       0       0       0       0       0
Total ram usage:        6 bytes
 Hardware stack levels used:    1
 Hardware stack levels required when called:   19
 This function calls:
		Nothing
 This function is called by:
		_ringBufferLUT
 This function uses a non-reentrant model


 *************** function _clearCOMMErrors *****************
 Defined at:
		line 90 in file "error_handling.c"
 Parameters:    Size  Location     Type
		None
 Auto vars:     Size  Location     Type
		None
 Return value:  Size  Location     Type
                  1    wreg      void 
 Registers used:
		wreg, status,2
 Tracked objects:
		On entry : 
		On exit  : 
		Unchanged: 
 Data sizes:     COMRAM   BANK0   BANK1   BANK2   BANK3   BANK4   BANK5   BANK6   BANK7   BANK8   BANK9  BANK10  BANK11  BANK12  BANK13
      Params:         0       0       0       0       0       0       0       0       0       0       0       0       0       0       0
      Locals:         0       0       0       0       0       0       0       0       0       0       0       0       0       0       0
      Temps:          0       0       0       0       0       0       0       0       0       0       0       0       0       0       0
      Totals:         0       0       0       0       0       0       0       0       0       0       0       0       0       0       0
Total ram usage:        0 bytes
 Hardware stack levels used:    1
 Hardware stack levels required when called:   19
 This function calls:
		Nothing
 This function is called by:
		_ringBufferLUT
 This function uses a non-reentrant model


 *************** function _clearADCErrors *****************
 Defined at:
		line 73 in file "error_handling.c"
 Parameters:    Size  Location     Type
		None
 Auto vars:     Size  Location     Type
		None
 Return value:  Size  Location     Type
                  1    wreg      void 
 Registers used:
		wreg, status,2
 Tracked objects:
		On entry : 
		On exit  : 
		Unchanged: 
 Data sizes:     COMRAM   BANK0   BANK1   BANK2   BANK3   BANK4   BANK5   BANK6   BANK7   BANK8   BANK9  BANK10  BANK11  BANK12  BANK13
      Params:         0       0       0       0       0       0       0       0       0       0       0       0       0       0       0
      Locals:         0       0       0       0       0       0       0       0       0       0       0       0       0       0       0
      Temps:          0       0       0       0       0       0       0       0       0       0       0       0       0       0       0
      Totals:         0       0       0       0       0       0       0       0       0       0       0       0       0       0       0
Total ram usage:        0 bytes
 Hardware stack levels used:    1
 Hardware stack levels required when called:   19
 This function calls:
		Nothing
 This function is called by:
		_ringBufferLUT
 This function uses a non-reentrant model


 *************** function _atoi *****************
 Defined at:
		line 5 in file "C:\Program Files (x86)\Microchip\xc8\v1.45\sources\common\atoi.c"
 Parameters:    Size  Location     Type
  s               2  186[BANK3 ] PTR const unsigned char 
		 -> ringBufferLUT@arg_buff(3), 
 Auto vars:     Size  Location     Type
  a               2  191[BANK3 ] int 
  sign            1  190[BANK3 ] unsigned char 
 Return value:  Size  Location     Type
                  2  186[BANK3 ] int 
 Registers used:
		wreg, fsr2l, fsr2h, status,2, status,0, prodl, prodh, cstack
 Tracked objects:
		On entry : 
		On exit  : 
		Unchanged: 
 Data sizes:     COMRAM   BANK0   BANK1   BANK2   BANK3   BANK4   BANK5   BANK6   BANK7   BANK8   BANK9  BANK10  BANK11  BANK12  BANK13
      Params:         0       0       0       0       2       0       0       0       0       0       0       0       0       0       0
      Locals:         0       0       0       0       3       0       0       0       0       0       0       0       0       0       0
      Temps:          0       0       0       0       2       0       0       0       0       0       0       0       0       0       0
      Totals:         0       0       0       0       7       0       0       0       0       0       0       0       0       0       0
Total ram usage:        7 bytes
 Hardware stack levels used:    1
 Hardware stack levels required when called:   20
 This function calls:
		___wmul
		_isdigit
 This function is called by:
		_ringBufferLUT
 This function uses a non-reentrant model


 *************** function _TMR5_StopTimer *****************
 Defined at:
		line 105 in file "mcc_generated_files/tmr5.c"
 Parameters:    Size  Location     Type
		None
 Auto vars:     Size  Location     Type
		None
 Return value:  Size  Location     Type
                  1    wreg      void 
 Registers used:
		None
 Tracked objects:
		On entry : 
		On exit  : 
		Unchanged: 
 Data sizes:     COMRAM   BANK0   BANK1   BANK2   BANK3   BANK4   BANK5   BANK6   BANK7   BANK8   BANK9  BANK10  BANK11  BANK12  BANK13
      Params:         0       0       0       0       0       0       0       0       0       0       0       0       0       0       0
      Locals:         0       0       0       0       0       0       0       0       0       0       0       0       0       0       0
      Temps:          0       0       0       0       0       0       0       0       0       0       0       0       0       0       0
      Totals:         0       0       0       0       0       0       0       0       0       0       0       0       0       0       0
Total ram usage:        0 bytes
 Hardware stack levels used:    1
 Hardware stack levels required when called:   19
 This function calls:
		Nothing
 This function is called by:
		_main
		_ringBufferLUT
 This function uses a non-reentrant model


 *************** function _OLED_updateCallback *****************
 Defined at:
		line 481 in file "main.c"
 Parameters:    Size  Location     Type
		None
 Auto vars:     Size  Location     Type
  angle_string   17   98[BANK4 ] unsigned char [17]
  percentage_s   17   81[BANK4 ] unsigned char [17]
  rev_id_str     17   64[BANK4 ] unsigned char [17]
  dev_id_str     17   47[BANK4 ] unsigned char [17]
  percentage      3   44[BANK4 ] float 
  TRIAC_degree    3   41[BANK4 ] float 
 Return value:  Size  Location     Type
                  1    wreg      void 
 Registers used:
		wreg, fsr0l, fsr0h, fsr2l, fsr2h, status,2, status,0, pclath, tosl, tblptrl, tblptrh, tblptru, prodl, prodh, cstack
 Tracked objects:
		On entry : 
		On exit  : 
		Unchanged: 
 Data sizes:     COMRAM   BANK0   BANK1   BANK2   BANK3   BANK4   BANK5   BANK6   BANK7   BANK8   BANK9  BANK10  BANK11  BANK12  BANK13
      Params:         0       0       0       0       0       0       0       0       0       0       0       0       0       0       0
      Locals:         0       0       0       0       0      78       0       0       0       0       0       0       0       0       0
      Temps:          0       0       0       0       0       7       0       0       0       0       0       0       0       0       0
      Totals:         0       0       0       0       0      85       0       0       0       0       0       0       0       0       0
Total ram usage:       85 bytes
 Hardware stack levels used:    1
 Hardware stack levels required when called:   25
 This function calls:
		_OLED_UpdateFromRAMBuffer
		_TMR2_Period8BitSet
		_TMR2_StartTimer
		_TMR2_StopTimer
		_TMR2_WriteTimer
		___fldiv
		___flge
		___flmul
		___ftdiv
		___lwtoft
		_acos
		_getCauseOfResetStringSmall
		_getDeviceID
		_getMajorRevisionID
		_getMinorRevisionID
		_round
		_sprintf
		_strcpy
 This function is called by:
		_main
		_ringBufferLUT
		_TMR2_CallBack
 This function uses a non-reentrant model


 *************** function _strcpy *****************
 Defined at:
		line 8 in file "C:\Program Files (x86)\Microchip\xc8\v1.45\sources\common\strcpy.c"
 Parameters:    Size  Location     Type
  to              2    3[BANK3 ] PTR unsigned char 
		 -> OLED_RAM_Buffer(68), 
  from            2    5[BANK3 ] PTR const unsigned char 
		 -> STR_322(10), STR_321(11), STR_320(11), STR_319(15), 
		 -> STR_318(11), STR_317(10), STR_316(11), STR_315(10), 
		 -> STR_314(10), STR_313(10), print_Energy_str(17), print_Power_str(17), 
		 -> print_Vrms_str(17), print_Irms_str(17), OLED_updateCallback@angle_string(17), STR_35(13), 
		 -> OLED_updateCallback@percentage_string(17), STR_33(17), STR_32(2), STR_31(2), 
		 -> STR_30(2), STR_29(17), STR_28(2), STR_27(2), 
		 -> STR_26(2), STR_25(16), STR_24(2), STR_23(2), 
		 -> STR_22(2), STR_21(14), STR_20(2), STR_19(2), 
		 -> STR_18(2), STR_17(13), STR_16(16), STR_15(14), 
		 -> STR_14(14), STR_13(14), STR_12(15), STR_11(16), 
		 -> STR_10(10), STR_9(16), OLED_updateCallback@rev_id_str(17), STR_7(13), 
		 -> OLED_updateCallback@dev_id_str(17), STR_5(11), STR_4(14), STR_3(10), 
		 -> STR_2(15), 
 Auto vars:     Size  Location     Type
  cp              2    7[BANK3 ] PTR unsigned char 
		 -> OLED_RAM_Buffer(68), 
 Return value:  Size  Location     Type
                  2    3[BANK3 ] PTR unsigned char 
 Registers used:
		wreg, fsr0l, fsr0h, fsr2l, fsr2h, status,2, status,0, tblptrl, tblptrh, tblptru
 Tracked objects:
		On entry : 
		On exit  : 
		Unchanged: 
 Data sizes:     COMRAM   BANK0   BANK1   BANK2   BANK3   BANK4   BANK5   BANK6   BANK7   BANK8   BANK9  BANK10  BANK11  BANK12  BANK13
      Params:         0       0       0       0       4       0       0       0       0       0       0       0       0       0       0
      Locals:         0       0       0       0       2       0       0       0       0       0       0       0       0       0       0
      Temps:          0       0       0       0       0       0       0       0       0       0       0       0       0       0       0
      Totals:         0       0       0       0       6       0       0       0       0       0       0       0       0       0       0
Total ram usage:        6 bytes
 Hardware stack levels used:    1
 Hardware stack levels required when called:   19
 This function calls:
		Nothing
 This function is called by:
		_OLED_updateCallback
 This function uses a non-reentrant model


 *************** function _sprintf *****************
 Defined at:
		line 13 in file "C:\Program Files (x86)\Microchip\xc8\v1.45\sources\common\sprintf.c"
 Parameters:    Size  Location     Type
  wh              2  198[BANK3 ] PTR unsigned char 
		 -> ftoa@buf(17), print_Energy_str(17), print_Power_str(17), print_Vrms_str(17), 
		 -> print_Irms_str(17), OLED_updateCallback@angle_string(17), OLED_updateCallback@percentage_string(17), OLED_updateCallback@rev_id_str(17), 
		 -> OLED_updateCallback@dev_id_str(17), 
  f               2  200[BANK3 ] PTR const unsigned char 
		 -> STR_327(11), STR_42(12), STR_41(12), STR_40(12), 
		 -> STR_39(11), STR_38(10), STR_37(10), STR_36(9), 
		 -> STR_34(13), STR_8(7), STR_6(5), 
 Auto vars:     Size  Location     Type
  pb              5  212[BANK3 ] struct __prbuf
  ap              2  210[BANK3 ] PTR void [1]
		 -> ?i1_sprintf(2), ?_sprintf(2), ?_printf(2), 
 Return value:  Size  Location     Type
                  2  198[BANK3 ] int 
 Registers used:
		wreg, fsr0l, fsr0h, fsr2l, fsr2h, status,2, status,0, pclath, tosl, tblptrl, tblptrh, tblptru, prodl, prodh, cstack
 Tracked objects:
		On entry : 
		On exit  : 
		Unchanged: 
 Data sizes:     COMRAM   BANK0   BANK1   BANK2   BANK3   BANK4   BANK5   BANK6   BANK7   BANK8   BANK9  BANK10  BANK11  BANK12  BANK13
      Params:         0       0       0       0      12       0       0       0       0       0       0       0       0       0       0
      Locals:         0       0       0       0       7       0       0       0       0       0       0       0       0       0       0
      Temps:          0       0       0       0       0       0       0       0       0       0       0       0       0       0       0
      Totals:         0       0       0       0      19       0       0       0       0       0       0       0       0       0       0
Total ram usage:       19 bytes
 Hardware stack levels used:    1
 Hardware stack levels required when called:   22
 This function calls:
		__doprnt
 This function is called by:
		_OLED_updateCallback
		_ftoa
 This function uses a non-reentrant model


 *************** function _round *****************
 Defined at:
		line 6 in file "C:\Program Files (x86)\Microchip\xc8\v1.45\sources\common\round.c"
 Parameters:    Size  Location     Type
  x               4  172[BANK3 ] int 
 Auto vars:     Size  Location     Type
  f               4  176[BANK3 ] int 
 Return value:  Size  Location     Type
                  4  172[BANK3 ] int 
 Registers used:
		wreg, fsr2l, fsr2h, status,2, status,0, cstack
 Tracked objects:
		On entry : 
		On exit  : 
		Unchanged: 
 Data sizes:     COMRAM   BANK0   BANK1   BANK2   BANK3   BANK4   BANK5   BANK6   BANK7   BANK8   BANK9  BANK10  BANK11  BANK12  BANK13
      Params:         0       0       0       0       4       0       0       0       0       0       0       0       0       0       0
      Locals:         0       0       0       0       4       0       0       0       0       0       0       0       0       0       0
      Temps:          0       0       0       0       0       0       0       0       0       0       0       0       0       0       0
      Totals:         0       0       0       0       8       0       0       0       0       0       0       0       0       0       0
Total ram usage:        8 bytes
 Hardware stack levels used:    1
 Hardware stack levels required when called:   21
 This function calls:
		___fladd
		___flneg
		_trunc
 This function is called by:
		_OLED_updateCallback
		_ringBufferLUT
 This function uses a non-reentrant model


 *************** function _trunc *****************
 Defined at:
		line 13 in file "C:\Program Files (x86)\Microchip\xc8\v1.45\sources\common\trunc.c"
 Parameters:    Size  Location     Type
  x               4  107[BANK3 ] int 
 Auto vars:     Size  Location     Type
  i               4  111[BANK3 ] int 
  expon           2  115[BANK3 ] int 
 Return value:  Size  Location     Type
                  4  107[BANK3 ] int 
 Registers used:
		wreg, fsr2l, fsr2h, status,2, status,0, cstack
 Tracked objects:
		On entry : 
		On exit  : 
		Unchanged: 
 Data sizes:     COMRAM   BANK0   BANK1   BANK2   BANK3   BANK4   BANK5   BANK6   BANK7   BANK8   BANK9  BANK10  BANK11  BANK12  BANK13
      Params:         0       0       0       0       4       0       0       0       0       0       0       0       0       0       0
      Locals:         0       0       0       0       6       0       0       0       0       0       0       0       0       0       0
      Temps:          0       0       0       0       0       0       0       0       0       0       0       0       0       0       0
      Totals:         0       0       0       0      10       0       0       0       0       0       0       0       0       0       0
Total ram usage:       10 bytes
 Hardware stack levels used:    1
 Hardware stack levels required when called:   20
 This function calls:
		___fltol
		___xxtofl
		_frexp
 This function is called by:
		_round
 This function uses a non-reentrant model


 *************** function _frexp *****************
 Defined at:
		line 254 in file "C:\Program Files (x86)\Microchip\xc8\v1.45\sources\common\frexp.c"
 Parameters:    Size  Location     Type
  value           4    0[BANK3 ] int 
  eptr            2    4[BANK3 ] PTR int 
		 -> floor@expon(2), trunc@expon(2), 
 Auto vars:     Size  Location     Type
		None
 Return value:  Size  Location     Type
                  4    0[BANK3 ] PTR int 
 Registers used:
		wreg, fsr2l, fsr2h, status,2, status,0
 Tracked objects:
		On entry : 
		On exit  : 
		Unchanged: 
 Data sizes:     COMRAM   BANK0   BANK1   BANK2   BANK3   BANK4   BANK5   BANK6   BANK7   BANK8   BANK9  BANK10  BANK11  BANK12  BANK13
      Params:         0       0       0       0       6       0       0       0       0       0       0       0       0       0       0
      Locals:         0       0       0       0       0       0       0       0       0       0       0       0       0       0       0
      Temps:          0       0       0       0       2       0       0       0       0       0       0       0       0       0       0
      Totals:         0       0       0       0       8       0       0       0       0       0       0       0       0       0       0
Total ram usage:        8 bytes
 Hardware stack levels used:    1
 Hardware stack levels required when called:   19
 This function calls:
		Nothing
 This function is called by:
		_trunc
 This function uses a non-reentrant model


 *************** function _getCauseOfResetStringSmall *****************
 Defined at:
		line 118 in file "cause_of_reset.c"
 Parameters:    Size  Location     Type
  r               1    wreg     enum E17455
 Auto vars:     Size  Location     Type
  r               1    2[BANK3 ] enum E17455
 Return value:  Size  Location     Type
                  2    0[BANK3 ] PTR inline unsigned char
 Registers used:
		wreg, fsr2l, fsr2h, status,2, status,0, prodl, prodh
 Tracked objects:
		On entry : 
		On exit  : 
		Unchanged: 
 Data sizes:     COMRAM   BANK0   BANK1   BANK2   BANK3   BANK4   BANK5   BANK6   BANK7   BANK8   BANK9  BANK10  BANK11  BANK12  BANK13
      Params:         0       0       0       0       2       0       0       0       0       0       0       0       0       0       0
      Locals:         0       0       0       0       1       0       0       0       0       0       0       0       0       0       0
      Temps:          0       0       0       0       0       0       0       0       0       0       0       0       0       0       0
      Totals:         0       0       0       0       3       0       0       0       0       0       0       0       0       0       0
Total ram usage:        3 bytes
 Hardware stack levels used:    1
 Hardware stack levels required when called:   19
 This function calls:
		Nothing
 This function is called by:
		_OLED_updateCallback
 This function uses a non-reentrant model


 *************** function _acos *****************
 Defined at:
		line 8 in file "C:\Program Files (x86)\Microchip\xc8\v1.45\sources\common\acos.c"
 Parameters:    Size  Location     Type
  x               4  164[BANK3 ] PTR inline unsigned char
 Auto vars:     Size  Location     Type
		None
 Return value:  Size  Location     Type
                  4  164[BANK3 ] PTR inline unsigned char
 Registers used:
		wreg, status,2, status,0, tblptrl, tblptrh, tblptru, prodl, prodh, cstack
 Tracked objects:
		On entry : 
		On exit  : 
		Unchanged: 
 Data sizes:     COMRAM   BANK0   BANK1   BANK2   BANK3   BANK4   BANK5   BANK6   BANK7   BANK8   BANK9  BANK10  BANK11  BANK12  BANK13
      Params:         0       0       0       0       4       0       0       0       0       0       0       0       0       0       0
      Locals:         0       0       0       0       4       0       0       0       0       0       0       0       0       0       0
      Temps:          0       0       0       0       0       0       0       0       0       0       0       0       0       0       0
      Totals:         0       0       0       0       8       0       0       0       0       0       0       0       0       0       0
Total ram usage:        8 bytes
 Hardware stack levels used:    1
 Hardware stack levels required when called:   23
 This function calls:
		___fladd
		___flneg
		_asin
 This function is called by:
		_OLED_updateCallback
 This function uses a non-reentrant model


 *************** function _asin *****************
 Defined at:
		line 9 in file "C:\Program Files (x86)\Microchip\xc8\v1.45\sources\common\asin.c"
 Parameters:    Size  Location     Type
  x               4  140[BANK3 ] PTR inline unsigned char
 Auto vars:     Size  Location     Type
  y               4  156[BANK3 ] PTR inline unsigned char
  sgn             4  144[BANK3 ] PTR inline unsigned char
 Return value:  Size  Location     Type
                  4  140[BANK3 ] PTR inline unsigned char
 Registers used:
		wreg, status,2, status,0, tblptrl, tblptrh, tblptru, prodl, prodh, cstack
 Tracked objects:
		On entry : 
		On exit  : 
		Unchanged: 
 Data sizes:     COMRAM   BANK0   BANK1   BANK2   BANK3   BANK4   BANK5   BANK6   BANK7   BANK8   BANK9  BANK10  BANK11  BANK12  BANK13
      Params:         0       0       0       0       4       0       0       0       0       0       0       0       0       0       0
      Locals:         0       0       0       0      20       0       0       0       0       0       0       0       0       0       0
      Temps:          0       0       0       0       0       0       0       0       0       0       0       0       0       0       0
      Totals:         0       0       0       0      24       0       0       0       0       0       0       0       0       0       0
Total ram usage:       24 bytes
 Hardware stack levels used:    1
 Hardware stack levels required when called:   22
 This function calls:
		___fladd
		___fldiv
		___flge
		___flmul
		___flneg
		_atan
		_fabs
		_sqrt
 This function is called by:
		_acos
 This function uses a non-reentrant model


 *************** function _sqrt *****************
 Defined at:
		line 9 in file "C:\Program Files (x86)\Microchip\xc8\v1.45\sources\common\sprcsqrt.c"
 Parameters:    Size  Location     Type
  a               4   88[BANK3 ] PTR inline unsigned char
 Auto vars:     Size  Location     Type
  root            4  113[BANK3 ] struct .
  frac            4  109[BANK3 ] unsigned long 
  grs             4  103[BANK3 ] unsigned long 
  tfrac           4   98[BANK3 ] unsigned long 
  exp             2  107[BANK3 ] int 
  p               1  102[BANK3 ] unsigned char 
  i               1   97[BANK3 ] unsigned char 
  sign            1   96[BANK3 ] unsigned char 
 Return value:  Size  Location     Type
                  4   88[BANK3 ] unsigned char 
 Registers used:
		wreg, status,2, status,0
 Tracked objects:
		On entry : 
		On exit  : 
		Unchanged: 
 Data sizes:     COMRAM   BANK0   BANK1   BANK2   BANK3   BANK4   BANK5   BANK6   BANK7   BANK8   BANK9  BANK10  BANK11  BANK12  BANK13
      Params:         0       0       0       0       4       0       0       0       0       0       0       0       0       0       0
      Locals:         0       0       0       0      21       0       0       0       0       0       0       0       0       0       0
      Temps:          0       0       0       0       4       0       0       0       0       0       0       0       0       0       0
      Totals:         0       0       0       0      29       0       0       0       0       0       0       0       0       0       0
Total ram usage:       29 bytes
 Hardware stack levels used:    1
 Hardware stack levels required when called:   19
 This function calls:
		Nothing
 This function is called by:
		_asin
 This function uses a non-reentrant model


 *************** function _atan *****************
 Defined at:
		line 8 in file "C:\Program Files (x86)\Microchip\xc8\v1.45\sources\common\atan.c"
 Parameters:    Size  Location     Type
  f               4  119[BANK3 ] unsigned char 
 Auto vars:     Size  Location     Type
  val             4  136[BANK3 ] unsigned char 
  val_squared     4  132[BANK3 ] unsigned char 
  x               4  127[BANK3 ] unsigned char 
  y               4  123[BANK3 ] unsigned char 
  recip           1  131[BANK3 ] unsigned char 
 Return value:  Size  Location     Type
                  4  119[BANK3 ] unsigned char 
 Registers used:
		wreg, status,2, status,0, tblptrl, tblptrh, tblptru, prodl, prodh, cstack
 Tracked objects:
		On entry : 
		On exit  : 
		Unchanged: 
 Data sizes:     COMRAM   BANK0   BANK1   BANK2   BANK3   BANK4   BANK5   BANK6   BANK7   BANK8   BANK9  BANK10  BANK11  BANK12  BANK13
      Params:         0       0       0       0       4       0       0       0       0       0       0       0       0       0       0
      Locals:         0       0       0       0      17       0       0       0       0       0       0       0       0       0       0
      Temps:          0       0       0       0       0       0       0       0       0       0       0       0       0       0       0
      Totals:         0       0       0       0      21       0       0       0       0       0       0       0       0       0       0
Total ram usage:       21 bytes
 Hardware stack levels used:    1
 Hardware stack levels required when called:   21
 This function calls:
		___fladd
		___fldiv
		___flge
		___flmul
		___flneg
		_eval_poly
		_fabs
 This function is called by:
		_asin
 This function uses a non-reentrant model


 *************** function _fabs *****************
 Defined at:
		line 4 in file "C:\Program Files (x86)\Microchip\xc8\v1.45\sources\common\fabs.c"
 Parameters:    Size  Location     Type
  d               4   18[BANK3 ] unsigned char 
 Auto vars:     Size  Location     Type
		None
 Return value:  Size  Location     Type
                  4   18[BANK3 ] unsigned char 
 Registers used:
		wreg, status,2, status,0, cstack
 Tracked objects:
		On entry : 
		On exit  : 
		Unchanged: 
 Data sizes:     COMRAM   BANK0   BANK1   BANK2   BANK3   BANK4   BANK5   BANK6   BANK7   BANK8   BANK9  BANK10  BANK11  BANK12  BANK13
      Params:         0       0       0       0       4       0       0       0       0       0       0       0       0       0       0
      Locals:         0       0       0       0       0       0       0       0       0       0       0       0       0       0       0
      Temps:          0       0       0       0       0       0       0       0       0       0       0       0       0       0       0
      Totals:         0       0       0       0       4       0       0       0       0       0       0       0       0       0       0
Total ram usage:        4 bytes
 Hardware stack levels used:    1
 Hardware stack levels required when called:   20
 This function calls:
		___flneg
 This function is called by:
		_asin
		_atan
 This function uses a non-reentrant model


 *************** function _eval_poly *****************
 Defined at:
		line 4 in file "C:\Program Files (x86)\Microchip\xc8\v1.45\sources\common\evalpoly.c"
 Parameters:    Size  Location     Type
  x               4   88[BANK3 ] unsigned char 
  d               2   92[BANK3 ] PTR const 
		 -> sin@coeff_a(20), sin@coeff_b(16), atan@coeff_a(24), atan@coeff_b(20), 
  n               2   94[BANK3 ] int 
 Auto vars:     Size  Location     Type
  res             4  100[BANK3 ] int 
 Return value:  Size  Location     Type
                  4   88[BANK3 ] int 
 Registers used:
		wreg, status,2, status,0, tblptrl, tblptrh, tblptru, prodl, prodh, cstack
 Tracked objects:
		On entry : 
		On exit  : 
		Unchanged: 
 Data sizes:     COMRAM   BANK0   BANK1   BANK2   BANK3   BANK4   BANK5   BANK6   BANK7   BANK8   BANK9  BANK10  BANK11  BANK12  BANK13
      Params:         0       0       0       0       8       0       0       0       0       0       0       0       0       0       0
      Locals:         0       0       0       0       4       0       0       0       0       0       0       0       0       0       0
      Temps:          0       0       0       0       4       0       0       0       0       0       0       0       0       0       0
      Totals:         0       0       0       0      16       0       0       0       0       0       0       0       0       0       0
Total ram usage:       16 bytes
 Hardware stack levels used:    1
 Hardware stack levels required when called:   20
 This function calls:
		___fladd
		___flmul
 This function is called by:
		_atan
 This function uses a non-reentrant model


 *************** function ___lwtoft *****************
 Defined at:
		line 28 in file "C:\Program Files (x86)\Microchip\xc8\v1.45\sources\common\lwtoft.c"
 Parameters:    Size  Location     Type
  c               2    8[BANK3 ] unsigned int 
 Auto vars:     Size  Location     Type
		None
 Return value:  Size  Location     Type
                  3    8[BANK3 ] float 
 Registers used:
		wreg, status,2, status,0, cstack
 Tracked objects:
		On entry : 
		On exit  : 
		Unchanged: 
 Data sizes:     COMRAM   BANK0   BANK1   BANK2   BANK3   BANK4   BANK5   BANK6   BANK7   BANK8   BANK9  BANK10  BANK11  BANK12  BANK13
      Params:         0       0       0       0       3       0       0       0       0       0       0       0       0       0       0
      Locals:         0       0       0       0       0       0       0       0       0       0       0       0       0       0       0
      Temps:          0       0       0       0       0       0       0       0       0       0       0       0       0       0       0
      Totals:         0       0       0       0       3       0       0       0       0       0       0       0       0       0       0
Total ram usage:        3 bytes
 Hardware stack levels used:    1
 Hardware stack levels required when called:   20
 This function calls:
		___ftpack
 This function is called by:
		_OLED_updateCallback
 This function uses a non-reentrant model


 *************** function ___ftdiv *****************
 Defined at:
		line 54 in file "C:\Program Files (x86)\Microchip\xc8\v1.45\sources\common\ftdiv.c"
 Parameters:    Size  Location     Type
  f1              3   11[BANK3 ] float 
  f2              3   14[BANK3 ] float 
 Auto vars:     Size  Location     Type
  f3              3   21[BANK3 ] float 
  sign            1   25[BANK3 ] unsigned char 
  exp             1   24[BANK3 ] unsigned char 
  cntr            1   20[BANK3 ] unsigned char 
 Return value:  Size  Location     Type
                  3   11[BANK3 ] float 
 Registers used:
		wreg, status,2, status,0, cstack
 Tracked objects:
		On entry : 
		On exit  : 
		Unchanged: 
 Data sizes:     COMRAM   BANK0   BANK1   BANK2   BANK3   BANK4   BANK5   BANK6   BANK7   BANK8   BANK9  BANK10  BANK11  BANK12  BANK13
      Params:         0       0       0       0       6       0       0       0       0       0       0       0       0       0       0
      Locals:         0       0       0       0       6       0       0       0       0       0       0       0       0       0       0
      Temps:          0       0       0       0       3       0       0       0       0       0       0       0       0       0       0
      Totals:         0       0       0       0      15       0       0       0       0       0       0       0       0       0       0
Total ram usage:       15 bytes
 Hardware stack levels used:    1
 Hardware stack levels required when called:   20
 This function calls:
		___ftpack
 This function is called by:
		_OLED_updateCallback
 This function uses a non-reentrant model


 *************** function ___ftpack *****************
 Defined at:
		line 62 in file "C:\Program Files (x86)\Microchip\xc8\v1.45\sources\common\float.c"
 Parameters:    Size  Location     Type
  arg             3    0[BANK3 ] unsigned um
  exp             1    3[BANK3 ] unsigned char 
  sign            1    4[BANK3 ] unsigned char 
 Auto vars:     Size  Location     Type
		None
 Return value:  Size  Location     Type
                  3    0[BANK3 ] float 
 Registers used:
		wreg, status,2, status,0
 Tracked objects:
		On entry : 
		On exit  : 
		Unchanged: 
 Data sizes:     COMRAM   BANK0   BANK1   BANK2   BANK3   BANK4   BANK5   BANK6   BANK7   BANK8   BANK9  BANK10  BANK11  BANK12  BANK13
      Params:         0       0       0       0       5       0       0       0       0       0       0       0       0       0       0
      Locals:         0       0       0       0       0       0       0       0       0       0       0       0       0       0       0
      Temps:          0       0       0       0       3       0       0       0       0       0       0       0       0       0       0
      Totals:         0       0       0       0       8       0       0       0       0       0       0       0       0       0       0
Total ram usage:        8 bytes
 Hardware stack levels used:    1
 Hardware stack levels required when called:   19
 This function calls:
		Nothing
 This function is called by:
		___ftdiv
		___lwtoft
 This function uses a non-reentrant model


 *************** function _TMR2_WriteTimer *****************
 Defined at:
		line 150 in file "mcc_generated_files/tmr2.c"
 Parameters:    Size  Location     Type
  timerVal        1    wreg     unsigned char 
 Auto vars:     Size  Location     Type
  timerVal        1    1[BANK3 ] unsigned char 
 Return value:  Size  Location     Type
                  1    wreg      void 
 Registers used:
		wreg, status,2, cstack
 Tracked objects:
		On entry : 
		On exit  : 
		Unchanged: 
 Data sizes:     COMRAM   BANK0   BANK1   BANK2   BANK3   BANK4   BANK5   BANK6   BANK7   BANK8   BANK9  BANK10  BANK11  BANK12  BANK13
      Params:         0       0       0       0       0       0       0       0       0       0       0       0       0       0       0
      Locals:         0       0       0       0       1       0       0       0       0       0       0       0       0       0       0
      Temps:          0       0       0       0       0       0       0       0       0       0       0       0       0       0       0
      Totals:         0       0       0       0       1       0       0       0       0       0       0       0       0       0       0
Total ram usage:        1 bytes
 Hardware stack levels used:    1
 Hardware stack levels required when called:   20
 This function calls:
		_TMR2_Counter8BitSet
 This function is called by:
		_OLED_updateCallback
		_main
 This function uses a non-reentrant model


 *************** function _TMR2_Counter8BitSet *****************
 Defined at:
		line 144 in file "mcc_generated_files/tmr2.c"
 Parameters:    Size  Location     Type
  timerVal        1    wreg     unsigned char 
 Auto vars:     Size  Location     Type
  timerVal        1    0[BANK3 ] unsigned char 
 Return value:  Size  Location     Type
                  1    wreg      void 
 Registers used:
		wreg
 Tracked objects:
		On entry : 
		On exit  : 
		Unchanged: 
 Data sizes:     COMRAM   BANK0   BANK1   BANK2   BANK3   BANK4   BANK5   BANK6   BANK7   BANK8   BANK9  BANK10  BANK11  BANK12  BANK13
      Params:         0       0       0       0       0       0       0       0       0       0       0       0       0       0       0
      Locals:         0       0       0       0       1       0       0       0       0       0       0       0       0       0       0
      Temps:          0       0       0       0       0       0       0       0       0       0       0       0       0       0       0
      Totals:         0       0       0       0       1       0       0       0       0       0       0       0       0       0       0
Total ram usage:        1 bytes
 Hardware stack levels used:    1
 Hardware stack levels required when called:   19
 This function calls:
		Nothing
 This function is called by:
		_TMR2_WriteTimer
 This function uses a non-reentrant model


 *************** function _TMR2_StopTimer *****************
 Defined at:
		line 125 in file "mcc_generated_files/tmr2.c"
 Parameters:    Size  Location     Type
		None
 Auto vars:     Size  Location     Type
		None
 Return value:  Size  Location     Type
                  1    wreg      void 
 Registers used:
		cstack
 Tracked objects:
		On entry : 
		On exit  : 
		Unchanged: 
 Data sizes:     COMRAM   BANK0   BANK1   BANK2   BANK3   BANK4   BANK5   BANK6   BANK7   BANK8   BANK9  BANK10  BANK11  BANK12  BANK13
      Params:         0       0       0       0       0       0       0       0       0       0       0       0       0       0       0
      Locals:         0       0       0       0       0       0       0       0       0       0       0       0       0       0       0
      Temps:          0       0       0       0       0       0       0       0       0       0       0       0       0       0       0
      Totals:         0       0       0       0       0       0       0       0       0       0       0       0       0       0       0
Total ram usage:        0 bytes
 Hardware stack levels used:    1
 Hardware stack levels required when called:   20
 This function calls:
		_TMR2_Stop
 This function is called by:
		_OLED_updateCallback
		_main
 This function uses a non-reentrant model


 *************** function _TMR2_Stop *****************
 Defined at:
		line 119 in file "mcc_generated_files/tmr2.c"
 Parameters:    Size  Location     Type
		None
 Auto vars:     Size  Location     Type
		None
 Return value:  Size  Location     Type
                  1    wreg      void 
 Registers used:
		None
 Tracked objects:
		On entry : 
		On exit  : 
		Unchanged: 
 Data sizes:     COMRAM   BANK0   BANK1   BANK2   BANK3   BANK4   BANK5   BANK6   BANK7   BANK8   BANK9  BANK10  BANK11  BANK12  BANK13
      Params:         0       0       0       0       0       0       0       0       0       0       0       0       0       0       0
      Locals:         0       0       0       0       0       0       0       0       0       0       0       0       0       0       0
      Temps:          0       0       0       0       0       0       0       0       0       0       0       0       0       0       0
      Totals:         0       0       0       0       0       0       0       0       0       0       0       0       0       0       0
Total ram usage:        0 bytes
 Hardware stack levels used:    1
 Hardware stack levels required when called:   19
 This function calls:
		Nothing
 This function is called by:
		_TMR2_StopTimer
 This function uses a non-reentrant model


 *************** function _TMR2_StartTimer *****************
 Defined at:
		line 114 in file "mcc_generated_files/tmr2.c"
 Parameters:    Size  Location     Type
		None
 Auto vars:     Size  Location     Type
		None
 Return value:  Size  Location     Type
                  1    wreg      void 
 Registers used:
		cstack
 Tracked objects:
		On entry : 
		On exit  : 
		Unchanged: 
 Data sizes:     COMRAM   BANK0   BANK1   BANK2   BANK3   BANK4   BANK5   BANK6   BANK7   BANK8   BANK9  BANK10  BANK11  BANK12  BANK13
      Params:         0       0       0       0       0       0       0       0       0       0       0       0       0       0       0
      Locals:         0       0       0       0       0       0       0       0       0       0       0       0       0       0       0
      Temps:          0       0       0       0       0       0       0       0       0       0       0       0       0       0       0
      Totals:         0       0       0       0       0       0       0       0       0       0       0       0       0       0       0
Total ram usage:        0 bytes
 Hardware stack levels used:    1
 Hardware stack levels required when called:   20
 This function calls:
		_TMR2_Start
 This function is called by:
		_OLED_updateCallback
 This function uses a non-reentrant model


 *************** function _TMR2_Start *****************
 Defined at:
		line 108 in file "mcc_generated_files/tmr2.c"
 Parameters:    Size  Location     Type
		None
 Auto vars:     Size  Location     Type
		None
 Return value:  Size  Location     Type
                  1    wreg      void 
 Registers used:
		None
 Tracked objects:
		On entry : 
		On exit  : 
		Unchanged: 
 Data sizes:     COMRAM   BANK0   BANK1   BANK2   BANK3   BANK4   BANK5   BANK6   BANK7   BANK8   BANK9  BANK10  BANK11  BANK12  BANK13
      Params:         0       0       0       0       0       0       0       0       0       0       0       0       0       0       0
      Locals:         0       0       0       0       0       0       0       0       0       0       0       0       0       0       0
      Temps:          0       0       0       0       0       0       0       0       0       0       0       0       0       0       0
      Totals:         0       0       0       0       0       0       0       0       0       0       0       0       0       0       0
Total ram usage:        0 bytes
 Hardware stack levels used:    1
 Hardware stack levels required when called:   19
 This function calls:
		Nothing
 This function is called by:
		_TMR2_StartTimer
 This function uses a non-reentrant model


 *************** function _TMR2_Period8BitSet *****************
 Defined at:
		line 155 in file "mcc_generated_files/tmr2.c"
 Parameters:    Size  Location     Type
  periodVal       1    wreg     unsigned char 
 Auto vars:     Size  Location     Type
  periodVal       1    0[BANK3 ] unsigned char 
 Return value:  Size  Location     Type
                  1    wreg      void 
 Registers used:
		wreg
 Tracked objects:
		On entry : 
		On exit  : 
		Unchanged: 
 Data sizes:     COMRAM   BANK0   BANK1   BANK2   BANK3   BANK4   BANK5   BANK6   BANK7   BANK8   BANK9  BANK10  BANK11  BANK12  BANK13
      Params:         0       0       0       0       0       0       0       0       0       0       0       0       0       0       0
      Locals:         0       0       0       0       1       0       0       0       0       0       0       0       0       0       0
      Temps:          0       0       0       0       0       0       0       0       0       0       0       0       0       0       0
      Totals:         0       0       0       0       1       0       0       0       0       0       0       0       0       0       0
Total ram usage:        1 bytes
 Hardware stack levels used:    1
 Hardware stack levels required when called:   19
 This function calls:
		Nothing
 This function is called by:
		_OLED_updateCallback
		_TMR2_LoadPeriodRegister
 This function uses a non-reentrant model


 *************** function _OLED_UpdateFromRAMBuffer *****************
 Defined at:
		line 313 in file "oled.c"
 Parameters:    Size  Location     Type
		None
 Auto vars:     Size  Location     Type
		None
 Return value:  Size  Location     Type
                  1    wreg      void 
 Registers used:
		wreg, fsr0l, fsr0h, fsr2l, fsr2h, status,2, status,0, tblptrl, tblptrh, tblptru, prodl, prodh, cstack
 Tracked objects:
		On entry : 
		On exit  : 
		Unchanged: 
 Data sizes:     COMRAM   BANK0   BANK1   BANK2   BANK3   BANK4   BANK5   BANK6   BANK7   BANK8   BANK9  BANK10  BANK11  BANK12  BANK13
      Params:         0       0       0       0       0       0       0       0       0       0       0       0       0       0       0
      Locals:         0       0       0       0       0       0       0       0       0       0       0       0       0       0       0
      Temps:          0       0       0       0       0       0       0       0       0       0       0       0       0       0       0
      Totals:         0       0       0       0       0       0       0       0       0       0       0       0       0       0       0
Total ram usage:        0 bytes
 Hardware stack levels used:    1
 Hardware stack levels required when called:   24
 This function calls:
		_OLED_Clear
		_OLED_WriteString
		_OLED_YX
 This function is called by:
		_OLED_updateCallback
 This function uses a non-reentrant model


 *************** function _OLED_YX *****************
 Defined at:
		line 220 in file "oled.c"
 Parameters:    Size  Location     Type
  Row             1    wreg     unsigned char 
  Column          1   20[BANK3 ] unsigned char 
 Auto vars:     Size  Location     Type
  Row             1   22[BANK3 ] unsigned char 
 Return value:  Size  Location     Type
                  1    wreg      void 
 Registers used:
		wreg, fsr2l, fsr2h, status,2, status,0, prodl, prodh, cstack
 Tracked objects:
		On entry : 
		On exit  : 
		Unchanged: 
 Data sizes:     COMRAM   BANK0   BANK1   BANK2   BANK3   BANK4   BANK5   BANK6   BANK7   BANK8   BANK9  BANK10  BANK11  BANK12  BANK13
      Params:         0       0       0       0       1       0       0       0       0       0       0       0       0       0       0
      Locals:         0       0       0       0       1       0       0       0       0       0       0       0       0       0       0
      Temps:          0       0       0       0       1       0       0       0       0       0       0       0       0       0       0
      Totals:         0       0       0       0       3       0       0       0       0       0       0       0       0       0       0
Total ram usage:        3 bytes
 Hardware stack levels used:    1
 Hardware stack levels required when called:   23
 This function calls:
		_OLED_Command
 This function is called by:
		_OLED_UpdateFromRAMBuffer
 This function uses a non-reentrant model


 *************** function _OLED_WriteString *****************
 Defined at:
		line 281 in file "oled.c"
 Parameters:    Size  Location     Type
  s               2   33[BANK3 ] PTR unsigned char 
		 -> ftoa@buf(17), STR_324(1), STR_323(1), OLED_WriteInteger@s(20), 
		 -> OLED_RAM_Buffer(68), 
 Auto vars:     Size  Location     Type
		None
 Return value:  Size  Location     Type
                  1    wreg      void 
 Registers used:
		wreg, fsr0l, fsr0h, fsr2l, fsr2h, status,2, status,0, tblptrl, tblptrh, tblptru, cstack
 Tracked objects:
		On entry : 
		On exit  : 
		Unchanged: 
 Data sizes:     COMRAM   BANK0   BANK1   BANK2   BANK3   BANK4   BANK5   BANK6   BANK7   BANK8   BANK9  BANK10  BANK11  BANK12  BANK13
      Params:         0       0       0       0       2       0       0       0       0       0       0       0       0       0       0
      Locals:         0       0       0       0       0       0       0       0       0       0       0       0       0       0       0
      Temps:          0       0       0       0       0       0       0       0       0       0       0       0       0       0       0
      Totals:         0       0       0       0       2       0       0       0       0       0       0       0       0       0       0
Total ram usage:        2 bytes
 Hardware stack levels used:    1
 Hardware stack levels required when called:   23
 This function calls:
		_OLED_PutChar
 This function is called by:
		_OLED_UpdateFromRAMBuffer
		_OLED_WriteInteger
		_OLED_WriteFloat
 This function uses a non-reentrant model


 *************** function _OLED_Clear *****************
 Defined at:
		line 266 in file "oled.c"
 Parameters:    Size  Location     Type
		None
 Auto vars:     Size  Location     Type
  col             2   35[BANK3 ] unsigned int 
  row             2   33[BANK3 ] unsigned int 
 Return value:  Size  Location     Type
                  1    wreg      void 
 Registers used:
		wreg, fsr2l, fsr2h, status,2, status,0, tblptrl, tblptrh, tblptru, cstack
 Tracked objects:
		On entry : 
		On exit  : 
		Unchanged: 
 Data sizes:     COMRAM   BANK0   BANK1   BANK2   BANK3   BANK4   BANK5   BANK6   BANK7   BANK8   BANK9  BANK10  BANK11  BANK12  BANK13
      Params:         0       0       0       0       0       0       0       0       0       0       0       0       0       0       0
      Locals:         0       0       0       0       4       0       0       0       0       0       0       0       0       0       0
      Temps:          0       0       0       0       0       0       0       0       0       0       0       0       0       0       0
      Totals:         0       0       0       0       4       0       0       0       0       0       0       0       0       0       0
Total ram usage:        4 bytes
 Hardware stack levels used:    1
 Hardware stack levels required when called:   23
 This function calls:
		_OLED_PutChar
 This function is called by:
		_main
		_OLED_UpdateFromRAMBuffer
 This function uses a non-reentrant model


 *************** function _OLED_PutChar *****************
 Defined at:
		line 231 in file "oled.c"
 Parameters:    Size  Location     Type
  ch              1    wreg     unsigned char 
 Auto vars:     Size  Location     Type
  ch              1   32[BANK3 ] unsigned char 
  data_array      9   20[BANK3 ] unsigned char [9]
  input_base      2   29[BANK3 ] PTR const unsigned char 
		 -> OledFont(768), 
  length          1   31[BANK3 ] unsigned char 
 Return value:  Size  Location     Type
                  1    wreg      void 
 Registers used:
		wreg, fsr2l, fsr2h, status,2, status,0, tblptrl, tblptrh, tblptru, cstack
 Tracked objects:
		On entry : 
		On exit  : 
		Unchanged: 
 Data sizes:     COMRAM   BANK0   BANK1   BANK2   BANK3   BANK4   BANK5   BANK6   BANK7   BANK8   BANK9  BANK10  BANK11  BANK12  BANK13
      Params:         0       0       0       0       0       0       0       0       0       0       0       0       0       0       0
      Locals:         0       0       0       0      13       0       0       0       0       0       0       0       0       0       0
      Temps:          0       0       0       0       4       0       0       0       0       0       0       0       0       0       0
      Totals:         0       0       0       0      17       0       0       0       0       0       0       0       0       0       0
Total ram usage:       17 bytes
 Hardware stack levels used:    1
 Hardware stack levels required when called:   22
 This function calls:
		_I2C1_MasterWrite
		_memmove
 This function is called by:
		_OLED_Clear
		_OLED_WriteString
 This function uses a non-reentrant model


 *************** function _memmove *****************
 Defined at:
		line 8 in file "C:\Program Files (x86)\Microchip\xc8\v1.45\sources\common\memmove.c"
 Parameters:    Size  Location     Type
  d1              2    0[BANK3 ] PTR void 
		 -> OLED_PutChar@data_array(9), 
  s1              2    2[BANK3 ] PTR const void 
		 -> OledFont(768), 
  n               2    4[BANK3 ] unsigned int 
 Auto vars:     Size  Location     Type
  s               2   10[BANK3 ] PTR const unsigned char 
		 -> OledFont(768), 
  d               2    8[BANK3 ] PTR unsigned char 
		 -> OLED_PutChar@data_array(9), 
 Return value:  Size  Location     Type
                  2    0[BANK3 ] PTR void 
 Registers used:
		wreg, fsr2l, fsr2h, status,2, status,0, tblptrl, tblptrh, tblptru
 Tracked objects:
		On entry : 
		On exit  : 
		Unchanged: 
 Data sizes:     COMRAM   BANK0   BANK1   BANK2   BANK3   BANK4   BANK5   BANK6   BANK7   BANK8   BANK9  BANK10  BANK11  BANK12  BANK13
      Params:         0       0       0       0       6       0       0       0       0       0       0       0       0       0       0
      Locals:         0       0       0       0       4       0       0       0       0       0       0       0       0       0       0
      Temps:          0       0       0       0       2       0       0       0       0       0       0       0       0       0       0
      Totals:         0       0       0       0      12       0       0       0       0       0       0       0       0       0       0
Total ram usage:       12 bytes
 Hardware stack levels used:    1
 Hardware stack levels required when called:   19
 This function calls:
		Nothing
 This function is called by:
		_OLED_PutChar
 This function uses a non-reentrant model


 *************** function _EUSART2_Read *****************
 Defined at:
		line 134 in file "mcc_generated_files/eusart2.c"
 Parameters:    Size  Location     Type
		None
 Auto vars:     Size  Location     Type
  readValue       1    0[BANK3 ] unsigned char 
 Return value:  Size  Location     Type
                  1    wreg      unsigned char 
 Registers used:
		wreg, fsr2l, fsr2h, status,2, status,0, prodl, prodh
 Tracked objects:
		On entry : 
		On exit  : 
		Unchanged: 
 Data sizes:     COMRAM   BANK0   BANK1   BANK2   BANK3   BANK4   BANK5   BANK6   BANK7   BANK8   BANK9  BANK10  BANK11  BANK12  BANK13
      Params:         0       0       0       0       0       0       0       0       0       0       0       0       0       0       0
      Locals:         0       0       0       0       1       0       0       0       0       0       0       0       0       0       0
      Temps:          0       0       0       0       0       0       0       0       0       0       0       0       0       0       0
      Totals:         0       0       0       0       1       0       0       0       0       0       0       0       0       0       0
Total ram usage:        1 bytes
 Hardware stack levels used:    1
 Hardware stack levels required when called:   19
 This function calls:
		Nothing
 This function is called by:
		_terminal_ringBufferPull
		_getch
 This function uses a non-reentrant model


 *************** function _terminal_printResetMessage *****************
 Defined at:
		line 1209 in file "ring_buffer_LUT.c"
 Parameters:    Size  Location     Type
		None
 Auto vars:     Size  Location     Type
  userID          2   46[BANK4 ] int 
 Return value:  Size  Location     Type
                  1    wreg      void 
 Registers used:
		wreg, fsr0l, fsr0h, fsr1l, fsr1h, fsr2l, fsr2h, status,2, status,0, pclath, tosl, tblptrl, tblptrh, tblptru, prodl, prodh, cstack
 Tracked objects:
		On entry : 
		On exit  : 
		Unchanged: 
 Data sizes:     COMRAM   BANK0   BANK1   BANK2   BANK3   BANK4   BANK5   BANK6   BANK7   BANK8   BANK9  BANK10  BANK11  BANK12  BANK13
      Params:         0       0       0       0       0       0       0       0       0       0       0       0       0       0       0
      Locals:         0       0       0       0       0       2       0       0       0       0       0       0       0       0       0
      Temps:          0       0       0       0       2       0       0       0       0       0       0       0       0       0       0
      Totals:         0       0       0       0       2       2       0       0       0       0       0       0       0       0       0
Total ram usage:        4 bytes
 Hardware stack levels used:    1
 Hardware stack levels required when called:   25
 This function calls:
		_getADCError
		_getCOMMError
		_getCauseOfResetString
		_getDeviceID
		_getDeviceIDString
		_getMajorRevisionID
		_getMinorRevisionID
		_getUserID
		_printf
		_terminal_printNewline
		_terminal_textAttributes
		_terminal_textAttributesReset
 This function is called by:
		_main
 This function uses a non-reentrant model


 *************** function _terminal_textAttributesReset *****************
 Defined at:
		line 196 in file "ring_buffer_interface.c"
 Parameters:    Size  Location     Type
		None
 Auto vars:     Size  Location     Type
		None
 Return value:  Size  Location     Type
                  1    wreg      void 
 Registers used:
		wreg, fsr0l, fsr0h, fsr2l, fsr2h, status,2, status,0, pclath, tosl, tblptrl, tblptrh, tblptru, prodl, prodh, cstack
 Tracked objects:
		On entry : 
		On exit  : 
		Unchanged: 
 Data sizes:     COMRAM   BANK0   BANK1   BANK2   BANK3   BANK4   BANK5   BANK6   BANK7   BANK8   BANK9  BANK10  BANK11  BANK12  BANK13
      Params:         0       0       0       0       0       0       0       0       0       0       0       0       0       0       0
      Locals:         0       0       0       0       0       0       0       0       0       0       0       0       0       0       0
      Temps:          0       0       0       0       0       0       0       0       0       0       0       0       0       0       0
      Totals:         0       0       0       0       0       0       0       0       0       0       0       0       0       0       0
Total ram usage:        0 bytes
 Hardware stack levels used:    1
 Hardware stack levels required when called:   24
 This function calls:
		_terminal_textAttributes
 This function is called by:
		_main
		_ringBufferLUT
		_terminal_printResetMessage
 This function uses a non-reentrant model


 *************** function _terminal_textAttributes *****************
 Defined at:
		line 88 in file "ring_buffer_interface.c"
 Parameters:    Size  Location     Type
  foreground_c    1    wreg     enum E18152
  background_c    1  215[BANK3 ] enum E18152
  input_attrib    1  216[BANK3 ] enum E18144
 Auto vars:     Size  Location     Type
  foreground_c    1   30[BANK4 ] enum E18152
  output_buff    15   31[BANK4 ] unsigned char [15]
 Return value:  Size  Location     Type
                  1    wreg      void 
 Registers used:
		wreg, fsr0l, fsr0h, fsr2l, fsr2h, status,2, status,0, pclath, tosl, tblptrl, tblptrh, tblptru, prodl, prodh, cstack
 Tracked objects:
		On entry : 
		On exit  : 
		Unchanged: 
 Data sizes:     COMRAM   BANK0   BANK1   BANK2   BANK3   BANK4   BANK5   BANK6   BANK7   BANK8   BANK9  BANK10  BANK11  BANK12  BANK13
      Params:         0       0       0       0       2       0       0       0       0       0       0       0       0       0       0
      Locals:         0       0       0       0       0      16       0       0       0       0       0       0       0       0       0
      Temps:          0       0       0       0       0       0       0       0       0       0       0       0       0       0       0
      Totals:         0       0       0       0       2      16       0       0       0       0       0       0       0       0       0
Total ram usage:       18 bytes
 Hardware stack levels used:    1
 Hardware stack levels required when called:   23
 This function calls:
		_printf
		_strcat
		_strncpy
 This function is called by:
		_terminal_textAttributesReset
		_ringBufferLUT
		_terminal_printResetMessage
 This function uses a non-reentrant model


 *************** function _strncpy *****************
 Defined at:
		line 8 in file "C:\Program Files (x86)\Microchip\xc8\v1.45\sources\common\strncpy.c"
 Parameters:    Size  Location     Type
  to              2    0[BANK3 ] PTR unsigned char 
		 -> terminal_textAttributes@output_buff(15), 
  from            2    2[BANK3 ] PTR const unsigned char 
		 -> STR_48(3), 
  size            2    4[BANK3 ] unsigned int 
 Auto vars:     Size  Location     Type
  cp              2    6[BANK3 ] PTR unsigned char 
		 -> terminal_textAttributes@output_buff(15), 
 Return value:  Size  Location     Type
                  2    0[BANK3 ] PTR unsigned char 
 Registers used:
		wreg, fsr2l, fsr2h, status,2, status,0, tblptrl, tblptrh, tblptru
 Tracked objects:
		On entry : 
		On exit  : 
		Unchanged: 
 Data sizes:     COMRAM   BANK0   BANK1   BANK2   BANK3   BANK4   BANK5   BANK6   BANK7   BANK8   BANK9  BANK10  BANK11  BANK12  BANK13
      Params:         0       0       0       0       6       0       0       0       0       0       0       0       0       0       0
      Locals:         0       0       0       0       2       0       0       0       0       0       0       0       0       0       0
      Temps:          0       0       0       0       0       0       0       0       0       0       0       0       0       0       0
      Totals:         0       0       0       0       8       0       0       0       0       0       0       0       0       0       0
Total ram usage:        8 bytes
 Hardware stack levels used:    1
 Hardware stack levels required when called:   19
 This function calls:
		Nothing
 This function is called by:
		_terminal_textAttributes
 This function uses a non-reentrant model


 *************** function _strcat *****************
 Defined at:
		line 8 in file "C:\Program Files (x86)\Microchip\xc8\v1.45\sources\common\strcat.c"
 Parameters:    Size  Location     Type
  to              2    0[BANK3 ] PTR unsigned char 
		 -> terminal_textAttributes@output_buff(15), 
  from            2    2[BANK3 ] PTR const unsigned char 
		 -> STR_76(2), STR_75(3), STR_74(3), STR_73(3), 
		 -> STR_72(3), STR_71(3), STR_70(3), STR_69(3), 
		 -> STR_68(3), STR_67(3), STR_66(2), STR_65(3), 
		 -> STR_64(3), STR_63(3), STR_62(3), STR_61(3), 
		 -> STR_60(3), STR_59(3), STR_58(3), STR_57(3), 
		 -> STR_56(2), STR_55(2), STR_54(2), STR_53(2), 
		 -> STR_52(2), STR_51(2), STR_50(2), STR_49(2), 
 Auto vars:     Size  Location     Type
  cp              2    4[BANK3 ] PTR unsigned char 
		 -> terminal_textAttributes@output_buff(15), 
 Return value:  Size  Location     Type
                  2    0[BANK3 ] PTR unsigned char 
 Registers used:
		wreg, fsr2l, fsr2h, status,2, status,0, tblptrl, tblptrh, tblptru
 Tracked objects:
		On entry : 
		On exit  : 
		Unchanged: 
 Data sizes:     COMRAM   BANK0   BANK1   BANK2   BANK3   BANK4   BANK5   BANK6   BANK7   BANK8   BANK9  BANK10  BANK11  BANK12  BANK13
      Params:         0       0       0       0       4       0       0       0       0       0       0       0       0       0       0
      Locals:         0       0       0       0       2       0       0       0       0       0       0       0       0       0       0
      Temps:          0       0       0       0       0       0       0       0       0       0       0       0       0       0       0
      Totals:         0       0       0       0       6       0       0       0       0       0       0       0       0       0       0
Total ram usage:        6 bytes
 Hardware stack levels used:    1
 Hardware stack levels required when called:   19
 This function calls:
		Nothing
 This function is called by:
		_terminal_textAttributes
 This function uses a non-reentrant model


 *************** function _terminal_printNewline *****************
 Defined at:
		line 203 in file "ring_buffer_interface.c"
 Parameters:    Size  Location     Type
		None
 Auto vars:     Size  Location     Type
		None
 Return value:  Size  Location     Type
                  1    wreg      void 
 Registers used:
		wreg, fsr0l, fsr0h, fsr2l, fsr2h, status,2, status,0, pclath, tosl, tblptrl, tblptrh, tblptru, prodl, prodh, cstack
 Tracked objects:
		On entry : 
		On exit  : 
		Unchanged: 
 Data sizes:     COMRAM   BANK0   BANK1   BANK2   BANK3   BANK4   BANK5   BANK6   BANK7   BANK8   BANK9  BANK10  BANK11  BANK12  BANK13
      Params:         0       0       0       0       0       0       0       0       0       0       0       0       0       0       0
      Locals:         0       0       0       0       0       0       0       0       0       0       0       0       0       0       0
      Temps:          0       0       0       0       0       0       0       0       0       0       0       0       0       0       0
      Totals:         0       0       0       0       0       0       0       0       0       0       0       0       0       0       0
Total ram usage:        0 bytes
 Hardware stack levels used:    1
 Hardware stack levels required when called:   23
 This function calls:
		_printf
 This function is called by:
		_ringBufferLUT
		_terminal_printResetMessage
 This function uses a non-reentrant model


 *************** function _getUserID *****************
 Defined at:
		line 65 in file "device_IDs.c"
 Parameters:    Size  Location     Type
  inputUserID     1    wreg     unsigned char 
 Auto vars:     Size  Location     Type
  inputUserID     1   17[BANK3 ] unsigned char 
  initialOffse    4   13[BANK3 ] unsigned long 
  IDOffset        1   18[BANK3 ] unsigned char 
 Return value:  Size  Location     Type
                  2   11[BANK3 ] unsigned int 
 Registers used:
		wreg, status,2, status,0, prodl, prodh, cstack
 Tracked objects:
		On entry : 
		On exit  : 
		Unchanged: 
 Data sizes:     COMRAM   BANK0   BANK1   BANK2   BANK3   BANK4   BANK5   BANK6   BANK7   BANK8   BANK9  BANK10  BANK11  BANK12  BANK13
      Params:         0       0       0       0       2       0       0       0       0       0       0       0       0       0       0
      Locals:         0       0       0       0       6       0       0       0       0       0       0       0       0       0       0
      Temps:          0       0       0       0       0       0       0       0       0       0       0       0       0       0       0
      Totals:         0       0       0       0       8       0       0       0       0       0       0       0       0       0       0
Total ram usage:        8 bytes
 Hardware stack levels used:    1
 Hardware stack levels required when called:   21
 This function calls:
		_FLASH_ReadWord
 This function is called by:
		_ringBufferLUT
		_terminal_printResetMessage
 This function uses a non-reentrant model


 *************** function _getMinorRevisionID *****************
 Defined at:
		line 23 in file "device_IDs.c"
 Parameters:    Size  Location     Type
		None
 Auto vars:     Size  Location     Type
  REVID_RAW       2   11[BANK3 ] unsigned int 
 Return value:  Size  Location     Type
                  1    wreg      unsigned char 
 Registers used:
		wreg, status,2, status,0, cstack
 Tracked objects:
		On entry : 
		On exit  : 
		Unchanged: 
 Data sizes:     COMRAM   BANK0   BANK1   BANK2   BANK3   BANK4   BANK5   BANK6   BANK7   BANK8   BANK9  BANK10  BANK11  BANK12  BANK13
      Params:         0       0       0       0       0       0       0       0       0       0       0       0       0       0       0
      Locals:         0       0       0       0       2       0       0       0       0       0       0       0       0       0       0
      Temps:          0       0       0       0       0       0       0       0       0       0       0       0       0       0       0
      Totals:         0       0       0       0       2       0       0       0       0       0       0       0       0       0       0
Total ram usage:        2 bytes
 Hardware stack levels used:    1
 Hardware stack levels required when called:   21
 This function calls:
		_FLASH_ReadWord
 This function is called by:
		_OLED_updateCallback
		_ringBufferLUT
		_terminal_printResetMessage
 This function uses a non-reentrant model


 *************** function _getMajorRevisionID *****************
 Defined at:
		line 12 in file "device_IDs.c"
 Parameters:    Size  Location     Type
		None
 Auto vars:     Size  Location     Type
  REVID_RAW       2   14[BANK3 ] unsigned int 
 Return value:  Size  Location     Type
                  1    wreg      unsigned char 
 Registers used:
		wreg, status,2, status,0, cstack
 Tracked objects:
		On entry : 
		On exit  : 
		Unchanged: 
 Data sizes:     COMRAM   BANK0   BANK1   BANK2   BANK3   BANK4   BANK5   BANK6   BANK7   BANK8   BANK9  BANK10  BANK11  BANK12  BANK13
      Params:         0       0       0       0       0       0       0       0       0       0       0       0       0       0       0
      Locals:         0       0       0       0       2       0       0       0       0       0       0       0       0       0       0
      Temps:          0       0       0       0       3       0       0       0       0       0       0       0       0       0       0
      Totals:         0       0       0       0       5       0       0       0       0       0       0       0       0       0       0
Total ram usage:        5 bytes
 Hardware stack levels used:    1
 Hardware stack levels required when called:   21
 This function calls:
		_FLASH_ReadWord
 This function is called by:
		_OLED_updateCallback
		_ringBufferLUT
		_terminal_printResetMessage
 This function uses a non-reentrant model


 *************** function _getDeviceIDString *****************
 Defined at:
		line 34 in file "device_IDs.c"
 Parameters:    Size  Location     Type
  inputDevID      2   13[BANK3 ] unsigned int 
 Auto vars:     Size  Location     Type
  strings         6   17[BANK3 ] PTR const unsigned char 
		 -> STR_302(10), STR_301(13), STR_300(12), 
 Return value:  Size  Location     Type
                  2   13[BANK3 ] PTR inline unsigned char
 Registers used:
		wreg, fsr1l, fsr1h, fsr2l, fsr2h, status,2, status,0
 Tracked objects:
		On entry : 
		On exit  : 
		Unchanged: 
 Data sizes:     COMRAM   BANK0   BANK1   BANK2   BANK3   BANK4   BANK5   BANK6   BANK7   BANK8   BANK9  BANK10  BANK11  BANK12  BANK13
      Params:         0       0       0       0       2       0       0       0       0       0       0       0       0       0       0
      Locals:         0       0       0       0       6       0       0       0       0       0       0       0       0       0       0
      Temps:          0       0       0       0       2       0       0       0       0       0       0       0       0       0       0
      Totals:         0       0       0       0      10       0       0       0       0       0       0       0       0       0       0
Total ram usage:       10 bytes
 Hardware stack levels used:    1
 Hardware stack levels required when called:   19
 This function calls:
		Nothing
 This function is called by:
		_ringBufferLUT
		_terminal_printResetMessage
 This function uses a non-reentrant model


 *************** function _getDeviceID *****************
 Defined at:
		line 4 in file "device_IDs.c"
 Parameters:    Size  Location     Type
		None
 Auto vars:     Size  Location     Type
		None
 Return value:  Size  Location     Type
                  2   11[BANK3 ] unsigned int 
 Registers used:
		wreg, status,2, status,0, cstack
 Tracked objects:
		On entry : 
		On exit  : 
		Unchanged: 
 Data sizes:     COMRAM   BANK0   BANK1   BANK2   BANK3   BANK4   BANK5   BANK6   BANK7   BANK8   BANK9  BANK10  BANK11  BANK12  BANK13
      Params:         0       0       0       0       2       0       0       0       0       0       0       0       0       0       0
      Locals:         0       0       0       0       0       0       0       0       0       0       0       0       0       0       0
      Temps:          0       0       0       0       0       0       0       0       0       0       0       0       0       0       0
      Totals:         0       0       0       0       2       0       0       0       0       0       0       0       0       0       0
Total ram usage:        2 bytes
 Hardware stack levels used:    1
 Hardware stack levels required when called:   21
 This function calls:
		_FLASH_ReadWord
 This function is called by:
		_OLED_updateCallback
		_ringBufferLUT
		_terminal_printResetMessage
 This function uses a non-reentrant model


 *************** function _FLASH_ReadWord *****************
 Defined at:
		line 71 in file "mcc_generated_files/memory.c"
 Parameters:    Size  Location     Type
  flashAddr       4    4[BANK3 ] unsigned long 
 Auto vars:     Size  Location     Type
		None
 Return value:  Size  Location     Type
                  2    4[BANK3 ] unsigned int 
 Registers used:
		wreg, status,2, status,0, cstack
 Tracked objects:
		On entry : 
		On exit  : 
		Unchanged: 
 Data sizes:     COMRAM   BANK0   BANK1   BANK2   BANK3   BANK4   BANK5   BANK6   BANK7   BANK8   BANK9  BANK10  BANK11  BANK12  BANK13
      Params:         0       0       0       0       4       0       0       0       0       0       0       0       0       0       0
      Locals:         0       0       0       0       0       0       0       0       0       0       0       0       0       0       0
      Temps:          0       0       0       0       3       0       0       0       0       0       0       0       0       0       0
      Totals:         0       0       0       0       7       0       0       0       0       0       0       0       0       0       0
Total ram usage:        7 bytes
 Hardware stack levels used:    1
 Hardware stack levels required when called:   20
 This function calls:
		_FLASH_ReadByte
 This function is called by:
		_getDeviceID
		_getMajorRevisionID
		_getMinorRevisionID
		_getUserID
 This function uses a non-reentrant model


 *************** function _FLASH_ReadByte *****************
 Defined at:
		line 59 in file "mcc_generated_files/memory.c"
 Parameters:    Size  Location     Type
  flashAddr       4    0[BANK3 ] unsigned long 
 Auto vars:     Size  Location     Type
		None
 Return value:  Size  Location     Type
                  1    wreg      unsigned char 
 Registers used:
		wreg, status,2
 Tracked objects:
		On entry : 
		On exit  : 
		Unchanged: 
 Data sizes:     COMRAM   BANK0   BANK1   BANK2   BANK3   BANK4   BANK5   BANK6   BANK7   BANK8   BANK9  BANK10  BANK11  BANK12  BANK13
      Params:         0       0       0       0       4       0       0       0       0       0       0       0       0       0       0
      Locals:         0       0       0       0       0       0       0       0       0       0       0       0       0       0       0
      Temps:          0       0       0       0       0       0       0       0       0       0       0       0       0       0       0
      Totals:         0       0       0       0       4       0       0       0       0       0       0       0       0       0       0
Total ram usage:        4 bytes
 Hardware stack levels used:    1
 Hardware stack levels required when called:   19
 This function calls:
		Nothing
 This function is called by:
		_FLASH_ReadWord
		_FLASH_WriteByte
 This function uses a non-reentrant model


 *************** function _getCauseOfResetString *****************
 Defined at:
		line 87 in file "cause_of_reset.c"
 Parameters:    Size  Location     Type
  r               1    wreg     enum E17455
 Auto vars:     Size  Location     Type
  r               1    2[BANK3 ] enum E17455
 Return value:  Size  Location     Type
                  2    0[BANK3 ] PTR inline unsigned char
 Registers used:
		wreg, fsr2l, fsr2h, status,2, status,0, prodl, prodh
 Tracked objects:
		On entry : 
		On exit  : 
		Unchanged: 
 Data sizes:     COMRAM   BANK0   BANK1   BANK2   BANK3   BANK4   BANK5   BANK6   BANK7   BANK8   BANK9  BANK10  BANK11  BANK12  BANK13
      Params:         0       0       0       0       2       0       0       0       0       0       0       0       0       0       0
      Locals:         0       0       0       0       1       0       0       0       0       0       0       0       0       0       0
      Temps:          0       0       0       0       0       0       0       0       0       0       0       0       0       0       0
      Totals:         0       0       0       0       3       0       0       0       0       0       0       0       0       0       0
Total ram usage:        3 bytes
 Hardware stack levels used:    1
 Hardware stack levels required when called:   19
 This function calls:
		Nothing
 This function is called by:
		_ringBufferLUT
		_terminal_printResetMessage
 This function uses a non-reentrant model


 *************** function _getCOMMError *****************
 Defined at:
		line 35 in file "error_handling.c"
 Parameters:    Size  Location     Type
		None
 Auto vars:     Size  Location     Type
		None
 Return value:  Size  Location     Type
                  1    wreg      unsigned char 
 Registers used:
		wreg, status,2
 Tracked objects:
		On entry : 
		On exit  : 
		Unchanged: 
 Data sizes:     COMRAM   BANK0   BANK1   BANK2   BANK3   BANK4   BANK5   BANK6   BANK7   BANK8   BANK9  BANK10  BANK11  BANK12  BANK13
      Params:         0       0       0       0       0       0       0       0       0       0       0       0       0       0       0
      Locals:         0       0       0       0       0       0       0       0       0       0       0       0       0       0       0
      Temps:          0       0       0       0       0       0       0       0       0       0       0       0       0       0       0
      Totals:         0       0       0       0       0       0       0       0       0       0       0       0       0       0       0
Total ram usage:        0 bytes
 Hardware stack levels used:    1
 Hardware stack levels required when called:   19
 This function calls:
		Nothing
 This function is called by:
		_ringBufferLUT
		_terminal_printResetMessage
		_updateErrorLEDs
 This function uses a non-reentrant model


 *************** function _getADCError *****************
 Defined at:
		line 11 in file "error_handling.c"
 Parameters:    Size  Location     Type
		None
 Auto vars:     Size  Location     Type
		None
 Return value:  Size  Location     Type
                  1    wreg      unsigned char 
 Registers used:
		wreg, status,2
 Tracked objects:
		On entry : 
		On exit  : 
		Unchanged: 
 Data sizes:     COMRAM   BANK0   BANK1   BANK2   BANK3   BANK4   BANK5   BANK6   BANK7   BANK8   BANK9  BANK10  BANK11  BANK12  BANK13
      Params:         0       0       0       0       0       0       0       0       0       0       0       0       0       0       0
      Locals:         0       0       0       0       0       0       0       0       0       0       0       0       0       0       0
      Temps:          0       0       0       0       0       0       0       0       0       0       0       0       0       0       0
      Totals:         0       0       0       0       0       0       0       0       0       0       0       0       0       0       0
Total ram usage:        0 bytes
 Hardware stack levels used:    1
 Hardware stack levels required when called:   19
 This function calls:
		Nothing
 This function is called by:
		_ringBufferLUT
		_terminal_printResetMessage
		_updateErrorLEDs
 This function uses a non-reentrant model


 *************** function _terminal_clearTerminal *****************
 Defined at:
		line 53 in file "ring_buffer_interface.c"
 Parameters:    Size  Location     Type
		None
 Auto vars:     Size  Location     Type
		None
 Return value:  Size  Location     Type
                  1    wreg      void 
 Registers used:
		wreg, fsr0l, fsr0h, fsr2l, fsr2h, status,2, status,0, pclath, tosl, tblptrl, tblptrh, tblptru, prodl, prodh, cstack
 Tracked objects:
		On entry : 
		On exit  : 
		Unchanged: 
 Data sizes:     COMRAM   BANK0   BANK1   BANK2   BANK3   BANK4   BANK5   BANK6   BANK7   BANK8   BANK9  BANK10  BANK11  BANK12  BANK13
      Params:         0       0       0       0       0       0       0       0       0       0       0       0       0       0       0
      Locals:         0       0       0       0       0       0       0       0       0       0       0       0       0       0       0
      Temps:          0       0       0       0       0       0       0       0       0       0       0       0       0       0       0
      Totals:         0       0       0       0       0       0       0       0       0       0       0       0       0       0       0
Total ram usage:        0 bytes
 Hardware stack levels used:    1
 Hardware stack levels required when called:   23
 This function calls:
		_printf
 This function is called by:
		_main
 This function uses a non-reentrant model


 *************** function _printf *****************
 Defined at:
		line 13 in file "C:\Program Files (x86)\Microchip\xc8\v1.45\sources\common\printf.c"
 Parameters:    Size  Location     Type
  f               2  198[BANK3 ] PTR const unsigned char 
		 -> STR_299(14), STR_298(99), STR_297(30), STR_296(58), 
		 -> STR_295(36), STR_294(36), STR_293(37), STR_292(28), 
		 -> STR_291(38), STR_290(60), STR_289(32), STR_288(23), 
		 -> STR_287(65), STR_286(27), STR_285(48), STR_284(15), 
		 -> STR_283(13), STR_282(12), STR_281(11), STR_280(10), 
		 -> STR_279(11), STR_278(24), STR_277(46), STR_276(25), 
		 -> STR_275(56), STR_274(64), STR_273(59), STR_272(85), 
		 -> STR_271(30), STR_270(55), STR_269(46), STR_268(39), 
		 -> STR_267(62), STR_266(21), STR_265(31), STR_264(49), 
		 -> STR_263(99), STR_262(88), STR_261(37), STR_260(13), 
		 -> STR_259(29), STR_258(26), STR_257(26), STR_256(426), 
		 -> STR_254(30), STR_253(46), STR_252(39), STR_251(62), 
		 -> STR_250(55), STR_249(470), STR_247(3282), STR_245(492), 
		 -> STR_243(840), STR_241(720), STR_239(1080), STR_237(46), 
		 -> STR_236(51), STR_235(73), STR_234(73), STR_233(71), 
		 -> STR_232(56), STR_231(34), STR_230(34), STR_229(53), 
		 -> STR_228(42), STR_227(53), STR_226(71), STR_225(63), 
		 -> STR_224(37), STR_223(31), STR_221(54), STR_220(45), 
		 -> STR_219(51), STR_218(52), STR_217(30), STR_216(58), 
		 -> STR_215(36), STR_214(36), STR_213(37), STR_212(38), 
		 -> STR_211(60), STR_210(32), STR_209(23), STR_208(65), 
		 -> STR_207(27), STR_206(48), STR_205(15), STR_204(13), 
		 -> STR_203(12), STR_202(11), STR_201(10), STR_200(11), 
		 -> STR_199(24), STR_198(46), STR_197(25), STR_196(58), 
		 -> STR_195(56), STR_194(64), STR_193(59), STR_192(85), 
		 -> STR_191(21), STR_189(54), STR_187(54), STR_185(45), 
		 -> STR_183(51), STR_181(52), STR_179(46), STR_177(51), 
		 -> STR_175(53), STR_173(58), STR_171(71), STR_170(63), 
		 -> STR_169(37), STR_168(46), STR_167(102), STR_166(86), 
		 -> STR_164(25), STR_162(42), STR_161(53), STR_160(31), 
		 -> STR_158(29), STR_157(28), STR_155(42), STR_153(41), 
		 -> STR_151(44), STR_150(19), STR_149(34), STR_147(53), 
		 -> STR_146(50), STR_145(105), STR_144(105), STR_142(59), 
		 -> STR_140(73), STR_139(73), STR_138(71), STR_136(56), 
		 -> STR_134(34), STR_132(34), STR_130(32), STR_128(30), 
		 -> STR_126(58), STR_124(36), STR_122(36), STR_120(37), 
		 -> STR_118(34), STR_116(38), STR_115(60), STR_114(32), 
		 -> STR_113(23), STR_112(65), STR_110(23), STR_108(27), 
		 -> STR_107(48), STR_106(15), STR_105(13), STR_104(12), 
		 -> STR_103(11), STR_102(10), STR_101(11), STR_100(24), 
		 -> STR_99(46), STR_98(25), STR_96(56), STR_95(64), 
		 -> STR_93(59), STR_91(85), STR_89(47), STR_88(17), 
		 -> STR_85(52), STR_83(4), STR_82(5), STR_80(4), 
		 -> STR_79(5), STR_77(3), terminal_textAttributes@output_buff(15), STR_47(4), 
		 -> STR_46(4), STR_45(4), STR_44(4), STR_43(5), 
		 -> STR_1(4), 
 Auto vars:     Size  Location     Type
  pb              5  210[BANK3 ] struct __prbuf
  ap              2  208[BANK3 ] PTR void [1]
		 -> ?i2_printf(2), ?_sprintf(2), ?_printf(2), 
 Return value:  Size  Location     Type
                  2  198[BANK3 ] int 
 Registers used:
		wreg, fsr0l, fsr0h, fsr2l, fsr2h, status,2, status,0, pclath, tosl, tblptrl, tblptrh, tblptru, prodl, prodh, cstack
 Tracked objects:
		On entry : 
		On exit  : 
		Unchanged: 
 Data sizes:     COMRAM   BANK0   BANK1   BANK2   BANK3   BANK4   BANK5   BANK6   BANK7   BANK8   BANK9  BANK10  BANK11  BANK12  BANK13
      Params:         0       0       0       0      10       0       0       0       0       0       0       0       0       0       0
      Locals:         0       0       0       0       7       0       0       0       0       0       0       0       0       0       0
      Temps:          0       0       0       0       0       0       0       0       0       0       0       0       0       0       0
      Totals:         0       0       0       0      17       0       0       0       0       0       0       0       0       0       0
Total ram usage:       17 bytes
 Hardware stack levels used:    1
 Hardware stack levels required when called:   22
 This function calls:
		__doprnt
 This function is called by:
		_terminal_clearTerminal
		_terminal_setCursorHome
		_terminal_textAttributes
		_terminal_printNewline
		_ringBufferLUT
		_terminal_printResetMessage
		_terminal_clearLine
		_terminal_saveCursor
		_terminal_returnCursor
 This function uses a non-reentrant model


 *************** function __doprnt *****************
 Defined at:
		line 458 in file "C:\Program Files (x86)\Microchip\xc8\v1.45\sources\common\doprnt.c"
 Parameters:    Size  Location     Type
  pb              2  186[BANK3 ] PTR struct __prbuf
		 -> sprintf@pb(5), printf@pb(5), 
  f               2  188[BANK3 ] PTR const unsigned char 
		 -> STR_327(11), STR_299(14), STR_298(99), STR_297(30), 
		 -> STR_296(58), STR_295(36), STR_294(36), STR_293(37), 
		 -> STR_292(28), STR_291(38), STR_290(60), STR_289(32), 
		 -> STR_288(23), STR_287(65), STR_286(27), STR_285(48), 
		 -> STR_284(15), STR_283(13), STR_282(12), STR_281(11), 
		 -> STR_280(10), STR_279(11), STR_278(24), STR_277(46), 
		 -> STR_276(25), STR_275(56), STR_274(64), STR_273(59), 
		 -> STR_272(85), STR_271(30), STR_270(55), STR_269(46), 
		 -> STR_268(39), STR_267(62), STR_266(21), STR_265(31), 
		 -> STR_264(49), STR_263(99), STR_262(88), STR_261(37), 
		 -> STR_260(13), STR_259(29), STR_258(26), STR_257(26), 
		 -> STR_256(426), STR_254(30), STR_253(46), STR_252(39), 
		 -> STR_251(62), STR_250(55), STR_249(470), STR_247(3282), 
		 -> STR_245(492), STR_243(840), STR_241(720), STR_239(1080), 
		 -> STR_237(46), STR_236(51), STR_235(73), STR_234(73), 
		 -> STR_233(71), STR_232(56), STR_231(34), STR_230(34), 
		 -> STR_229(53), STR_228(42), STR_227(53), STR_226(71), 
		 -> STR_225(63), STR_224(37), STR_223(31), STR_221(54), 
		 -> STR_220(45), STR_219(51), STR_218(52), STR_217(30), 
		 -> STR_216(58), STR_215(36), STR_214(36), STR_213(37), 
		 -> STR_212(38), STR_211(60), STR_210(32), STR_209(23), 
		 -> STR_208(65), STR_207(27), STR_206(48), STR_205(15), 
		 -> STR_204(13), STR_203(12), STR_202(11), STR_201(10), 
		 -> STR_200(11), STR_199(24), STR_198(46), STR_197(25), 
		 -> STR_196(58), STR_195(56), STR_194(64), STR_193(59), 
		 -> STR_192(85), STR_191(21), STR_189(54), STR_187(54), 
		 -> STR_185(45), STR_183(51), STR_181(52), STR_179(46), 
		 -> STR_177(51), STR_175(53), STR_173(58), STR_171(71), 
		 -> STR_170(63), STR_169(37), STR_168(46), STR_167(102), 
		 -> STR_166(86), STR_164(25), STR_162(42), STR_161(53), 
		 -> STR_160(31), STR_158(29), STR_157(28), STR_155(42), 
		 -> STR_153(41), STR_151(44), STR_150(19), STR_149(34), 
		 -> STR_147(53), STR_146(50), STR_145(105), STR_144(105), 
		 -> STR_142(59), STR_140(73), STR_139(73), STR_138(71), 
		 -> STR_136(56), STR_134(34), STR_132(34), STR_130(32), 
		 -> STR_128(30), STR_126(58), STR_124(36), STR_122(36), 
		 -> STR_120(37), STR_118(34), STR_116(38), STR_115(60), 
		 -> STR_114(32), STR_113(23), STR_112(65), STR_110(23), 
		 -> STR_108(27), STR_107(48), STR_106(15), STR_105(13), 
		 -> STR_104(12), STR_103(11), STR_102(10), STR_101(11), 
		 -> STR_100(24), STR_99(46), STR_98(25), STR_96(56), 
		 -> STR_95(64), STR_93(59), STR_91(85), STR_89(47), 
		 -> STR_88(17), STR_85(52), STR_83(4), STR_82(5), 
		 -> STR_80(4), STR_79(5), STR_77(3), terminal_textAttributes@output_buff(15), 
		 -> STR_47(4), STR_46(4), STR_45(4), STR_44(4), 
		 -> STR_43(5), STR_42(12), STR_41(12), STR_40(12), 
		 -> STR_39(11), STR_38(10), STR_37(10), STR_36(9), 
		 -> STR_34(13), STR_8(7), STR_6(5), STR_1(4), 
  ap              2  190[BANK3 ] PTR PTR void 
		 -> sprintf@ap(2), printf@ap(2), 
 Auto vars:     Size  Location     Type
  idx             1    4[BANK4 ] unsigned char 
  fval            4   23[BANK4 ] unsigned char 
  val             4   15[BANK4 ] unsigned long 
  tmpval          4    9[BANK4 ] struct .
  prec            2   27[BANK4 ] int 
  flag            2   21[BANK4 ] unsigned short 
  exp             2   19[BANK4 ] int 
  width           2   13[BANK4 ] int 
  len             2    7[BANK4 ] unsigned int 
  cp              2    5[BANK4 ] PTR const unsigned char 
		 -> ?_sprintf(2), ?_printf(2), ftoa@buf(17), STR_325(7), 
		 -> _doprnt@c(1), STR_312(16), STR_311(22), STR_310(21), 
		 -> STR_309(27), STR_308(41), STR_307(32), STR_306(19), 
		 -> STR_305(16), STR_304(15), STR_303(16), STR_302(10), 
		 -> STR_301(13), STR_300(12), print_Energy_str(17), print_Power_str(17), 
		 -> print_Vrms_str(17), print_Irms_str(17), OLED_updateCallback@angle_string(17), OLED_updateCallback@percentage_string(17), 
		 -> OLED_updateCallback@rev_id_str(17), OLED_updateCallback@dev_id_str(17), TRIAC_Firing_Angle(4), NULL(0), 
  c               1   29[BANK4 ] char 
  d               1    0        unsigned char 
 Return value:  Size  Location     Type
                  2  186[BANK3 ] int 
 Registers used:
		wreg, fsr0l, fsr0h, fsr2l, fsr2h, status,2, status,0, pclath, tosl, tblptrl, tblptrh, tblptru, prodl, prodh, cstack
 Tracked objects:
		On entry : 
		On exit  : 
		Unchanged: 
 Data sizes:     COMRAM   BANK0   BANK1   BANK2   BANK3   BANK4   BANK5   BANK6   BANK7   BANK8   BANK9  BANK10  BANK11  BANK12  BANK13
      Params:         0       0       0       0       6       0       0       0       0       0       0       0       0       0       0
      Locals:         0       0       0       0       0      30       0       0       0       0       0       0       0       0       0
      Temps:          0       0       0       0       6       0       0       0       0       0       0       0       0       0       0
      Totals:         0       0       0       0      12      30       0       0       0       0       0       0       0       0       0
Total ram usage:       42 bytes
 Hardware stack levels used:    1
 Hardware stack levels required when called:   21
 This function calls:
		Absolute function
		___awdiv
		___awmod
		___fladd
		___fldiv
		___flge
		___flmul
		___flneg
		___flsub
		___fltol
		___lldiv
		___llmod
		___wmul
		___xxtofl
		__div_to_l_
		__tdiv_to_l_
		_fround
		_isdigit
		_putch
		_scale
 This function is called by:
		_printf
		_sprintf
 This function uses a non-reentrant model


 *************** function _scale *****************
 Defined at:
		line 425 in file "C:\Program Files (x86)\Microchip\xc8\v1.45\sources\common\doprnt.c"
 Parameters:    Size  Location     Type
  scl             1    wreg     char 
 Auto vars:     Size  Location     Type
  scl             1   96[BANK3 ] char 
 Return value:  Size  Location     Type
                  4   88[BANK3 ] char 
 Registers used:
		wreg, status,2, status,0, tblptrl, tblptrh, tblptru, prodl, prodh, cstack
 Tracked objects:
		On entry : 
		On exit  : 
		Unchanged: 
 Data sizes:     COMRAM   BANK0   BANK1   BANK2   BANK3   BANK4   BANK5   BANK6   BANK7   BANK8   BANK9  BANK10  BANK11  BANK12  BANK13
      Params:         0       0       0       0       4       0       0       0       0       0       0       0       0       0       0
      Locals:         0       0       0       0       5       0       0       0       0       0       0       0       0       0       0
      Temps:          0       0       0       0       0       0       0       0       0       0       0       0       0       0       0
      Totals:         0       0       0       0       9       0       0       0       0       0       0       0       0       0       0
Total ram usage:        9 bytes
 Hardware stack levels used:    1
 Hardware stack levels required when called:   20
 This function calls:
		___awdiv
		___awmod
		___flmul
 This function is called by:
		__doprnt
 This function uses a non-reentrant model


 *************** function _putch *****************
 Defined at:
		line 184 in file "mcc_generated_files/eusart2.c"
 Parameters:    Size  Location     Type
  txData          1    wreg     unsigned char 
 Auto vars:     Size  Location     Type
  txData          1    1[BANK3 ] unsigned char 
 Return value:  Size  Location     Type
                  1    wreg      void 
 Registers used:
		wreg, fsr2l, fsr2h, status,2, status,0, prodl, prodh, cstack
 Tracked objects:
		On entry : 
		On exit  : 
		Unchanged: 
 Data sizes:     COMRAM   BANK0   BANK1   BANK2   BANK3   BANK4   BANK5   BANK6   BANK7   BANK8   BANK9  BANK10  BANK11  BANK12  BANK13
      Params:         0       0       0       0       0       0       0       0       0       0       0       0       0       0       0
      Locals:         0       0       0       0       1       0       0       0       0       0       0       0       0       0       0
      Temps:          0       0       0       0       0       0       0       0       0       0       0       0       0       0       0
      Totals:         0       0       0       0       1       0       0       0       0       0       0       0       0       0       0
Total ram usage:        1 bytes
 Hardware stack levels used:    1
 Hardware stack levels required when called:   20
 This function calls:
		_EUSART2_Write
 This function is called by:
		_printf
		__doprnt
		i1__doprnt
		i2__doprnt
 This function uses a non-reentrant model


 *************** function _EUSART2_Write *****************
 Defined at:
		line 155 in file "mcc_generated_files/eusart2.c"
 Parameters:    Size  Location     Type
  txData          1    wreg     unsigned char 
 Auto vars:     Size  Location     Type
  txData          1    0[BANK3 ] unsigned char 
 Return value:  Size  Location     Type
                  1    wreg      void 
 Registers used:
		wreg, fsr2l, fsr2h, status,2, status,0, prodl, prodh
 Tracked objects:
		On entry : 
		On exit  : 
		Unchanged: 
 Data sizes:     COMRAM   BANK0   BANK1   BANK2   BANK3   BANK4   BANK5   BANK6   BANK7   BANK8   BANK9  BANK10  BANK11  BANK12  BANK13
      Params:         0       0       0       0       0       0       0       0       0       0       0       0       0       0       0
      Locals:         0       0       0       0       1       0       0       0       0       0       0       0       0       0       0
      Temps:          0       0       0       0       0       0       0       0       0       0       0       0       0       0       0
      Totals:         0       0       0       0       1       0       0       0       0       0       0       0       0       0       0
Total ram usage:        1 bytes
 Hardware stack levels used:    1
 Hardware stack levels required when called:   19
 This function calls:
		Nothing
 This function is called by:
		_putch
 This function uses a non-reentrant model


 *************** function _isdigit *****************
 Defined at:
		line 8 in file "C:\Program Files (x86)\Microchip\xc8\v1.45\sources\common\isdigit.c"
 Parameters:    Size  Location     Type
  c               1    wreg     unsigned char 
 Auto vars:     Size  Location     Type
  c               1    2[BANK3 ] unsigned char 
 Return value:  Size  Location     Type
		None               void
 Registers used:
		wreg, status,2, status,0
 Tracked objects:
		On entry : 
		On exit  : 
		Unchanged: 
 Data sizes:     COMRAM   BANK0   BANK1   BANK2   BANK3   BANK4   BANK5   BANK6   BANK7   BANK8   BANK9  BANK10  BANK11  BANK12  BANK13
      Params:         0       0       0       0       0       0       0       0       0       0       0       0       0       0       0
      Locals:         0       0       0       0       2       0       0       0       0       0       0       0       0       0       0
      Temps:          0       0       0       0       1       0       0       0       0       0       0       0       0       0       0
      Totals:         0       0       0       0       3       0       0       0       0       0       0       0       0       0       0
Total ram usage:        3 bytes
 Hardware stack levels used:    1
 Hardware stack levels required when called:   19
 This function calls:
		Nothing
 This function is called by:
		__doprnt
		_atoi
 This function uses a non-reentrant model


 *************** function _fround *****************
 Defined at:
		line 409 in file "C:\Program Files (x86)\Microchip\xc8\v1.45\sources\common\doprnt.c"
 Parameters:    Size  Location     Type
  prec            1    wreg     unsigned char 
 Auto vars:     Size  Location     Type
  prec            1  100[BANK3 ] unsigned char 
 Return value:  Size  Location     Type
                  4   88[BANK3 ] unsigned char 
 Registers used:
		wreg, status,2, status,0, tblptrl, tblptrh, tblptru, prodl, prodh, cstack
 Tracked objects:
		On entry : 
		On exit  : 
		Unchanged: 
 Data sizes:     COMRAM   BANK0   BANK1   BANK2   BANK3   BANK4   BANK5   BANK6   BANK7   BANK8   BANK9  BANK10  BANK11  BANK12  BANK13
      Params:         0       0       0       0       4       0       0       0       0       0       0       0       0       0       0
      Locals:         0       0       0       0       9       0       0       0       0       0       0       0       0       0       0
      Temps:          0       0       0       0       0       0       0       0       0       0       0       0       0       0       0
      Totals:         0       0       0       0      13       0       0       0       0       0       0       0       0       0       0
Total ram usage:       13 bytes
 Hardware stack levels used:    1
 Hardware stack levels required when called:   20
 This function calls:
		___awdiv
		___awmod
		___flmul
 This function is called by:
		__doprnt
 This function uses a non-reentrant model


 *************** function ___flmul *****************
 Defined at:
		line 8 in file "C:\Program Files (x86)\Microchip\xc8\v1.45\sources\common\sprcmul.c"
 Parameters:    Size  Location     Type
  b               4   63[BANK3 ] unsigned char 
  a               4   67[BANK3 ] unsigned char 
 Auto vars:     Size  Location     Type
  prod            4   82[BANK3 ] struct .
  grs             4   77[BANK3 ] unsigned long 
  temp            2   86[BANK3 ] struct .
  bexp            1   81[BANK3 ] unsigned char 
  aexp            1   76[BANK3 ] unsigned char 
  sign            1   75[BANK3 ] unsigned char 
 Return value:  Size  Location     Type
                  4   63[BANK3 ] unsigned char 
 Registers used:
		wreg, status,2, status,0, prodl, prodh
 Tracked objects:
		On entry : 
		On exit  : 
		Unchanged: 
 Data sizes:     COMRAM   BANK0   BANK1   BANK2   BANK3   BANK4   BANK5   BANK6   BANK7   BANK8   BANK9  BANK10  BANK11  BANK12  BANK13
      Params:         0       0       0       0       8       0       0       0       0       0       0       0       0       0       0
      Locals:         0       0       0       0      13       0       0       0       0       0       0       0       0       0       0
      Temps:          0       0       0       0       4       0       0       0       0       0       0       0       0       0       0
      Totals:         0       0       0       0      25       0       0       0       0       0       0       0       0       0       0
Total ram usage:       25 bytes
 Hardware stack levels used:    1
 Hardware stack levels required when called:   19
 This function calls:
		Nothing
 This function is called by:
		_OLED_updateCallback
		_ringBufferLUT
		_fround
		_scale
		__doprnt
		_asin
		_atan
		_eval_poly
		_ftoa
 This function uses a non-reentrant model


 *************** function ___awmod *****************
 Defined at:
		line 8 in file "C:\Program Files (x86)\Microchip\xc8\v1.45\sources\common\awmod.c"
 Parameters:    Size  Location     Type
  dividend        2    0[BANK3 ] int 
  divisor         2    2[BANK3 ] int 
 Auto vars:     Size  Location     Type
  sign            1    5[BANK3 ] unsigned char 
  counter         1    4[BANK3 ] unsigned char 
 Return value:  Size  Location     Type
                  2    0[BANK3 ] int 
 Registers used:
		wreg, status,2, status,0
 Tracked objects:
		On entry : 
		On exit  : 
		Unchanged: 
 Data sizes:     COMRAM   BANK0   BANK1   BANK2   BANK3   BANK4   BANK5   BANK6   BANK7   BANK8   BANK9  BANK10  BANK11  BANK12  BANK13
      Params:         0       0       0       0       4       0       0       0       0       0       0       0       0       0       0
      Locals:         0       0       0       0       2       0       0       0       0       0       0       0       0       0       0
      Temps:          0       0       0       0       0       0       0       0       0       0       0       0       0       0       0
      Totals:         0       0       0       0       6       0       0       0       0       0       0       0       0       0       0
Total ram usage:        6 bytes
 Hardware stack levels used:    1
 Hardware stack levels required when called:   19
 This function calls:
		Nothing
 This function is called by:
		_fround
		_scale
		__doprnt
 This function uses a non-reentrant model


 *************** function ___awdiv *****************
 Defined at:
		line 8 in file "C:\Program Files (x86)\Microchip\xc8\v1.45\sources\common\awdiv.c"
 Parameters:    Size  Location     Type
  dividend        2    6[BANK3 ] int 
  divisor         2    8[BANK3 ] int 
 Auto vars:     Size  Location     Type
  quotient        2   12[BANK3 ] int 
  sign            1   11[BANK3 ] unsigned char 
  counter         1   10[BANK3 ] unsigned char 
 Return value:  Size  Location     Type
                  2    6[BANK3 ] int 
 Registers used:
		wreg, status,2, status,0
 Tracked objects:
		On entry : 
		On exit  : 
		Unchanged: 
 Data sizes:     COMRAM   BANK0   BANK1   BANK2   BANK3   BANK4   BANK5   BANK6   BANK7   BANK8   BANK9  BANK10  BANK11  BANK12  BANK13
      Params:         0       0       0       0       4       0       0       0       0       0       0       0       0       0       0
      Locals:         0       0       0       0       4       0       0       0       0       0       0       0       0       0       0
      Temps:          0       0       0       0       0       0       0       0       0       0       0       0       0       0       0
      Totals:         0       0       0       0       8       0       0       0       0       0       0       0       0       0       0
Total ram usage:        8 bytes
 Hardware stack levels used:    1
 Hardware stack levels required when called:   19
 This function calls:
		Nothing
 This function is called by:
		_fround
		_scale
		__doprnt
 This function uses a non-reentrant model


 *************** function __tdiv_to_l_ *****************
 Defined at:
		line 60 in file "C:\Program Files (x86)\Microchip\xc8\v1.45\sources\common\ftdivl.c"
 Parameters:    Size  Location     Type
  f1              3    0[BANK3 ] float 
  f2              3    3[BANK3 ] float 
 Auto vars:     Size  Location     Type
  quot            4    9[BANK3 ] unsigned long 
  exp1            1   14[BANK3 ] unsigned char 
  cntr            1   13[BANK3 ] unsigned char 
 Return value:  Size  Location     Type
                  4    0[BANK3 ] unsigned long 
 Registers used:
		wreg, status,2, status,0
 Tracked objects:
		On entry : 
		On exit  : 
		Unchanged: 
 Data sizes:     COMRAM   BANK0   BANK1   BANK2   BANK3   BANK4   BANK5   BANK6   BANK7   BANK8   BANK9  BANK10  BANK11  BANK12  BANK13
      Params:         0       0       0       0       6       0       0       0       0       0       0       0       0       0       0
      Locals:         0       0       0       0       6       0       0       0       0       0       0       0       0       0       0
      Temps:          0       0       0       0       3       0       0       0       0       0       0       0       0       0       0
      Totals:         0       0       0       0      15       0       0       0       0       0       0       0       0       0       0
Total ram usage:       15 bytes
 Hardware stack levels used:    1
 Hardware stack levels required when called:   19
 This function calls:
		Nothing
 This function is called by:
		__doprnt
 This function uses a non-reentrant model


 *************** function __div_to_l_ *****************
 Defined at:
		line 60 in file "C:\Program Files (x86)\Microchip\xc8\v1.45\sources\common\fldivl.c"
 Parameters:    Size  Location     Type
  f1              4    0[BANK3 ] unsigned long 
  f2              4    4[BANK3 ] unsigned long 
 Auto vars:     Size  Location     Type
  quot            4    8[BANK3 ] unsigned long 
  exp1            1   13[BANK3 ] unsigned char 
  cntr            1   12[BANK3 ] unsigned char 
 Return value:  Size  Location     Type
                  4    0[BANK3 ] unsigned long 
 Registers used:
		wreg, status,2, status,0
 Tracked objects:
		On entry : 
		On exit  : 
		Unchanged: 
 Data sizes:     COMRAM   BANK0   BANK1   BANK2   BANK3   BANK4   BANK5   BANK6   BANK7   BANK8   BANK9  BANK10  BANK11  BANK12  BANK13
      Params:         0       0       0       0       8       0       0       0       0       0       0       0       0       0       0
      Locals:         0       0       0       0       6       0       0       0       0       0       0       0       0       0       0
      Temps:          0       0       0       0       0       0       0       0       0       0       0       0       0       0       0
      Totals:         0       0       0       0      14       0       0       0       0       0       0       0       0       0       0
Total ram usage:       14 bytes
 Hardware stack levels used:    1
 Hardware stack levels required when called:   19
 This function calls:
		Nothing
 This function is called by:
		__doprnt
 This function uses a non-reentrant model


 *************** function ___xxtofl *****************
 Defined at:
		line 10 in file "C:\Program Files (x86)\Microchip\xc8\v1.45\sources\common\xxtofl.c"
 Parameters:    Size  Location     Type
  sign            1    wreg     unsigned char 
  val             4    0[BANK3 ] long 
 Auto vars:     Size  Location     Type
  sign            1    8[BANK3 ] unsigned char 
  arg             4   10[BANK3 ] unsigned long 
  exp             1    9[BANK3 ] unsigned char 
 Return value:  Size  Location     Type
                  4    0[BANK3 ] unsigned char 
 Registers used:
		wreg, status,2, status,0
 Tracked objects:
		On entry : 
		On exit  : 
		Unchanged: 
 Data sizes:     COMRAM   BANK0   BANK1   BANK2   BANK3   BANK4   BANK5   BANK6   BANK7   BANK8   BANK9  BANK10  BANK11  BANK12  BANK13
      Params:         0       0       0       0       4       0       0       0       0       0       0       0       0       0       0
      Locals:         0       0       0       0       6       0       0       0       0       0       0       0       0       0       0
      Temps:          0       0       0       0       4       0       0       0       0       0       0       0       0       0       0
      Totals:         0       0       0       0      14       0       0       0       0       0       0       0       0       0       0
Total ram usage:       14 bytes
 Hardware stack levels used:    1
 Hardware stack levels required when called:   19
 This function calls:
		Nothing
 This function is called by:
		_ringBufferLUT
		__doprnt
		_trunc
 This function uses a non-reentrant model


 *************** function ___wmul *****************
 Defined at:
		line 15 in file "C:\Program Files (x86)\Microchip\xc8\v1.45\sources\common\Umul16.c"
 Parameters:    Size  Location     Type
  multiplier      2  180[BANK3 ] unsigned int 
  multiplicand    2  182[BANK3 ] unsigned int 
 Auto vars:     Size  Location     Type
  product         2  184[BANK3 ] unsigned int 
 Return value:  Size  Location     Type
                  2  180[BANK3 ] unsigned int 
 Registers used:
		wreg, status,2, status,0, prodl, prodh
 Tracked objects:
		On entry : 
		On exit  : 
		Unchanged: 
 Data sizes:     COMRAM   BANK0   BANK1   BANK2   BANK3   BANK4   BANK5   BANK6   BANK7   BANK8   BANK9  BANK10  BANK11  BANK12  BANK13
      Params:         0       0       0       0       4       0       0       0       0       0       0       0       0       0       0
      Locals:         0       0       0       0       2       0       0       0       0       0       0       0       0       0       0
      Temps:          0       0       0       0       0       0       0       0       0       0       0       0       0       0       0
      Totals:         0       0       0       0       6       0       0       0       0       0       0       0       0       0       0
Total ram usage:        6 bytes
 Hardware stack levels used:    1
 Hardware stack levels required when called:   19
 This function calls:
		Nothing
 This function is called by:
		_ringBufferLUT
		__doprnt
		_atoi
 This function uses a non-reentrant model


 *************** function ___llmod *****************
 Defined at:
		line 8 in file "C:\Program Files (x86)\Microchip\xc8\v1.45\sources\common\llmod.c"
 Parameters:    Size  Location     Type
  dividend        4   13[BANK3 ] unsigned long 
  divisor         4   17[BANK3 ] unsigned long 
 Auto vars:     Size  Location     Type
  counter         1   21[BANK3 ] unsigned char 
 Return value:  Size  Location     Type
                  4   13[BANK3 ] unsigned long 
 Registers used:
		wreg, status,2, status,0
 Tracked objects:
		On entry : 
		On exit  : 
		Unchanged: 
 Data sizes:     COMRAM   BANK0   BANK1   BANK2   BANK3   BANK4   BANK5   BANK6   BANK7   BANK8   BANK9  BANK10  BANK11  BANK12  BANK13
      Params:         0       0       0       0       8       0       0       0       0       0       0       0       0       0       0
      Locals:         0       0       0       0       1       0       0       0       0       0       0       0       0       0       0
      Temps:          0       0       0       0       0       0       0       0       0       0       0       0       0       0       0
      Totals:         0       0       0       0       9       0       0       0       0       0       0       0       0       0       0
Total ram usage:        9 bytes
 Hardware stack levels used:    1
 Hardware stack levels required when called:   19
 This function calls:
		Nothing
 This function is called by:
		__doprnt
 This function uses a non-reentrant model


 *************** function ___lldiv *****************
 Defined at:
		line 8 in file "C:\Program Files (x86)\Microchip\xc8\v1.45\sources\common\lldiv.c"
 Parameters:    Size  Location     Type
  dividend        4    0[BANK3 ] unsigned long 
  divisor         4    4[BANK3 ] unsigned long 
 Auto vars:     Size  Location     Type
  quotient        4    8[BANK3 ] unsigned long 
  counter         1   12[BANK3 ] unsigned char 
 Return value:  Size  Location     Type
                  4    0[BANK3 ] unsigned long 
 Registers used:
		wreg, status,2, status,0
 Tracked objects:
		On entry : 
		On exit  : 
		Unchanged: 
 Data sizes:     COMRAM   BANK0   BANK1   BANK2   BANK3   BANK4   BANK5   BANK6   BANK7   BANK8   BANK9  BANK10  BANK11  BANK12  BANK13
      Params:         0       0       0       0       8       0       0       0       0       0       0       0       0       0       0
      Locals:         0       0       0       0       5       0       0       0       0       0       0       0       0       0       0
      Temps:          0       0       0       0       0       0       0       0       0       0       0       0       0       0       0
      Totals:         0       0       0       0      13       0       0       0       0       0       0       0       0       0       0
Total ram usage:       13 bytes
 Hardware stack levels used:    1
 Hardware stack levels required when called:   19
 This function calls:
		Nothing
 This function is called by:
		__doprnt
 This function uses a non-reentrant model


 *************** function ___fltol *****************
 Defined at:
		line 43 in file "C:\Program Files (x86)\Microchip\xc8\v1.45\sources\common\fltol.c"
 Parameters:    Size  Location     Type
  f1              4   97[BANK3 ] unsigned long 
 Auto vars:     Size  Location     Type
  exp1            1  106[BANK3 ] unsigned char 
  sign1           1  105[BANK3 ] unsigned char 
 Return value:  Size  Location     Type
                  4   97[BANK3 ] long 
 Registers used:
		wreg, status,2, status,0
 Tracked objects:
		On entry : 
		On exit  : 
		Unchanged: 
 Data sizes:     COMRAM   BANK0   BANK1   BANK2   BANK3   BANK4   BANK5   BANK6   BANK7   BANK8   BANK9  BANK10  BANK11  BANK12  BANK13
      Params:         0       0       0       0       4       0       0       0       0       0       0       0       0       0       0
      Locals:         0       0       0       0       2       0       0       0       0       0       0       0       0       0       0
      Temps:          0       0       0       0       4       0       0       0       0       0       0       0       0       0       0
      Totals:         0       0       0       0      10       0       0       0       0       0       0       0       0       0       0
Total ram usage:       10 bytes
 Hardware stack levels used:    1
 Hardware stack levels required when called:   19
 This function calls:
		Nothing
 This function is called by:
		_ringBufferLUT
		__doprnt
		_trunc
		_ftoa
 This function uses a non-reentrant model


 *************** function ___flsub *****************
 Defined at:
		line 245 in file "C:\Program Files (x86)\Microchip\xc8\v1.45\sources\common\sprcadd.c"
 Parameters:    Size  Location     Type
  b               4   38[BANK3 ] long 
  a               4   42[BANK3 ] long 
 Auto vars:     Size  Location     Type
		None
 Return value:  Size  Location     Type
                  4   38[BANK3 ] long 
 Registers used:
		wreg, status,2, status,0, cstack
 Tracked objects:
		On entry : 
		On exit  : 
		Unchanged: 
 Data sizes:     COMRAM   BANK0   BANK1   BANK2   BANK3   BANK4   BANK5   BANK6   BANK7   BANK8   BANK9  BANK10  BANK11  BANK12  BANK13
      Params:         0       0       0       0       8       0       0       0       0       0       0       0       0       0       0
      Locals:         0       0       0       0       0       0       0       0       0       0       0       0       0       0       0
      Temps:          0       0       0       0       0       0       0       0       0       0       0       0       0       0       0
      Totals:         0       0       0       0       8       0       0       0       0       0       0       0       0       0       0
Total ram usage:        8 bytes
 Hardware stack levels used:    1
 Hardware stack levels required when called:   20
 This function calls:
		___fladd
 This function is called by:
		__doprnt
 This function uses a non-reentrant model


 *************** function ___fladd *****************
 Defined at:
		line 10 in file "C:\Program Files (x86)\Microchip\xc8\v1.45\sources\common\sprcadd.c"
 Parameters:    Size  Location     Type
  b               4   18[BANK3 ] long 
  a               4   22[BANK3 ] long 
 Auto vars:     Size  Location     Type
  grs             1   37[BANK3 ] unsigned char 
  bexp            1   36[BANK3 ] unsigned char 
  aexp            1   35[BANK3 ] unsigned char 
  signs           1   34[BANK3 ] unsigned char 
 Return value:  Size  Location     Type
                  4   18[BANK3 ] unsigned char 
 Registers used:
		wreg, status,2, status,0
 Tracked objects:
		On entry : 
		On exit  : 
		Unchanged: 
 Data sizes:     COMRAM   BANK0   BANK1   BANK2   BANK3   BANK4   BANK5   BANK6   BANK7   BANK8   BANK9  BANK10  BANK11  BANK12  BANK13
      Params:         0       0       0       0       8       0       0       0       0       0       0       0       0       0       0
      Locals:         0       0       0       0       4       0       0       0       0       0       0       0       0       0       0
      Temps:          0       0       0       0       8       0       0       0       0       0       0       0       0       0       0
      Totals:         0       0       0       0      20       0       0       0       0       0       0       0       0       0       0
Total ram usage:       20 bytes
 Hardware stack levels used:    1
 Hardware stack levels required when called:   19
 This function calls:
		Nothing
 This function is called by:
		_ringBufferLUT
		__doprnt
		_acos
		_asin
		_atan
		_eval_poly
		_round
		___flsub
 This function uses a non-reentrant model


 *************** function ___flneg *****************
 Defined at:
		line 15 in file "C:\Program Files (x86)\Microchip\xc8\v1.45\sources\common\flneg.c"
 Parameters:    Size  Location     Type
  f1              4   14[BANK3 ] unsigned char 
 Auto vars:     Size  Location     Type
		None
 Return value:  Size  Location     Type
                  4   14[BANK3 ] unsigned char 
 Registers used:
		wreg, status,2, status,0
 Tracked objects:
		On entry : 
		On exit  : 
		Unchanged: 
 Data sizes:     COMRAM   BANK0   BANK1   BANK2   BANK3   BANK4   BANK5   BANK6   BANK7   BANK8   BANK9  BANK10  BANK11  BANK12  BANK13
      Params:         0       0       0       0       4       0       0       0       0       0       0       0       0       0       0
      Locals:         0       0       0       0       0       0       0       0       0       0       0       0       0       0       0
      Temps:          0       0       0       0       0       0       0       0       0       0       0       0       0       0       0
      Totals:         0       0       0       0       4       0       0       0       0       0       0       0       0       0       0
Total ram usage:        4 bytes
 Hardware stack levels used:    1
 Hardware stack levels required when called:   19
 This function calls:
		Nothing
 This function is called by:
		_ringBufferLUT
		__doprnt
		_acos
		_asin
		_atan
		_fabs
		_round
 This function uses a non-reentrant model


 *************** function ___fldiv *****************
 Defined at:
		line 11 in file "C:\Program Files (x86)\Microchip\xc8\v1.45\sources\common\sprcdiv.c"
 Parameters:    Size  Location     Type
  b               4   38[BANK3 ] unsigned char 
  a               4   42[BANK3 ] unsigned char 
 Auto vars:     Size  Location     Type
  grs             4   57[BANK3 ] unsigned long 
  rem             4   51[BANK3 ] unsigned long 
  new_exp         2   55[BANK3 ] int 
  aexp            1   62[BANK3 ] unsigned char 
  bexp            1   61[BANK3 ] unsigned char 
  sign            1   50[BANK3 ] unsigned char 
 Return value:  Size  Location     Type
                  4   38[BANK3 ] unsigned char 
 Registers used:
		wreg, status,2, status,0
 Tracked objects:
		On entry : 
		On exit  : 
		Unchanged: 
 Data sizes:     COMRAM   BANK0   BANK1   BANK2   BANK3   BANK4   BANK5   BANK6   BANK7   BANK8   BANK9  BANK10  BANK11  BANK12  BANK13
      Params:         0       0       0       0       8       0       0       0       0       0       0       0       0       0       0
      Locals:         0       0       0       0      13       0       0       0       0       0       0       0       0       0       0
      Temps:          0       0       0       0       4       0       0       0       0       0       0       0       0       0       0
      Totals:         0       0       0       0      25       0       0       0       0       0       0       0       0       0       0
Total ram usage:       25 bytes
 Hardware stack levels used:    1
 Hardware stack levels required when called:   19
 This function calls:
		Nothing
 This function is called by:
		_OLED_updateCallback
		_ringBufferLUT
		__doprnt
		_asin
		_atan
 This function uses a non-reentrant model


 *************** function _saveSRAMMaxToEEPROM *****************
 Defined at:
		line 160 in file "main.c"
 Parameters:    Size  Location     Type
		None
 Auto vars:     Size  Location     Type
		None
 Return value:  Size  Location     Type
                  1    wreg      void 
 Registers used:
		wreg, fsr2l, fsr2h, status,2, status,0, tblptrl, tblptrh, tblptru, cstack
 Tracked objects:
		On entry : 
		On exit  : 
		Unchanged: 
 Data sizes:     COMRAM   BANK0   BANK1   BANK2   BANK3   BANK4   BANK5   BANK6   BANK7   BANK8   BANK9  BANK10  BANK11  BANK12  BANK13
      Params:         0       0       0       0       0       0       0       0       0       0       0       0       0       0       0
      Locals:         0       0       0       0       0       0       0       0       0       0       0       0       0       0       0
      Temps:          0       0       0       0       0       0       0       0       0       0       0       0       0       0       0
      Totals:         0       0       0       0       0       0       0       0       0       0       0       0       0       0       0
Total ram usage:        0 bytes
 Hardware stack levels used:    1
 Hardware stack levels required when called:   21
 This function calls:
		___flge
		_writeDoubleToEEPROM
 This function is called by:
		_main
 This function uses a non-reentrant model


 *************** function _writeDoubleToEEPROM *****************
 Defined at:
		line 6 in file "double_to_EEPROM.c"
 Parameters:    Size  Location     Type
  input_double    4    4[BANK3 ] void 
  starting_add    2    8[BANK3 ] unsigned int 
 Auto vars:     Size  Location     Type
  byte_index      2   14[BANK3 ] int 
  input_data      4   10[BANK3 ] struct .
 Return value:  Size  Location     Type
                  1    wreg      void 
 Registers used:
		wreg, fsr2l, fsr2h, status,2, status,0, cstack
 Tracked objects:
		On entry : 
		On exit  : 
		Unchanged: 
 Data sizes:     COMRAM   BANK0   BANK1   BANK2   BANK3   BANK4   BANK5   BANK6   BANK7   BANK8   BANK9  BANK10  BANK11  BANK12  BANK13
      Params:         0       0       0       0       6       0       0       0       0       0       0       0       0       0       0
      Locals:         0       0       0       0       6       0       0       0       0       0       0       0       0       0       0
      Temps:          0       0       0       0       0       0       0       0       0       0       0       0       0       0       0
      Totals:         0       0       0       0      12       0       0       0       0       0       0       0       0       0       0
Total ram usage:       12 bytes
 Hardware stack levels used:    1
 Hardware stack levels required when called:   20
 This function calls:
		_DATAEE_WriteByte
 This function is called by:
		_saveSRAMMaxToEEPROM
		_ringBufferLUT
 This function uses a non-reentrant model


 *************** function _DATAEE_WriteByte *****************
 Defined at:
		line 168 in file "mcc_generated_files/memory.c"
 Parameters:    Size  Location     Type
  bAdd            2    0[BANK3 ] unsigned int 
  bData           1    2[BANK3 ] unsigned char 
 Auto vars:     Size  Location     Type
  GIEBitValue     1    3[BANK3 ] unsigned char 
 Return value:  Size  Location     Type
                  1    wreg      void 
 Registers used:
		wreg, status,2, status,0
 Tracked objects:
		On entry : 
		On exit  : 
		Unchanged: 
 Data sizes:     COMRAM   BANK0   BANK1   BANK2   BANK3   BANK4   BANK5   BANK6   BANK7   BANK8   BANK9  BANK10  BANK11  BANK12  BANK13
      Params:         0       0       0       0       3       0       0       0       0       0       0       0       0       0       0
      Locals:         0       0       0       0       1       0       0       0       0       0       0       0       0       0       0
      Temps:          0       0       0       0       0       0       0       0       0       0       0       0       0       0       0
      Totals:         0       0       0       0       4       0       0       0       0       0       0       0       0       0       0
Total ram usage:        4 bytes
 Hardware stack levels used:    1
 Hardware stack levels required when called:   19
 This function calls:
		Nothing
 This function is called by:
		_writeDoubleToEEPROM
 This function uses a non-reentrant model


 *************** function ___flge *****************
 Defined at:
		line 4 in file "C:\Program Files (x86)\Microchip\xc8\v1.45\sources\common\flge.c"
 Parameters:    Size  Location     Type
  ff1             4  107[BANK3 ] void 
  ff2             4  111[BANK3 ] void 
 Auto vars:     Size  Location     Type
		None
 Return value:  Size  Location     Type
		None               void
 Registers used:
		wreg, status,2, status,0
 Tracked objects:
		On entry : 
		On exit  : 
		Unchanged: 
 Data sizes:     COMRAM   BANK0   BANK1   BANK2   BANK3   BANK4   BANK5   BANK6   BANK7   BANK8   BANK9  BANK10  BANK11  BANK12  BANK13
      Params:         0       0       0       0       8       0       0       0       0       0       0       0       0       0       0
      Locals:         0       0       0       0       0       0       0       0       0       0       0       0       0       0       0
      Temps:          0       0       0       0       4       0       0       0       0       0       0       0       0       0       0
      Totals:         0       0       0       0      12       0       0       0       0       0       0       0       0       0       0
Total ram usage:       12 bytes
 Hardware stack levels used:    1
 Hardware stack levels required when called:   19
 This function calls:
		Nothing
 This function is called by:
		_saveSRAMMaxToEEPROM
		_OLED_updateCallback
		_ringBufferLUT
		__doprnt
		_asin
		_atan
 This function uses a non-reentrant model


 *************** function _recoverSRAMMaxFromEEPROM *****************
 Defined at:
		line 197 in file "main.c"
 Parameters:    Size  Location     Type
		None
 Auto vars:     Size  Location     Type
		None
 Return value:  Size  Location     Type
                  1    wreg      void 
 Registers used:
		wreg, fsr2l, fsr2h, status,2, status,0, tblptrl, tblptrh, tblptru, cstack
 Tracked objects:
		On entry : 
		On exit  : 
		Unchanged: 
 Data sizes:     COMRAM   BANK0   BANK1   BANK2   BANK3   BANK4   BANK5   BANK6   BANK7   BANK8   BANK9  BANK10  BANK11  BANK12  BANK13
      Params:         0       0       0       0       0       0       0       0       0       0       0       0       0       0       0
      Locals:         0       0       0       0       0       0       0       0       0       0       0       0       0       0       0
      Temps:          0       0       0       0       0       0       0       0       0       0       0       0       0       0       0
      Totals:         0       0       0       0       0       0       0       0       0       0       0       0       0       0       0
Total ram usage:        0 bytes
 Hardware stack levels used:    1
 Hardware stack levels required when called:   21
 This function calls:
		_readDoubleFromEEPROM
 This function is called by:
		_main
 This function uses a non-reentrant model


 *************** function _readDoubleFromEEPROM *****************
 Defined at:
		line 22 in file "double_to_EEPROM.c"
 Parameters:    Size  Location     Type
  starting_add    2    2[BANK3 ] unsigned int 
 Auto vars:     Size  Location     Type
  byte_index      2   10[BANK3 ] int 
  output_data     4    6[BANK3 ] struct .
 Return value:  Size  Location     Type
                  4    2[BANK3 ] struct .
 Registers used:
		wreg, fsr2l, fsr2h, status,2, status,0, cstack
 Tracked objects:
		On entry : 
		On exit  : 
		Unchanged: 
 Data sizes:     COMRAM   BANK0   BANK1   BANK2   BANK3   BANK4   BANK5   BANK6   BANK7   BANK8   BANK9  BANK10  BANK11  BANK12  BANK13
      Params:         0       0       0       0       4       0       0       0       0       0       0       0       0       0       0
      Locals:         0       0       0       0       6       0       0       0       0       0       0       0       0       0       0
      Temps:          0       0       0       0       0       0       0       0       0       0       0       0       0       0       0
      Totals:         0       0       0       0      10       0       0       0       0       0       0       0       0       0       0
Total ram usage:       10 bytes
 Hardware stack levels used:    1
 Hardware stack levels required when called:   20
 This function calls:
		_DATAEE_ReadByte
 This function is called by:
		_recoverSRAMMaxFromEEPROM
		_ringBufferLUT
 This function uses a non-reentrant model


 *************** function _DATAEE_ReadByte *****************
 Defined at:
		line 190 in file "mcc_generated_files/memory.c"
 Parameters:    Size  Location     Type
  bAdd            2    0[BANK3 ] unsigned int 
 Auto vars:     Size  Location     Type
		None
 Return value:  Size  Location     Type
                  1    wreg      unsigned char 
 Registers used:
		wreg, status,2, status,0
 Tracked objects:
		On entry : 
		On exit  : 
		Unchanged: 
 Data sizes:     COMRAM   BANK0   BANK1   BANK2   BANK3   BANK4   BANK5   BANK6   BANK7   BANK8   BANK9  BANK10  BANK11  BANK12  BANK13
      Params:         0       0       0       0       2       0       0       0       0       0       0       0       0       0       0
      Locals:         0       0       0       0       0       0       0       0       0       0       0       0       0       0       0
      Temps:          0       0       0       0       0       0       0       0       0       0       0       0       0       0       0
      Totals:         0       0       0       0       2       0       0       0       0       0       0       0       0       0       0
Total ram usage:        2 bytes
 Hardware stack levels used:    1
 Hardware stack levels required when called:   19
 This function calls:
		Nothing
 This function is called by:
		_readDoubleFromEEPROM
 This function uses a non-reentrant model


 *************** function _getCauseOfReset *****************
 Defined at:
		line 11 in file "cause_of_reset.c"
 Parameters:    Size  Location     Type
		None
 Auto vars:     Size  Location     Type
  return_reset    1    0[BANK3 ] enum E17455
 Return value:  Size  Location     Type
                  1    wreg      enum E18205
 Registers used:
		wreg, status,2
 Tracked objects:
		On entry : 
		On exit  : 
		Unchanged: 
 Data sizes:     COMRAM   BANK0   BANK1   BANK2   BANK3   BANK4   BANK5   BANK6   BANK7   BANK8   BANK9  BANK10  BANK11  BANK12  BANK13
      Params:         0       0       0       0       0       0       0       0       0       0       0       0       0       0       0
      Locals:         0       0       0       0       1       0       0       0       0       0       0       0       0       0       0
      Temps:          0       0       0       0       0       0       0       0       0       0       0       0       0       0       0
      Totals:         0       0       0       0       1       0       0       0       0       0       0       0       0       0       0
Total ram usage:        1 bytes
 Hardware stack levels used:    1
 Hardware stack levels required when called:   19
 This function calls:
		Nothing
 This function is called by:
		_main
 This function uses a non-reentrant model


 *************** function _SYSTEM_Initialize *****************
 Defined at:
		line 50 in file "mcc_generated_files/mcc.c"
 Parameters:    Size  Location     Type
		None
 Auto vars:     Size  Location     Type
		None
 Return value:  Size  Location     Type
                  1    wreg      void 
 Registers used:
		wreg, status,2, status,0, cstack
 Tracked objects:
		On entry : 
		On exit  : 
		Unchanged: 
 Data sizes:     COMRAM   BANK0   BANK1   BANK2   BANK3   BANK4   BANK5   BANK6   BANK7   BANK8   BANK9  BANK10  BANK11  BANK12  BANK13
      Params:         0       0       0       0       0       0       0       0       0       0       0       0       0       0       0
      Locals:         0       0       0       0       0       0       0       0       0       0       0       0       0       0       0
      Temps:          0       0       0       0       0       0       0       0       0       0       0       0       0       0       0
      Totals:         0       0       0       0       0       0       0       0       0       0       0       0       0       0       0
Total ram usage:        0 bytes
 Hardware stack levels used:    1
 Hardware stack levels required when called:   21
 This function calls:
		_ADCC_Initialize
		_EUSART2_Initialize
		_EXT_INT_Initialize
		_FVR_Initialize
		_HLVD_Initialize
		_I2C1_Initialize
		_INTERRUPT_Initialize
		_OSCILLATOR_Initialize
		_PIN_MANAGER_Initialize
		_PMD_Initialize
		_TMR2_Initialize
		_TMR4_Initialize
		_TMR5_Initialize
		_TMR6_Initialize
		_TMR7_Initialize
 This function is called by:
		_main
 This function uses a non-reentrant model


 *************** function _TMR7_Initialize *****************
 Defined at:
		line 64 in file "mcc_generated_files/tmr7.c"
 Parameters:    Size  Location     Type
		None
 Auto vars:     Size  Location     Type
		None
 Return value:  Size  Location     Type
                  1    wreg      void 
 Registers used:
		wreg, status,2, status,0, cstack
 Tracked objects:
		On entry : 
		On exit  : 
		Unchanged: 
 Data sizes:     COMRAM   BANK0   BANK1   BANK2   BANK3   BANK4   BANK5   BANK6   BANK7   BANK8   BANK9  BANK10  BANK11  BANK12  BANK13
      Params:         0       0       0       0       0       0       0       0       0       0       0       0       0       0       0
      Locals:         0       0       0       0       0       0       0       0       0       0       0       0       0       0       0
      Temps:          0       0       0       0       2       0       0       0       0       0       0       0       0       0       0
      Totals:         0       0       0       0       2       0       0       0       0       0       0       0       0       0       0
Total ram usage:        2 bytes
 Hardware stack levels used:    1
 Hardware stack levels required when called:   20
 This function calls:
		_TMR7_SetInterruptHandler
 This function is called by:
		_SYSTEM_Initialize
 This function uses a non-reentrant model


 *************** function _TMR7_SetInterruptHandler *****************
 Defined at:
		line 178 in file "mcc_generated_files/tmr7.c"
 Parameters:    Size  Location     Type
  InterruptHan    3    0[BANK3 ] PTR FTN()void 
		 -> acquisitionTimerCallback(1), TMR7_DefaultInterruptHandler(1), 
 Auto vars:     Size  Location     Type
		None
 Return value:  Size  Location     Type
                  1    wreg      void 
 Registers used:
		wreg, status,2, status,0
 Tracked objects:
		On entry : 
		On exit  : 
		Unchanged: 
 Data sizes:     COMRAM   BANK0   BANK1   BANK2   BANK3   BANK4   BANK5   BANK6   BANK7   BANK8   BANK9  BANK10  BANK11  BANK12  BANK13
      Params:         0       0       0       0       3       0       0       0       0       0       0       0       0       0       0
      Locals:         0       0       0       0       0       0       0       0       0       0       0       0       0       0       0
      Temps:          0       0       0       0       0       0       0       0       0       0       0       0       0       0       0
      Totals:         0       0       0       0       3       0       0       0       0       0       0       0       0       0       0
Total ram usage:        3 bytes
 Hardware stack levels used:    1
 Hardware stack levels required when called:   19
 This function calls:
		Nothing
 This function is called by:
		_TMR7_Initialize
		_main
 This function uses a non-reentrant model


 *************** function _TMR6_Initialize *****************
 Defined at:
		line 64 in file "mcc_generated_files/tmr6.c"
 Parameters:    Size  Location     Type
		None
 Auto vars:     Size  Location     Type
		None
 Return value:  Size  Location     Type
                  1    wreg      void 
 Registers used:
		wreg, status,2, status,0, cstack
 Tracked objects:
		On entry : 
		On exit  : 
		Unchanged: 
 Data sizes:     COMRAM   BANK0   BANK1   BANK2   BANK3   BANK4   BANK5   BANK6   BANK7   BANK8   BANK9  BANK10  BANK11  BANK12  BANK13
      Params:         0       0       0       0       0       0       0       0       0       0       0       0       0       0       0
      Locals:         0       0       0       0       0       0       0       0       0       0       0       0       0       0       0
      Temps:          0       0       0       0       0       0       0       0       0       0       0       0       0       0       0
      Totals:         0       0       0       0       0       0       0       0       0       0       0       0       0       0       0
Total ram usage:        0 bytes
 Hardware stack levels used:    1
 Hardware stack levels required when called:   20
 This function calls:
		_TMR6_SetInterruptHandler
 This function is called by:
		_SYSTEM_Initialize
 This function uses a non-reentrant model


 *************** function _TMR6_SetInterruptHandler *****************
 Defined at:
		line 178 in file "mcc_generated_files/tmr6.c"
 Parameters:    Size  Location     Type
  InterruptHan    3    0[BANK3 ] PTR FTN()void 
		 -> heartbeatTimerCallback(1), TMR6_DefaultInterruptHandler(1), 
 Auto vars:     Size  Location     Type
		None
 Return value:  Size  Location     Type
                  1    wreg      void 
 Registers used:
		wreg, status,2, status,0
 Tracked objects:
		On entry : 
		On exit  : 
		Unchanged: 
 Data sizes:     COMRAM   BANK0   BANK1   BANK2   BANK3   BANK4   BANK5   BANK6   BANK7   BANK8   BANK9  BANK10  BANK11  BANK12  BANK13
      Params:         0       0       0       0       3       0       0       0       0       0       0       0       0       0       0
      Locals:         0       0       0       0       0       0       0       0       0       0       0       0       0       0       0
      Temps:          0       0       0       0       0       0       0       0       0       0       0       0       0       0       0
      Totals:         0       0       0       0       3       0       0       0       0       0       0       0       0       0       0
Total ram usage:        3 bytes
 Hardware stack levels used:    1
 Hardware stack levels required when called:   19
 This function calls:
		Nothing
 This function is called by:
		_TMR6_Initialize
		_main
 This function uses a non-reentrant model


 *************** function _TMR5_Initialize *****************
 Defined at:
		line 64 in file "mcc_generated_files/tmr5.c"
 Parameters:    Size  Location     Type
		None
 Auto vars:     Size  Location     Type
		None
 Return value:  Size  Location     Type
                  1    wreg      void 
 Registers used:
		wreg, status,2, status,0, cstack
 Tracked objects:
		On entry : 
		On exit  : 
		Unchanged: 
 Data sizes:     COMRAM   BANK0   BANK1   BANK2   BANK3   BANK4   BANK5   BANK6   BANK7   BANK8   BANK9  BANK10  BANK11  BANK12  BANK13
      Params:         0       0       0       0       0       0       0       0       0       0       0       0       0       0       0
      Locals:         0       0       0       0       0       0       0       0       0       0       0       0       0       0       0
      Temps:          0       0       0       0       2       0       0       0       0       0       0       0       0       0       0
      Totals:         0       0       0       0       2       0       0       0       0       0       0       0       0       0       0
Total ram usage:        2 bytes
 Hardware stack levels used:    1
 Hardware stack levels required when called:   20
 This function calls:
		_TMR5_SetInterruptHandler
 This function is called by:
		_SYSTEM_Initialize
 This function uses a non-reentrant model


 *************** function _TMR5_SetInterruptHandler *****************
 Defined at:
		line 178 in file "mcc_generated_files/tmr5.c"
 Parameters:    Size  Location     Type
  InterruptHan    3    0[BANK3 ] PTR FTN()void 
		 -> dimmingOnTimeCallback(1), TMR5_DefaultInterruptHandler(1), 
 Auto vars:     Size  Location     Type
		None
 Return value:  Size  Location     Type
                  1    wreg      void 
 Registers used:
		wreg, status,2, status,0
 Tracked objects:
		On entry : 
		On exit  : 
		Unchanged: 
 Data sizes:     COMRAM   BANK0   BANK1   BANK2   BANK3   BANK4   BANK5   BANK6   BANK7   BANK8   BANK9  BANK10  BANK11  BANK12  BANK13
      Params:         0       0       0       0       3       0       0       0       0       0       0       0       0       0       0
      Locals:         0       0       0       0       0       0       0       0       0       0       0       0       0       0       0
      Temps:          0       0       0       0       0       0       0       0       0       0       0       0       0       0       0
      Totals:         0       0       0       0       3       0       0       0       0       0       0       0       0       0       0
Total ram usage:        3 bytes
 Hardware stack levels used:    1
 Hardware stack levels required when called:   19
 This function calls:
		Nothing
 This function is called by:
		_TMR5_Initialize
		_main
 This function uses a non-reentrant model


 *************** function _TMR4_Initialize *****************
 Defined at:
		line 64 in file "mcc_generated_files/tmr4.c"
 Parameters:    Size  Location     Type
		None
 Auto vars:     Size  Location     Type
		None
 Return value:  Size  Location     Type
                  1    wreg      void 
 Registers used:
		wreg, status,2, status,0, cstack
 Tracked objects:
		On entry : 
		On exit  : 
		Unchanged: 
 Data sizes:     COMRAM   BANK0   BANK1   BANK2   BANK3   BANK4   BANK5   BANK6   BANK7   BANK8   BANK9  BANK10  BANK11  BANK12  BANK13
      Params:         0       0       0       0       0       0       0       0       0       0       0       0       0       0       0
      Locals:         0       0       0       0       0       0       0       0       0       0       0       0       0       0       0
      Temps:          0       0       0       0       0       0       0       0       0       0       0       0       0       0       0
      Totals:         0       0       0       0       0       0       0       0       0       0       0       0       0       0       0
Total ram usage:        0 bytes
 Hardware stack levels used:    1
 Hardware stack levels required when called:   20
 This function calls:
		_TMR4_SetInterruptHandler
 This function is called by:
		_SYSTEM_Initialize
 This function uses a non-reentrant model


 *************** function _TMR4_SetInterruptHandler *****************
 Defined at:
		line 193 in file "mcc_generated_files/tmr4.c"
 Parameters:    Size  Location     Type
  InterruptHan    3    0[BANK3 ] PTR FTN()void 
		 -> writeEnergyToEEPROMCallback(1), TMR4_DefaultInterruptHandler(1), 
 Auto vars:     Size  Location     Type
		None
 Return value:  Size  Location     Type
                  1    wreg      void 
 Registers used:
		wreg, status,2, status,0
 Tracked objects:
		On entry : 
		On exit  : 
		Unchanged: 
 Data sizes:     COMRAM   BANK0   BANK1   BANK2   BANK3   BANK4   BANK5   BANK6   BANK7   BANK8   BANK9  BANK10  BANK11  BANK12  BANK13
      Params:         0       0       0       0       3       0       0       0       0       0       0       0       0       0       0
      Locals:         0       0       0       0       0       0       0       0       0       0       0       0       0       0       0
      Temps:          0       0       0       0       0       0       0       0       0       0       0       0       0       0       0
      Totals:         0       0       0       0       3       0       0       0       0       0       0       0       0       0       0
Total ram usage:        3 bytes
 Hardware stack levels used:    1
 Hardware stack levels required when called:   19
 This function calls:
		Nothing
 This function is called by:
		_TMR4_Initialize
		_main
 This function uses a non-reentrant model


 *************** function _TMR2_Initialize *****************
 Defined at:
		line 64 in file "mcc_generated_files/tmr2.c"
 Parameters:    Size  Location     Type
		None
 Auto vars:     Size  Location     Type
		None
 Return value:  Size  Location     Type
                  1    wreg      void 
 Registers used:
		wreg, status,2, status,0, cstack
 Tracked objects:
		On entry : 
		On exit  : 
		Unchanged: 
 Data sizes:     COMRAM   BANK0   BANK1   BANK2   BANK3   BANK4   BANK5   BANK6   BANK7   BANK8   BANK9  BANK10  BANK11  BANK12  BANK13
      Params:         0       0       0       0       0       0       0       0       0       0       0       0       0       0       0
      Locals:         0       0       0       0       0       0       0       0       0       0       0       0       0       0       0
      Temps:          0       0       0       0       0       0       0       0       0       0       0       0       0       0       0
      Totals:         0       0       0       0       0       0       0       0       0       0       0       0       0       0       0
Total ram usage:        0 bytes
 Hardware stack levels used:    1
 Hardware stack levels required when called:   20
 This function calls:
		_TMR2_SetInterruptHandler
 This function is called by:
		_SYSTEM_Initialize
 This function uses a non-reentrant model


 *************** function _TMR2_SetInterruptHandler *****************
 Defined at:
		line 192 in file "mcc_generated_files/tmr2.c"
 Parameters:    Size  Location     Type
  InterruptHan    3    0[BANK3 ] PTR FTN()void 
		 -> OLED_updateCallback(1), TMR2_DefaultInterruptHandler(1), 
 Auto vars:     Size  Location     Type
		None
 Return value:  Size  Location     Type
                  1    wreg      void 
 Registers used:
		wreg, status,2, status,0
 Tracked objects:
		On entry : 
		On exit  : 
		Unchanged: 
 Data sizes:     COMRAM   BANK0   BANK1   BANK2   BANK3   BANK4   BANK5   BANK6   BANK7   BANK8   BANK9  BANK10  BANK11  BANK12  BANK13
      Params:         0       0       0       0       3       0       0       0       0       0       0       0       0       0       0
      Locals:         0       0       0       0       0       0       0       0       0       0       0       0       0       0       0
      Temps:          0       0       0       0       0       0       0       0       0       0       0       0       0       0       0
      Totals:         0       0       0       0       3       0       0       0       0       0       0       0       0       0       0
Total ram usage:        3 bytes
 Hardware stack levels used:    1
 Hardware stack levels required when called:   19
 This function calls:
		Nothing
 This function is called by:
		_TMR2_Initialize
		_main
 This function uses a non-reentrant model


 *************** function _PMD_Initialize *****************
 Defined at:
		line 87 in file "mcc_generated_files/mcc.c"
 Parameters:    Size  Location     Type
		None
 Auto vars:     Size  Location     Type
		None
 Return value:  Size  Location     Type
                  1    wreg      void 
 Registers used:
		wreg, status,2
 Tracked objects:
		On entry : 
		On exit  : 
		Unchanged: 
 Data sizes:     COMRAM   BANK0   BANK1   BANK2   BANK3   BANK4   BANK5   BANK6   BANK7   BANK8   BANK9  BANK10  BANK11  BANK12  BANK13
      Params:         0       0       0       0       0       0       0       0       0       0       0       0       0       0       0
      Locals:         0       0       0       0       0       0       0       0       0       0       0       0       0       0       0
      Temps:          0       0       0       0       0       0       0       0       0       0       0       0       0       0       0
      Totals:         0       0       0       0       0       0       0       0       0       0       0       0       0       0       0
Total ram usage:        0 bytes
 Hardware stack levels used:    1
 Hardware stack levels required when called:   19
 This function calls:
		Nothing
 This function is called by:
		_SYSTEM_Initialize
 This function uses a non-reentrant model


 *************** function _PIN_MANAGER_Initialize *****************
 Defined at:
		line 57 in file "mcc_generated_files/pin_manager.c"
 Parameters:    Size  Location     Type
		None
 Auto vars:     Size  Location     Type
		None
 Return value:  Size  Location     Type
                  1    wreg      void 
 Registers used:
		wreg, status,2
 Tracked objects:
		On entry : 
		On exit  : 
		Unchanged: 
 Data sizes:     COMRAM   BANK0   BANK1   BANK2   BANK3   BANK4   BANK5   BANK6   BANK7   BANK8   BANK9  BANK10  BANK11  BANK12  BANK13
      Params:         0       0       0       0       0       0       0       0       0       0       0       0       0       0       0
      Locals:         0       0       0       0       0       0       0       0       0       0       0       0       0       0       0
      Temps:          0       0       0       0       0       0       0       0       0       0       0       0       0       0       0
      Totals:         0       0       0       0       0       0       0       0       0       0       0       0       0       0       0
Total ram usage:        0 bytes
 Hardware stack levels used:    1
 Hardware stack levels required when called:   19
 This function calls:
		Nothing
 This function is called by:
		_SYSTEM_Initialize
 This function uses a non-reentrant model


 *************** function _OSCILLATOR_Initialize *****************
 Defined at:
		line 69 in file "mcc_generated_files/mcc.c"
 Parameters:    Size  Location     Type
		None
 Auto vars:     Size  Location     Type
		None
 Return value:  Size  Location     Type
                  1    wreg      void 
 Registers used:
		wreg, status,2
 Tracked objects:
		On entry : 
		On exit  : 
		Unchanged: 
 Data sizes:     COMRAM   BANK0   BANK1   BANK2   BANK3   BANK4   BANK5   BANK6   BANK7   BANK8   BANK9  BANK10  BANK11  BANK12  BANK13
      Params:         0       0       0       0       0       0       0       0       0       0       0       0       0       0       0
      Locals:         0       0       0       0       0       0       0       0       0       0       0       0       0       0       0
      Temps:          0       0       0       0       0       0       0       0       0       0       0       0       0       0       0
      Totals:         0       0       0       0       0       0       0       0       0       0       0       0       0       0       0
Total ram usage:        0 bytes
 Hardware stack levels used:    1
 Hardware stack levels required when called:   19
 This function calls:
		Nothing
 This function is called by:
		_SYSTEM_Initialize
 This function uses a non-reentrant model


 *************** function _INTERRUPT_Initialize *****************
 Defined at:
		line 52 in file "mcc_generated_files/interrupt_manager.c"
 Parameters:    Size  Location     Type
		None
 Auto vars:     Size  Location     Type
		None
 Return value:  Size  Location     Type
                  1    wreg      void 
 Registers used:
		None
 Tracked objects:
		On entry : 
		On exit  : 
		Unchanged: 
 Data sizes:     COMRAM   BANK0   BANK1   BANK2   BANK3   BANK4   BANK5   BANK6   BANK7   BANK8   BANK9  BANK10  BANK11  BANK12  BANK13
      Params:         0       0       0       0       0       0       0       0       0       0       0       0       0       0       0
      Locals:         0       0       0       0       0       0       0       0       0       0       0       0       0       0       0
      Temps:          0       0       0       0       0       0       0       0       0       0       0       0       0       0       0
      Totals:         0       0       0       0       0       0       0       0       0       0       0       0       0       0       0
Total ram usage:        0 bytes
 Hardware stack levels used:    1
 Hardware stack levels required when called:   19
 This function calls:
		Nothing
 This function is called by:
		_SYSTEM_Initialize
 This function uses a non-reentrant model


 *************** function _I2C1_Initialize *****************
 Defined at:
		line 198 in file "mcc_generated_files/i2c1.c"
 Parameters:    Size  Location     Type
		None
 Auto vars:     Size  Location     Type
		None
 Return value:  Size  Location     Type
                  1    wreg      void 
 Registers used:
		wreg, status,2, status,0
 Tracked objects:
		On entry : 
		On exit  : 
		Unchanged: 
 Data sizes:     COMRAM   BANK0   BANK1   BANK2   BANK3   BANK4   BANK5   BANK6   BANK7   BANK8   BANK9  BANK10  BANK11  BANK12  BANK13
      Params:         0       0       0       0       0       0       0       0       0       0       0       0       0       0       0
      Locals:         0       0       0       0       0       0       0       0       0       0       0       0       0       0       0
      Temps:          0       0       0       0       0       0       0       0       0       0       0       0       0       0       0
      Totals:         0       0       0       0       0       0       0       0       0       0       0       0       0       0       0
Total ram usage:        0 bytes
 Hardware stack levels used:    1
 Hardware stack levels required when called:   19
 This function calls:
		Nothing
 This function is called by:
		_SYSTEM_Initialize
 This function uses a non-reentrant model


 *************** function _HLVD_Initialize *****************
 Defined at:
		line 61 in file "mcc_generated_files/hlvd.c"
 Parameters:    Size  Location     Type
		None
 Auto vars:     Size  Location     Type
		None
 Return value:  Size  Location     Type
                  1    wreg      void 
 Registers used:
		wreg, status,2
 Tracked objects:
		On entry : 
		On exit  : 
		Unchanged: 
 Data sizes:     COMRAM   BANK0   BANK1   BANK2   BANK3   BANK4   BANK5   BANK6   BANK7   BANK8   BANK9  BANK10  BANK11  BANK12  BANK13
      Params:         0       0       0       0       0       0       0       0       0       0       0       0       0       0       0
      Locals:         0       0       0       0       0       0       0       0       0       0       0       0       0       0       0
      Temps:          0       0       0       0       0       0       0       0       0       0       0       0       0       0       0
      Totals:         0       0       0       0       0       0       0       0       0       0       0       0       0       0       0
Total ram usage:        0 bytes
 Hardware stack levels used:    1
 Hardware stack levels required when called:   19
 This function calls:
		Nothing
 This function is called by:
		_SYSTEM_Initialize
 This function uses a non-reentrant model


 *************** function _FVR_Initialize *****************
 Defined at:
		line 58 in file "mcc_generated_files/fvr.c"
 Parameters:    Size  Location     Type
		None
 Auto vars:     Size  Location     Type
		None
 Return value:  Size  Location     Type
                  1    wreg      void 
 Registers used:
		wreg, status,2
 Tracked objects:
		On entry : 
		On exit  : 
		Unchanged: 
 Data sizes:     COMRAM   BANK0   BANK1   BANK2   BANK3   BANK4   BANK5   BANK6   BANK7   BANK8   BANK9  BANK10  BANK11  BANK12  BANK13
      Params:         0       0       0       0       0       0       0       0       0       0       0       0       0       0       0
      Locals:         0       0       0       0       0       0       0       0       0       0       0       0       0       0       0
      Temps:          0       0       0       0       0       0       0       0       0       0       0       0       0       0       0
      Totals:         0       0       0       0       0       0       0       0       0       0       0       0       0       0       0
Total ram usage:        0 bytes
 Hardware stack levels used:    1
 Hardware stack levels required when called:   19
 This function calls:
		Nothing
 This function is called by:
		_SYSTEM_Initialize
 This function uses a non-reentrant model


 *************** function _EXT_INT_Initialize *****************
 Defined at:
		line 59 in file "mcc_generated_files/ext_int.c"
 Parameters:    Size  Location     Type
		None
 Auto vars:     Size  Location     Type
		None
 Return value:  Size  Location     Type
                  1    wreg      void 
 Registers used:
		wreg, status,2, status,0, cstack
 Tracked objects:
		On entry : 
		On exit  : 
		Unchanged: 
 Data sizes:     COMRAM   BANK0   BANK1   BANK2   BANK3   BANK4   BANK5   BANK6   BANK7   BANK8   BANK9  BANK10  BANK11  BANK12  BANK13
      Params:         0       0       0       0       0       0       0       0       0       0       0       0       0       0       0
      Locals:         0       0       0       0       0       0       0       0       0       0       0       0       0       0       0
      Temps:          0       0       0       0       0       0       0       0       0       0       0       0       0       0       0
      Totals:         0       0       0       0       0       0       0       0       0       0       0       0       0       0       0
Total ram usage:        0 bytes
 Hardware stack levels used:    1
 Hardware stack levels required when called:   20
 This function calls:
		_INT0_SetInterruptHandler
 This function is called by:
		_SYSTEM_Initialize
 This function uses a non-reentrant model


 *************** function _INT0_SetInterruptHandler *****************
 Defined at:
		line 50 in file "mcc_generated_files/ext_int.c"
 Parameters:    Size  Location     Type
  InterruptHan    3    0[BANK3 ] PTR FTN()void 
		 -> dimmingOffTimeCallback(1), INT0_DefaultInterruptHandler(1), 
 Auto vars:     Size  Location     Type
		None
 Return value:  Size  Location     Type
                  1    wreg      void 
 Registers used:
		wreg, status,2, status,0
 Tracked objects:
		On entry : 
		On exit  : 
		Unchanged: 
 Data sizes:     COMRAM   BANK0   BANK1   BANK2   BANK3   BANK4   BANK5   BANK6   BANK7   BANK8   BANK9  BANK10  BANK11  BANK12  BANK13
      Params:         0       0       0       0       3       0       0       0       0       0       0       0       0       0       0
      Locals:         0       0       0       0       0       0       0       0       0       0       0       0       0       0       0
      Temps:          0       0       0       0       0       0       0       0       0       0       0       0       0       0       0
      Totals:         0       0       0       0       3       0       0       0       0       0       0       0       0       0       0
Total ram usage:        3 bytes
 Hardware stack levels used:    1
 Hardware stack levels required when called:   19
 This function calls:
		Nothing
 This function is called by:
		_EXT_INT_Initialize
		_main
 This function uses a non-reentrant model


 *************** function _EUSART2_Initialize *****************
 Defined at:
		line 79 in file "mcc_generated_files/eusart2.c"
 Parameters:    Size  Location     Type
		None
 Auto vars:     Size  Location     Type
		None
 Return value:  Size  Location     Type
                  1    wreg      void 
 Registers used:
		wreg, status,2, status,0, cstack
 Tracked objects:
		On entry : 
		On exit  : 
		Unchanged: 
 Data sizes:     COMRAM   BANK0   BANK1   BANK2   BANK3   BANK4   BANK5   BANK6   BANK7   BANK8   BANK9  BANK10  BANK11  BANK12  BANK13
      Params:         0       0       0       0       0       0       0       0       0       0       0       0       0       0       0
      Locals:         0       0       0       0       0       0       0       0       0       0       0       0       0       0       0
      Temps:          0       0       0       0       0       0       0       0       0       0       0       0       0       0       0
      Totals:         0       0       0       0       0       0       0       0       0       0       0       0       0       0       0
Total ram usage:        0 bytes
 Hardware stack levels used:    1
 Hardware stack levels required when called:   20
 This function calls:
		_EUSART2_SetRxInterruptHandler
		_EUSART2_SetTxInterruptHandler
 This function is called by:
		_SYSTEM_Initialize
 This function uses a non-reentrant model


 *************** function _EUSART2_SetTxInterruptHandler *****************
 Defined at:
		line 269 in file "mcc_generated_files/eusart2.c"
 Parameters:    Size  Location     Type
  interruptHan    3    0[BANK3 ] PTR FTN()void 
		 -> EUSART2_Transmit_ISR(1), 
 Auto vars:     Size  Location     Type
		None
 Return value:  Size  Location     Type
                  1    wreg      void 
 Registers used:
		wreg, status,2, status,0
 Tracked objects:
		On entry : 
		On exit  : 
		Unchanged: 
 Data sizes:     COMRAM   BANK0   BANK1   BANK2   BANK3   BANK4   BANK5   BANK6   BANK7   BANK8   BANK9  BANK10  BANK11  BANK12  BANK13
      Params:         0       0       0       0       3       0       0       0       0       0       0       0       0       0       0
      Locals:         0       0       0       0       0       0       0       0       0       0       0       0       0       0       0
      Temps:          0       0       0       0       0       0       0       0       0       0       0       0       0       0       0
      Totals:         0       0       0       0       3       0       0       0       0       0       0       0       0       0       0
Total ram usage:        3 bytes
 Hardware stack levels used:    1
 Hardware stack levels required when called:   19
 This function calls:
		Nothing
 This function is called by:
		_EUSART2_Initialize
 This function uses a non-reentrant model


 *************** function _EUSART2_SetRxInterruptHandler *****************
 Defined at:
		line 273 in file "mcc_generated_files/eusart2.c"
 Parameters:    Size  Location     Type
  interruptHan    3    0[BANK3 ] PTR FTN()void 
		 -> EUSART2_Receive_ISR(1), 
 Auto vars:     Size  Location     Type
		None
 Return value:  Size  Location     Type
                  1    wreg      void 
 Registers used:
		wreg, status,2, status,0
 Tracked objects:
		On entry : 
		On exit  : 
		Unchanged: 
 Data sizes:     COMRAM   BANK0   BANK1   BANK2   BANK3   BANK4   BANK5   BANK6   BANK7   BANK8   BANK9  BANK10  BANK11  BANK12  BANK13
      Params:         0       0       0       0       3       0       0       0       0       0       0       0       0       0       0
      Locals:         0       0       0       0       0       0       0       0       0       0       0       0       0       0       0
      Temps:          0       0       0       0       0       0       0       0       0       0       0       0       0       0       0
      Totals:         0       0       0       0       3       0       0       0       0       0       0       0       0       0       0
Total ram usage:        3 bytes
 Hardware stack levels used:    1
 Hardware stack levels required when called:   19
 This function calls:
		Nothing
 This function is called by:
		_EUSART2_Initialize
 This function uses a non-reentrant model


 *************** function _ADCC_Initialize *****************
 Defined at:
		line 63 in file "mcc_generated_files/adcc.c"
 Parameters:    Size  Location     Type
		None
 Auto vars:     Size  Location     Type
		None
 Return value:  Size  Location     Type
                  1    wreg      void 
 Registers used:
		wreg, status,2, status,0, cstack
 Tracked objects:
		On entry : 
		On exit  : 
		Unchanged: 
 Data sizes:     COMRAM   BANK0   BANK1   BANK2   BANK3   BANK4   BANK5   BANK6   BANK7   BANK8   BANK9  BANK10  BANK11  BANK12  BANK13
      Params:         0       0       0       0       0       0       0       0       0       0       0       0       0       0       0
      Locals:         0       0       0       0       0       0       0       0       0       0       0       0       0       0       0
      Temps:          0       0       0       0       0       0       0       0       0       0       0       0       0       0       0
      Totals:         0       0       0       0       0       0       0       0       0       0       0       0       0       0       0
Total ram usage:        0 bytes
 Hardware stack levels used:    1
 Hardware stack levels required when called:   20
 This function calls:
		_ADCC_SetADTIInterruptHandler
 This function is called by:
		_SYSTEM_Initialize
 This function uses a non-reentrant model


 *************** function _ADCC_SetADTIInterruptHandler *****************
 Defined at:
		line 310 in file "mcc_generated_files/adcc.c"
 Parameters:    Size  Location     Type
  InterruptHan    3    0[BANK3 ] PTR FTN()void 
		 -> ADC_PostProcessingCallback(1), ADCC_DefaultInterruptHandler(1), 
 Auto vars:     Size  Location     Type
		None
 Return value:  Size  Location     Type
                  1    wreg      void 
 Registers used:
		wreg, status,2, status,0
 Tracked objects:
		On entry : 
		On exit  : 
		Unchanged: 
 Data sizes:     COMRAM   BANK0   BANK1   BANK2   BANK3   BANK4   BANK5   BANK6   BANK7   BANK8   BANK9  BANK10  BANK11  BANK12  BANK13
      Params:         0       0       0       0       3       0       0       0       0       0       0       0       0       0       0
      Locals:         0       0       0       0       0       0       0       0       0       0       0       0       0       0       0
      Temps:          0       0       0       0       0       0       0       0       0       0       0       0       0       0       0
      Totals:         0       0       0       0       3       0       0       0       0       0       0       0       0       0       0
Total ram usage:        3 bytes
 Hardware stack levels used:    1
 Hardware stack levels required when called:   19
 This function calls:
		Nothing
 This function is called by:
		_ADCC_Initialize
		_main
 This function uses a non-reentrant model


 *************** function _OLED_Init *****************
 Defined at:
		line 162 in file "oled.c"
 Parameters:    Size  Location     Type
		None
 Auto vars:     Size  Location     Type
		None
 Return value:  Size  Location     Type
                  1    wreg      void 
 Registers used:
		wreg, fsr2l, fsr2h, status,2, status,0, cstack
 Tracked objects:
		On entry : 
		On exit  : 
		Unchanged: 
 Data sizes:     COMRAM   BANK0   BANK1   BANK2   BANK3   BANK4   BANK5   BANK6   BANK7   BANK8   BANK9  BANK10  BANK11  BANK12  BANK13
      Params:         0       0       0       0       0       0       0       0       0       0       0       0       0       0       0
      Locals:         0       0       0       0       0       0       0       0       0       0       0       0       0       0       0
      Temps:          0       0       0       0       0       0       0       0       0       0       0       0       0       0       0
      Totals:         0       0       0       0       0       0       0       0       0       0       0       0       0       0       0
Total ram usage:        0 bytes
 Hardware stack levels used:    1
 Hardware stack levels required when called:   23
 This function calls:
		_OLED_Command
 This function is called by:
		_main
 This function uses a non-reentrant model


 *************** function _OLED_Command *****************
 Defined at:
		line 110 in file "oled.c"
 Parameters:    Size  Location     Type
  temp            1    wreg     unsigned char 
 Auto vars:     Size  Location     Type
  temp            1   16[BANK3 ] unsigned char 
  data_array      2   18[BANK3 ] unsigned char [2]
  length          1   17[BANK3 ] unsigned char 
 Return value:  Size  Location     Type
                  1    wreg      void 
 Registers used:
		wreg, fsr2l, fsr2h, status,2, status,0, cstack
 Tracked objects:
		On entry : 
		On exit  : 
		Unchanged: 
 Data sizes:     COMRAM   BANK0   BANK1   BANK2   BANK3   BANK4   BANK5   BANK6   BANK7   BANK8   BANK9  BANK10  BANK11  BANK12  BANK13
      Params:         0       0       0       0       0       0       0       0       0       0       0       0       0       0       0
      Locals:         0       0       0       0       4       0       0       0       0       0       0       0       0       0       0
      Temps:          0       0       0       0       0       0       0       0       0       0       0       0       0       0       0
      Totals:         0       0       0       0       4       0       0       0       0       0       0       0       0       0       0
Total ram usage:        4 bytes
 Hardware stack levels used:    1
 Hardware stack levels required when called:   22
 This function calls:
		_I2C1_MasterWrite
 This function is called by:
		_OLED_Init
		_OLED_YX
 This function uses a non-reentrant model


 *************** function _I2C1_MasterWrite *****************
 Defined at:
		line 600 in file "mcc_generated_files/i2c1.c"
 Parameters:    Size  Location     Type
  pdata           2    9[BANK3 ] PTR unsigned char 
		 -> OLED_PutChar@data_array(9), OLED_Data@data_array(2), OLED_Command@data_array(2), 
  length          1   11[BANK3 ] unsigned char 
  address         2   12[BANK3 ] unsigned int 
  pflag           2   14[BANK3 ] PTR enum E17311
		 -> OLED_I2C_Status(1), 
 Auto vars:     Size  Location     Type
		None
 Return value:  Size  Location     Type
                  1    wreg      void 
 Registers used:
		wreg, fsr2l, fsr2h, status,2, status,0, cstack
 Tracked objects:
		On entry : 
		On exit  : 
		Unchanged: 
 Data sizes:     COMRAM   BANK0   BANK1   BANK2   BANK3   BANK4   BANK5   BANK6   BANK7   BANK8   BANK9  BANK10  BANK11  BANK12  BANK13
      Params:         0       0       0       0       7       0       0       0       0       0       0       0       0       0       0
      Locals:         0       0       0       0       0       0       0       0       0       0       0       0       0       0       0
      Temps:          0       0       0       0       0       0       0       0       0       0       0       0       0       0       0
      Totals:         0       0       0       0       7       0       0       0       0       0       0       0       0       0       0
Total ram usage:        7 bytes
 Hardware stack levels used:    1
 Hardware stack levels required when called:   21
 This function calls:
		_I2C1_MasterTRBInsert
		_I2C1_MasterWriteTRBBuild
 This function is called by:
		_OLED_Command
		_OLED_PutChar
		_OLED_Data
 This function uses a non-reentrant model


 *************** function _I2C1_MasterWriteTRBBuild *****************
 Defined at:
		line 721 in file "mcc_generated_files/i2c1.c"
 Parameters:    Size  Location     Type
  ptrb            2    0[BANK3 ] PTR struct .
		 -> I2C1_MasterWrite@trBlock(5), 
  pdata           2    2[BANK3 ] PTR unsigned char 
		 -> OLED_PutChar@data_array(9), OLED_Data@data_array(2), OLED_Command@data_array(2), 
  length          1    4[BANK3 ] unsigned char 
  address         2    5[BANK3 ] unsigned int 
 Auto vars:     Size  Location     Type
		None
 Return value:  Size  Location     Type
                  1    wreg      void 
 Registers used:
		wreg, fsr2l, fsr2h, status,2, status,0
 Tracked objects:
		On entry : 
		On exit  : 
		Unchanged: 
 Data sizes:     COMRAM   BANK0   BANK1   BANK2   BANK3   BANK4   BANK5   BANK6   BANK7   BANK8   BANK9  BANK10  BANK11  BANK12  BANK13
      Params:         0       0       0       0       7       0       0       0       0       0       0       0       0       0       0
      Locals:         0       0       0       0       0       0       0       0       0       0       0       0       0       0       0
      Temps:          0       0       0       0       2       0       0       0       0       0       0       0       0       0       0
      Totals:         0       0       0       0       9       0       0       0       0       0       0       0       0       0       0
Total ram usage:        9 bytes
 Hardware stack levels used:    1
 Hardware stack levels required when called:   19
 This function calls:
		Nothing
 This function is called by:
		_I2C1_MasterWrite
 This function uses a non-reentrant model


 *************** function _I2C1_MasterTRBInsert *****************
 Defined at:
		line 654 in file "mcc_generated_files/i2c1.c"
 Parameters:    Size  Location     Type
  count           1    wreg     unsigned char 
  ptrb_list       2    0[BANK3 ] PTR struct .
		 -> I2C1_MasterRead@trBlock(5), I2C1_MasterWrite@trBlock(5), 
  pflag           2    2[BANK3 ] PTR enum E17311
		 -> OLED_I2C_Status(1), 
 Auto vars:     Size  Location     Type
  count           1    5[BANK3 ] unsigned char 
 Return value:  Size  Location     Type
                  1    wreg      void 
 Registers used:
		wreg, fsr2l, fsr2h, status,2, status,0, cstack
 Tracked objects:
		On entry : 
		On exit  : 
		Unchanged: 
 Data sizes:     COMRAM   BANK0   BANK1   BANK2   BANK3   BANK4   BANK5   BANK6   BANK7   BANK8   BANK9  BANK10  BANK11  BANK12  BANK13
      Params:         0       0       0       0       4       0       0       0       0       0       0       0       0       0       0
      Locals:         0       0       0       0       1       0       0       0       0       0       0       0       0       0       0
      Temps:          0       0       0       0       1       0       0       0       0       0       0       0       0       0       0
      Totals:         0       0       0       0       6       0       0       0       0       0       0       0       0       0       0
Total ram usage:        6 bytes
 Hardware stack levels used:    1
 Hardware stack levels required when called:   20
 This function calls:
		_I2C1_WaitForLastPacketToComplete
 This function is called by:
		_I2C1_MasterWrite
		_I2C1_MasterRead
 This function uses a non-reentrant model


 *************** function _I2C1_WaitForLastPacketToComplete *****************
 Defined at:
		line 644 in file "mcc_generated_files/i2c1.c"
 Parameters:    Size  Location     Type
		None
 Auto vars:     Size  Location     Type
		None
 Return value:  Size  Location     Type
                  1    wreg      void 
 Registers used:
		wreg, status,2
 Tracked objects:
		On entry : 
		On exit  : 
		Unchanged: 
 Data sizes:     COMRAM   BANK0   BANK1   BANK2   BANK3   BANK4   BANK5   BANK6   BANK7   BANK8   BANK9  BANK10  BANK11  BANK12  BANK13
      Params:         0       0       0       0       0       0       0       0       0       0       0       0       0       0       0
      Locals:         0       0       0       0       0       0       0       0       0       0       0       0       0       0       0
      Temps:          0       0       0       0       0       0       0       0       0       0       0       0       0       0       0
      Totals:         0       0       0       0       0       0       0       0       0       0       0       0       0       0       0
Total ram usage:        0 bytes
 Hardware stack levels used:    1
 Hardware stack levels required when called:   19
 This function calls:
		Nothing
 This function is called by:
		_I2C1_MasterTRBInsert
 This function uses a non-reentrant model


 *************** function _INTERRUPT_InterruptManagerLow *****************
 Defined at:
		line 139 in file "mcc_generated_files/interrupt_manager.c"
 Parameters:    Size  Location     Type
		None
 Auto vars:     Size  Location     Type
		None
 Return value:  Size  Location     Type
                  1    wreg      void 
 Registers used:
		wreg, fsr0l, fsr0h, fsr2l, fsr2h, status,2, status,0, pclath, tosl, tblptrl, tblptrh, tblptru, prodl, prodh, cstack
 Tracked objects:
		On entry : 
		On exit  : 
		Unchanged: 
 Data sizes:     COMRAM   BANK0   BANK1   BANK2   BANK3   BANK4   BANK5   BANK6   BANK7   BANK8   BANK9  BANK10  BANK11  BANK12  BANK13
      Params:         0       0       0       0       0       0       0       0       0       0       0       0       0       0       0
      Locals:         0       0       0       0       0       0       0       0       0       0       0       0       0       0       0
      Temps:          0       0       0      21       0       0       0       0       0       0       0       0       0       0       0
      Totals:         0       0       0      21       0       0       0       0       0       0       0       0       0       0       0
Total ram usage:       21 bytes
 Hardware stack levels used:    1
 Hardware stack levels required when called:   18
 This function calls:
		Absolute function
		_EUSART2_Transmit_ISR
		_TMR2_ISR
		_TMR6_ISR
		_TMR7_ISR
 This function is called by:
		Interrupt level 1
 This function uses a non-reentrant model


 *************** function _TMR7_ISR *****************
 Defined at:
		line 164 in file "mcc_generated_files/tmr7.c"
 Parameters:    Size  Location     Type
		None
 Auto vars:     Size  Location     Type
		None
 Return value:  Size  Location     Type
                  1    wreg      void 
 Registers used:
		wreg, status,2, status,0, pclath, tosl, cstack
 Tracked objects:
		On entry : 
		On exit  : 
		Unchanged: 
 Data sizes:     COMRAM   BANK0   BANK1   BANK2   BANK3   BANK4   BANK5   BANK6   BANK7   BANK8   BANK9  BANK10  BANK11  BANK12  BANK13
      Params:         0       0       0       0       0       0       0       0       0       0       0       0       0       0       0
      Locals:         0       0       0       0       0       0       0       0       0       0       0       0       0       0       0
      Temps:          0       0       0       0       0       0       0       0       0       0       0       0       0       0       0
      Totals:         0       0       0       0       0       0       0       0       0       0       0       0       0       0       0
Total ram usage:        0 bytes
 Hardware stack levels used:    1
 Hardware stack levels required when called:   11
 This function calls:
		Absolute function
		_TMR7_DefaultInterruptHandler
		_TMR7_WriteTimer
		_acquisitionTimerCallback
 This function is called by:
		_INTERRUPT_InterruptManagerLow
 This function uses a non-reentrant model


 *************** function _TMR7_DefaultInterruptHandler *****************
 Defined at:
		line 182 in file "mcc_generated_files/tmr7.c"
 Parameters:    Size  Location     Type
		None
 Auto vars:     Size  Location     Type
		None
 Return value:  Size  Location     Type
                  1    wreg      void 
 Registers used:
		None
 Tracked objects:
		On entry : 
		On exit  : 
		Unchanged: 
 Data sizes:     COMRAM   BANK0   BANK1   BANK2   BANK3   BANK4   BANK5   BANK6   BANK7   BANK8   BANK9  BANK10  BANK11  BANK12  BANK13
      Params:         0       0       0       0       0       0       0       0       0       0       0       0       0       0       0
      Locals:         0       0       0       0       0       0       0       0       0       0       0       0       0       0       0
      Temps:          0       0       0       0       0       0       0       0       0       0       0       0       0       0       0
      Totals:         0       0       0       0       0       0       0       0       0       0       0       0       0       0       0
Total ram usage:        0 bytes
 Hardware stack levels used:    1
 Hardware stack levels required when called:    9
 This function calls:
		Nothing
 This function is called by:
		_TMR7_Initialize
		_TMR7_ISR
 This function uses a non-reentrant model


 *************** function _acquisitionTimerCallback *****************
 Defined at:
		line 421 in file "main.c"
 Parameters:    Size  Location     Type
		None
 Auto vars:     Size  Location     Type
		None
 Return value:  Size  Location     Type
                  1    wreg      void 
 Registers used:
		wreg, status,2, cstack
 Tracked objects:
		On entry : 
		On exit  : 
		Unchanged: 
 Data sizes:     COMRAM   BANK0   BANK1   BANK2   BANK3   BANK4   BANK5   BANK6   BANK7   BANK8   BANK9  BANK10  BANK11  BANK12  BANK13
      Params:         0       0       0       0       0       0       0       0       0       0       0       0       0       0       0
      Locals:         0       0       0       0       0       0       0       0       0       0       0       0       0       0       0
      Temps:          0       0       0       0       0       0       0       0       0       0       0       0       0       0       0
      Totals:         0       0       0       0       0       0       0       0       0       0       0       0       0       0       0
Total ram usage:        0 bytes
 Hardware stack levels used:    1
 Hardware stack levels required when called:   10
 This function calls:
		_ADCC_ClearAccumulator
		_ADCC_DischargeSampleCapacitor
		_ADCC_StartConversion
 This function is called by:
		_main
		_TMR7_ISR
 This function uses a non-reentrant model


 *************** function _ADCC_StartConversion *****************
 Defined at:
		line 115 in file "mcc_generated_files/adcc.c"
 Parameters:    Size  Location     Type
  channel         1    wreg     enum E17863
 Auto vars:     Size  Location     Type
  channel         1   18[BANK1 ] enum E17863
 Return value:  Size  Location     Type
                  1    wreg      void 
 Registers used:
		wreg
 Tracked objects:
		On entry : 
		On exit  : 
		Unchanged: 
 Data sizes:     COMRAM   BANK0   BANK1   BANK2   BANK3   BANK4   BANK5   BANK6   BANK7   BANK8   BANK9  BANK10  BANK11  BANK12  BANK13
      Params:         0       0       0       0       0       0       0       0       0       0       0       0       0       0       0
      Locals:         0       0       1       0       0       0       0       0       0       0       0       0       0       0       0
      Temps:          0       0       0       0       0       0       0       0       0       0       0       0       0       0       0
      Totals:         0       0       1       0       0       0       0       0       0       0       0       0       0       0       0
Total ram usage:        1 bytes
 Hardware stack levels used:    1
 Hardware stack levels required when called:    9
 This function calls:
		Nothing
 This function is called by:
		_acquisitionTimerCallback
 This function uses a non-reentrant model


 *************** function _ADCC_DischargeSampleCapacitor *****************
 Defined at:
		line 177 in file "mcc_generated_files/adcc.c"
 Parameters:    Size  Location     Type
		None
 Auto vars:     Size  Location     Type
		None
 Return value:  Size  Location     Type
                  1    wreg      void 
 Registers used:
		wreg, status,2
 Tracked objects:
		On entry : 
		On exit  : 
		Unchanged: 
 Data sizes:     COMRAM   BANK0   BANK1   BANK2   BANK3   BANK4   BANK5   BANK6   BANK7   BANK8   BANK9  BANK10  BANK11  BANK12  BANK13
      Params:         0       0       0       0       0       0       0       0       0       0       0       0       0       0       0
      Locals:         0       0       0       0       0       0       0       0       0       0       0       0       0       0       0
      Temps:          0       0       0       0       0       0       0       0       0       0       0       0       0       0       0
      Totals:         0       0       0       0       0       0       0       0       0       0       0       0       0       0       0
Total ram usage:        0 bytes
 Hardware stack levels used:    1
 Hardware stack levels required when called:    9
 This function calls:
		Nothing
 This function is called by:
		_acquisitionTimerCallback
 This function uses a non-reentrant model


 *************** function _ADCC_ClearAccumulator *****************
 Defined at:
		line 207 in file "mcc_generated_files/adcc.c"
 Parameters:    Size  Location     Type
		None
 Auto vars:     Size  Location     Type
		None
 Return value:  Size  Location     Type
                  1    wreg      void 
 Registers used:
		None
 Tracked objects:
		On entry : 
		On exit  : 
		Unchanged: 
 Data sizes:     COMRAM   BANK0   BANK1   BANK2   BANK3   BANK4   BANK5   BANK6   BANK7   BANK8   BANK9  BANK10  BANK11  BANK12  BANK13
      Params:         0       0       0       0       0       0       0       0       0       0       0       0       0       0       0
      Locals:         0       0       0       0       0       0       0       0       0       0       0       0       0       0       0
      Temps:          0       0       0       0       0       0       0       0       0       0       0       0       0       0       0
      Totals:         0       0       0       0       0       0       0       0       0       0       0       0       0       0       0
Total ram usage:        0 bytes
 Hardware stack levels used:    1
 Hardware stack levels required when called:    9
 This function calls:
		Nothing
 This function is called by:
		_acquisitionTimerCallback
 This function uses a non-reentrant model


 *************** function _TMR7_WriteTimer *****************
 Defined at:
		line 127 in file "mcc_generated_files/tmr7.c"
 Parameters:    Size  Location     Type
  timerVal        2   18[BANK1 ] unsigned int 
 Auto vars:     Size  Location     Type
		None
 Return value:  Size  Location     Type
                  1    wreg      void 
 Registers used:
		wreg, status,2
 Tracked objects:
		On entry : 
		On exit  : 
		Unchanged: 
 Data sizes:     COMRAM   BANK0   BANK1   BANK2   BANK3   BANK4   BANK5   BANK6   BANK7   BANK8   BANK9  BANK10  BANK11  BANK12  BANK13
      Params:         0       0       2       0       0       0       0       0       0       0       0       0       0       0       0
      Locals:         0       0       0       0       0       0       0       0       0       0       0       0       0       0       0
      Temps:          0       0       0       0       0       0       0       0       0       0       0       0       0       0       0
      Totals:         0       0       2       0       0       0       0       0       0       0       0       0       0       0       0
Total ram usage:        2 bytes
 Hardware stack levels used:    1
 Hardware stack levels required when called:    9
 This function calls:
		Nothing
 This function is called by:
		_TMR7_ISR
		_TMR7_Reload
 This function uses a non-reentrant model


 *************** function _TMR6_ISR *****************
 Defined at:
		line 165 in file "mcc_generated_files/tmr6.c"
 Parameters:    Size  Location     Type
		None
 Auto vars:     Size  Location     Type
		None
 Return value:  Size  Location     Type
                  1    wreg      void 
 Registers used:
		wreg, status,2, status,0, pclath, tosl, cstack
 Tracked objects:
		On entry : 
		On exit  : 
		Unchanged: 
 Data sizes:     COMRAM   BANK0   BANK1   BANK2   BANK3   BANK4   BANK5   BANK6   BANK7   BANK8   BANK9  BANK10  BANK11  BANK12  BANK13
      Params:         0       0       0       0       0       0       0       0       0       0       0       0       0       0       0
      Locals:         0       0       0       0       0       0       0       0       0       0       0       0       0       0       0
      Temps:          0       0       0       0       0       0       0       0       0       0       0       0       0       0       0
      Totals:         0       0       0       0       0       0       0       0       0       0       0       0       0       0       0
Total ram usage:        0 bytes
 Hardware stack levels used:    1
 Hardware stack levels required when called:   10
 This function calls:
		Absolute function
		_TMR6_DefaultInterruptHandler
		_heartbeatTimerCallback
 This function is called by:
		_INTERRUPT_InterruptManagerLow
 This function uses a non-reentrant model


 *************** function _TMR6_DefaultInterruptHandler *****************
 Defined at:
		line 182 in file "mcc_generated_files/tmr6.c"
 Parameters:    Size  Location     Type
		None
 Auto vars:     Size  Location     Type
		None
 Return value:  Size  Location     Type
                  1    wreg      void 
 Registers used:
		None
 Tracked objects:
		On entry : 
		On exit  : 
		Unchanged: 
 Data sizes:     COMRAM   BANK0   BANK1   BANK2   BANK3   BANK4   BANK5   BANK6   BANK7   BANK8   BANK9  BANK10  BANK11  BANK12  BANK13
      Params:         0       0       0       0       0       0       0       0       0       0       0       0       0       0       0
      Locals:         0       0       0       0       0       0       0       0       0       0       0       0       0       0       0
      Temps:          0       0       0       0       0       0       0       0       0       0       0       0       0       0       0
      Totals:         0       0       0       0       0       0       0       0       0       0       0       0       0       0       0
Total ram usage:        0 bytes
 Hardware stack levels used:    1
 Hardware stack levels required when called:    9
 This function calls:
		Nothing
 This function is called by:
		_TMR6_Initialize
		_TMR6_ISR
 This function uses a non-reentrant model


 *************** function _heartbeatTimerCallback *****************
 Defined at:
		line 220 in file "main.c"
 Parameters:    Size  Location     Type
		None
 Auto vars:     Size  Location     Type
		None
 Return value:  Size  Location     Type
                  1    wreg      void 
 Registers used:
		wreg, status,2, status,0
 Tracked objects:
		On entry : 
		On exit  : 
		Unchanged: 
 Data sizes:     COMRAM   BANK0   BANK1   BANK2   BANK3   BANK4   BANK5   BANK6   BANK7   BANK8   BANK9  BANK10  BANK11  BANK12  BANK13
      Params:         0       0       0       0       0       0       0       0       0       0       0       0       0       0       0
      Locals:         0       0       0       0       0       0       0       0       0       0       0       0       0       0       0
      Temps:          0       0       1       0       0       0       0       0       0       0       0       0       0       0       0
      Totals:         0       0       1       0       0       0       0       0       0       0       0       0       0       0       0
Total ram usage:        1 bytes
 Hardware stack levels used:    1
 Hardware stack levels required when called:    9
 This function calls:
		Nothing
 This function is called by:
		_main
		_TMR6_ISR
 This function uses a non-reentrant model


 *************** function _TMR2_ISR *****************
 Defined at:
		line 165 in file "mcc_generated_files/tmr2.c"
 Parameters:    Size  Location     Type
		None
 Auto vars:     Size  Location     Type
		None
 Return value:  Size  Location     Type
                  1    wreg      void 
 Registers used:
		wreg, fsr0l, fsr0h, fsr2l, fsr2h, status,2, status,0, pclath, tosl, tblptrl, tblptrh, tblptru, prodl, prodh, cstack
 Tracked objects:
		On entry : 
		On exit  : 
		Unchanged: 
 Data sizes:     COMRAM   BANK0   BANK1   BANK2   BANK3   BANK4   BANK5   BANK6   BANK7   BANK8   BANK9  BANK10  BANK11  BANK12  BANK13
      Params:         0       0       0       0       0       0       0       0       0       0       0       0       0       0       0
      Locals:         0       0       0       0       0       0       0       0       0       0       0       0       0       0       0
      Temps:          0       0       0       0       0       0       0       0       0       0       0       0       0       0       0
      Totals:         0       0       0       0       0       0       0       0       0       0       0       0       0       0       0
Total ram usage:        0 bytes
 Hardware stack levels used:    1
 Hardware stack levels required when called:   17
 This function calls:
		_TMR2_CallBack
 This function is called by:
		_INTERRUPT_InterruptManagerLow
 This function uses a non-reentrant model


 *************** function _TMR2_CallBack *****************
 Defined at:
		line 182 in file "mcc_generated_files/tmr2.c"
 Parameters:    Size  Location     Type
		None
 Auto vars:     Size  Location     Type
		None
 Return value:  Size  Location     Type
                  1    wreg      void 
 Registers used:
		wreg, fsr0l, fsr0h, fsr2l, fsr2h, status,2, status,0, pclath, tosl, tblptrl, tblptrh, tblptru, prodl, prodh, cstack
 Tracked objects:
		On entry : 
		On exit  : 
		Unchanged: 
 Data sizes:     COMRAM   BANK0   BANK1   BANK2   BANK3   BANK4   BANK5   BANK6   BANK7   BANK8   BANK9  BANK10  BANK11  BANK12  BANK13
      Params:         0       0       0       0       0       0       0       0       0       0       0       0       0       0       0
      Locals:         0       0       0       0       0       0       0       0       0       0       0       0       0       0       0
      Temps:          0       0       0       0       0       0       0       0       0       0       0       0       0       0       0
      Totals:         0       0       0       0       0       0       0       0       0       0       0       0       0       0       0
Total ram usage:        0 bytes
 Hardware stack levels used:    1
 Hardware stack levels required when called:   16
 This function calls:
		Absolute function
		_TMR2_DefaultInterruptHandler
		i1_OLED_updateCallback
 This function is called by:
		_TMR2_ISR
 This function uses a non-reentrant model


 *************** function _TMR2_DefaultInterruptHandler *****************
 Defined at:
		line 196 in file "mcc_generated_files/tmr2.c"
 Parameters:    Size  Location     Type
		None
 Auto vars:     Size  Location     Type
		None
 Return value:  Size  Location     Type
                  1    wreg      void 
 Registers used:
		None
 Tracked objects:
		On entry : 
		On exit  : 
		Unchanged: 
 Data sizes:     COMRAM   BANK0   BANK1   BANK2   BANK3   BANK4   BANK5   BANK6   BANK7   BANK8   BANK9  BANK10  BANK11  BANK12  BANK13
      Params:         0       0       0       0       0       0       0       0       0       0       0       0       0       0       0
      Locals:         0       0       0       0       0       0       0       0       0       0       0       0       0       0       0
      Temps:          0       0       0       0       0       0       0       0       0       0       0       0       0       0       0
      Totals:         0       0       0       0       0       0       0       0       0       0       0       0       0       0       0
Total ram usage:        0 bytes
 Hardware stack levels used:    1
 Hardware stack levels required when called:    9
 This function calls:
		Nothing
 This function is called by:
		_TMR2_Initialize
		_TMR2_CallBack
 This function uses a non-reentrant model


 *************** function i1_OLED_updateCallback *****************
 Defined at:
		line 481 in file "main.c"
 Parameters:    Size  Location     Type
		None
 Auto vars:     Size  Location     Type
  OLED_updateC   17   70[BANK2 ] unsigned char [17]
  OLED_updateC   17   53[BANK2 ] unsigned char [17]
  OLED_updateC   17   36[BANK2 ] unsigned char [17]
  OLED_updateC   17   19[BANK2 ] unsigned char [17]
  OLED_updateC    3   94[BANK2 ] float 
  OLED_updateC    3   91[BANK2 ] float 
 Return value:  Size  Location     Type
                  1    wreg      void 
 Registers used:
		wreg, fsr0l, fsr0h, fsr2l, fsr2h, status,2, status,0, pclath, tosl, tblptrl, tblptrh, tblptru, prodl, prodh, cstack
 Tracked objects:
		On entry : 
		On exit  : 
		Unchanged: 
 Data sizes:     COMRAM   BANK0   BANK1   BANK2   BANK3   BANK4   BANK5   BANK6   BANK7   BANK8   BANK9  BANK10  BANK11  BANK12  BANK13
      Params:         0       0       0       0       0       0       0       0       0       0       0       0       0       0       0
      Locals:         0       0       0      78       0       0       0       0       0       0       0       0       0       0       0
      Temps:          0       0       0       7       0       0       0       0       0       0       0       0       0       0       0
      Totals:         0       0       0      85       0       0       0       0       0       0       0       0       0       0       0
Total ram usage:       85 bytes
 Hardware stack levels used:    1
 Hardware stack levels required when called:   15
 This function calls:
		i1_OLED_UpdateFromRAMBuffer
		i1_TMR2_Period8BitSet
		i1_TMR2_StartTimer
		i1_TMR2_StopTimer
		i1_TMR2_WriteTimer
		i1___fldiv
		i1___flge
		i1___flmul
		i1___ftdiv
		i1___lwtoft
		i1_acos
		i1_getCauseOfResetStringSmall
		i1_getDeviceID
		i1_getMajorRevisionID
		i1_getMinorRevisionID
		i1_round
		i1_sprintf
		i1_strcpy
 This function is called by:
 This function uses a non-reentrant model


 *************** function i1_strcpy *****************
 Defined at:
		line 8 in file "C:\Program Files (x86)\Microchip\xc8\v1.45\sources\common\strcpy.c"
 Parameters:    Size  Location     Type
  to              2   21[BANK1 ] PTR unsigned char 
		 -> OLED_RAM_Buffer(68), 
  from            2   23[BANK1 ] PTR const unsigned char 
		 -> STR_322(10), STR_321(11), STR_320(11), STR_319(15), 
		 -> STR_318(11), STR_317(10), STR_316(11), STR_315(10), 
		 -> STR_314(10), STR_313(10), print_Energy_str(17), print_Power_str(17), 
		 -> print_Vrms_str(17), print_Irms_str(17), OLED_updateCallback@angle_string(17), STR_35(13), 
		 -> OLED_updateCallback@percentage_string(17), STR_33(17), STR_32(2), STR_31(2), 
		 -> STR_30(2), STR_29(17), STR_28(2), STR_27(2), 
		 -> STR_26(2), STR_25(16), STR_24(2), STR_23(2), 
		 -> STR_22(2), STR_21(14), STR_20(2), STR_19(2), 
		 -> STR_18(2), STR_17(13), STR_16(16), STR_15(14), 
		 -> STR_14(14), STR_13(14), STR_12(15), STR_11(16), 
		 -> STR_10(10), STR_9(16), OLED_updateCallback@rev_id_str(17), STR_7(13), 
		 -> OLED_updateCallback@dev_id_str(17), STR_5(11), STR_4(14), STR_3(10), 
		 -> STR_2(15), 
 Auto vars:     Size  Location     Type
  strcpy          2   25[BANK1 ] PTR unsigned char 
		 -> OLED_RAM_Buffer(68), 
 Return value:  Size  Location     Type
                  2   21[BANK1 ] PTR unsigned char 
 Registers used:
		wreg, fsr0l, fsr0h, fsr2l, fsr2h, status,2, status,0, tblptrl, tblptrh, tblptru
 Tracked objects:
		On entry : 
		On exit  : 
		Unchanged: 
 Data sizes:     COMRAM   BANK0   BANK1   BANK2   BANK3   BANK4   BANK5   BANK6   BANK7   BANK8   BANK9  BANK10  BANK11  BANK12  BANK13
      Params:         0       0       4       0       0       0       0       0       0       0       0       0       0       0       0
      Locals:         0       0       2       0       0       0       0       0       0       0       0       0       0       0       0
      Temps:          0       0       0       0       0       0       0       0       0       0       0       0       0       0       0
      Totals:         0       0       6       0       0       0       0       0       0       0       0       0       0       0       0
Total ram usage:        6 bytes
 Hardware stack levels used:    1
 Hardware stack levels required when called:    9
 This function calls:
		Nothing
 This function is called by:
		i1_OLED_updateCallback
 This function uses a non-reentrant model


 *************** function i1_sprintf *****************
 Defined at:
		line 13 in file "C:\Program Files (x86)\Microchip\xc8\v1.45\sources\common\sprintf.c"
 Parameters:    Size  Location     Type
  wh              2  203[BANK1 ] PTR unsigned char 
		 -> ftoa@buf(17), print_Energy_str(17), print_Power_str(17), print_Vrms_str(17), 
		 -> print_Irms_str(17), OLED_updateCallback@angle_string(17), OLED_updateCallback@percentage_string(17), OLED_updateCallback@rev_id_str(17), 
		 -> OLED_updateCallback@dev_id_str(17), 
  f               2  205[BANK1 ] PTR const unsigned char 
		 -> STR_327(11), STR_42(12), STR_41(12), STR_40(12), 
		 -> STR_39(11), STR_38(10), STR_37(10), STR_36(9), 
		 -> STR_34(13), STR_8(7), STR_6(5), 
 Auto vars:     Size  Location     Type
  sprintf         5    2[BANK2 ] struct __prbuf
  sprintf         2    0[BANK2 ] PTR void [1]
		 -> ?i1_sprintf(2), ?_sprintf(2), ?_printf(2), 
 Return value:  Size  Location     Type
                  2  203[BANK1 ] int 
 Registers used:
		wreg, fsr0l, fsr0h, fsr2l, fsr2h, status,2, status,0, pclath, tosl, tblptrl, tblptrh, tblptru, prodl, prodh, cstack
 Tracked objects:
		On entry : 
		On exit  : 
		Unchanged: 
 Data sizes:     COMRAM   BANK0   BANK1   BANK2   BANK3   BANK4   BANK5   BANK6   BANK7   BANK8   BANK9  BANK10  BANK11  BANK12  BANK13
      Params:         0       0       8       0       0       0       0       0       0       0       0       0       0       0       0
      Locals:         0       0       0       7       0       0       0       0       0       0       0       0       0       0       0
      Temps:          0       0       0       0       0       0       0       0       0       0       0       0       0       0       0
      Totals:         0       0       8       7       0       0       0       0       0       0       0       0       0       0       0
Total ram usage:       15 bytes
 Hardware stack levels used:    1
 Hardware stack levels required when called:   12
 This function calls:
		i1__doprnt
 This function is called by:
		i1_OLED_updateCallback
 This function uses a non-reentrant model


 *************** function i1__doprnt *****************
 Defined at:
		line 458 in file "C:\Program Files (x86)\Microchip\xc8\v1.45\sources\common\doprnt.c"
 Parameters:    Size  Location     Type
  pb              2  161[BANK1 ] PTR struct __prbuf
		 -> sprintf@pb(5), printf@pb(5), 
  f               2  163[BANK1 ] PTR const unsigned char 
		 -> STR_327(11), STR_299(14), STR_298(99), STR_297(30), 
		 -> STR_296(58), STR_295(36), STR_294(36), STR_293(37), 
		 -> STR_292(28), STR_291(38), STR_290(60), STR_289(32), 
		 -> STR_288(23), STR_287(65), STR_286(27), STR_285(48), 
		 -> STR_284(15), STR_283(13), STR_282(12), STR_281(11), 
		 -> STR_280(10), STR_279(11), STR_278(24), STR_277(46), 
		 -> STR_276(25), STR_275(56), STR_274(64), STR_273(59), 
		 -> STR_272(85), STR_271(30), STR_270(55), STR_269(46), 
		 -> STR_268(39), STR_267(62), STR_266(21), STR_265(31), 
		 -> STR_264(49), STR_263(99), STR_262(88), STR_261(37), 
		 -> STR_260(13), STR_259(29), STR_258(26), STR_257(26), 
		 -> STR_256(426), STR_254(30), STR_253(46), STR_252(39), 
		 -> STR_251(62), STR_250(55), STR_249(470), STR_247(3282), 
		 -> STR_245(492), STR_243(840), STR_241(720), STR_239(1080), 
		 -> STR_237(46), STR_236(51), STR_235(73), STR_234(73), 
		 -> STR_233(71), STR_232(56), STR_231(34), STR_230(34), 
		 -> STR_229(53), STR_228(42), STR_227(53), STR_226(71), 
		 -> STR_225(63), STR_224(37), STR_223(31), STR_221(54), 
		 -> STR_220(45), STR_219(51), STR_218(52), STR_217(30), 
		 -> STR_216(58), STR_215(36), STR_214(36), STR_213(37), 
		 -> STR_212(38), STR_211(60), STR_210(32), STR_209(23), 
		 -> STR_208(65), STR_207(27), STR_206(48), STR_205(15), 
		 -> STR_204(13), STR_203(12), STR_202(11), STR_201(10), 
		 -> STR_200(11), STR_199(24), STR_198(46), STR_197(25), 
		 -> STR_196(58), STR_195(56), STR_194(64), STR_193(59), 
		 -> STR_192(85), STR_191(21), STR_189(54), STR_187(54), 
		 -> STR_185(45), STR_183(51), STR_181(52), STR_179(46), 
		 -> STR_177(51), STR_175(53), STR_173(58), STR_171(71), 
		 -> STR_170(63), STR_169(37), STR_168(46), STR_167(102), 
		 -> STR_166(86), STR_164(25), STR_162(42), STR_161(53), 
		 -> STR_160(31), STR_158(29), STR_157(28), STR_155(42), 
		 -> STR_153(41), STR_151(44), STR_150(19), STR_149(34), 
		 -> STR_147(53), STR_146(50), STR_145(105), STR_144(105), 
		 -> STR_142(59), STR_140(73), STR_139(73), STR_138(71), 
		 -> STR_136(56), STR_134(34), STR_132(34), STR_130(32), 
		 -> STR_128(30), STR_126(58), STR_124(36), STR_122(36), 
		 -> STR_120(37), STR_118(34), STR_116(38), STR_115(60), 
		 -> STR_114(32), STR_113(23), STR_112(65), STR_110(23), 
		 -> STR_108(27), STR_107(48), STR_106(15), STR_105(13), 
		 -> STR_104(12), STR_103(11), STR_102(10), STR_101(11), 
		 -> STR_100(24), STR_99(46), STR_98(25), STR_96(56), 
		 -> STR_95(64), STR_93(59), STR_91(85), STR_89(47), 
		 -> STR_88(17), STR_85(52), STR_83(4), STR_82(5), 
		 -> STR_80(4), STR_79(5), STR_77(3), terminal_textAttributes@output_buff(15), 
		 -> STR_47(4), STR_46(4), STR_45(4), STR_44(4), 
		 -> STR_43(5), STR_42(12), STR_41(12), STR_40(12), 
		 -> STR_39(11), STR_38(10), STR_37(10), STR_36(9), 
		 -> STR_34(13), STR_8(7), STR_6(5), STR_1(4), 
  ap              2  165[BANK1 ] PTR PTR void 
		 -> sprintf@ap(2), printf@ap(2), 
 Auto vars:     Size  Location     Type
  _doprnt         4  196[BANK1 ] PTR PTR void 
  _doprnt         4  188[BANK1 ] unsigned long 
  _doprnt         4  182[BANK1 ] struct .
  _doprnt         2  200[BANK1 ] int 
  _doprnt         2  194[BANK1 ] unsigned short 
  _doprnt         2  192[BANK1 ] int 
  _doprnt         2  186[BANK1 ] int 
  _doprnt         2  180[BANK1 ] unsigned int 
  _doprnt         2  178[BANK1 ] PTR const unsigned char 
		 -> ?_sprintf(2), ?_printf(2), ftoa@buf(17), STR_325(7), 
		 -> _doprnt@c(1), STR_312(16), STR_311(22), STR_310(21), 
		 -> STR_309(27), STR_308(41), STR_307(32), STR_306(19), 
		 -> STR_305(16), STR_304(15), STR_303(16), STR_302(10), 
		 -> STR_301(13), STR_300(12), print_Energy_str(17), print_Power_str(17), 
		 -> print_Vrms_str(17), print_Irms_str(17), OLED_updateCallback@angle_string(17), OLED_updateCallback@percentage_string(17), 
		 -> OLED_updateCallback@rev_id_str(17), OLED_updateCallback@dev_id_str(17), TRIAC_Firing_Angle(4), NULL(0), 
  _doprnt         1  202[BANK1 ] char 
  _doprnt         1  177[BANK1 ] unsigned char 
  _doprnt         1    0        unsigned char 
 Return value:  Size  Location     Type
                  2  161[BANK1 ] int 
 Registers used:
		wreg, fsr0l, fsr0h, fsr2l, fsr2h, status,2, status,0, pclath, tosl, tblptrl, tblptrh, tblptru, prodl, prodh, cstack
 Tracked objects:
		On entry : 
		On exit  : 
		Unchanged: 
 Data sizes:     COMRAM   BANK0   BANK1   BANK2   BANK3   BANK4   BANK5   BANK6   BANK7   BANK8   BANK9  BANK10  BANK11  BANK12  BANK13
      Params:         0       0       6       0       0       0       0       0       0       0       0       0       0       0       0
      Locals:         0       0      30       0       0       0       0       0       0       0       0       0       0       0       0
      Temps:          0       0       6       0       0       0       0       0       0       0       0       0       0       0       0
      Totals:         0       0      42       0       0       0       0       0       0       0       0       0       0       0       0
Total ram usage:       42 bytes
 Hardware stack levels used:    1
 Hardware stack levels required when called:   11
 This function calls:
		Absolute function
		i1___awdiv
		i1___awmod
		i1___fladd
		i1___fldiv
		i1___flge
		i1___flmul
		i1___flneg
		i1___flsub
		i1___fltol
		i1___lldiv
		i1___llmod
		i1___wmul
		i1___xxtofl
		i1__div_to_l_
		i1__tdiv_to_l_
		i1_fround
		i1_isdigit
		i1_putch
		i1_scale
 This function is called by:
		i1_sprintf
 This function uses a non-reentrant model


 *************** function i1_scale *****************
 Defined at:
		line 425 in file "C:\Program Files (x86)\Microchip\xc8\v1.45\sources\common\doprnt.c"
 Parameters:    Size  Location     Type
  scl             1    wreg     char 
 Auto vars:     Size  Location     Type
  scl             1   90[BANK1 ] char 
 Return value:  Size  Location     Type
                  4   82[BANK1 ] char 
 Registers used:
		wreg, status,2, status,0, tblptrl, tblptrh, tblptru, prodl, prodh, cstack
 Tracked objects:
		On entry : 
		On exit  : 
		Unchanged: 
 Data sizes:     COMRAM   BANK0   BANK1   BANK2   BANK3   BANK4   BANK5   BANK6   BANK7   BANK8   BANK9  BANK10  BANK11  BANK12  BANK13
      Params:         0       0       4       0       0       0       0       0       0       0       0       0       0       0       0
      Locals:         0       0       5       0       0       0       0       0       0       0       0       0       0       0       0
      Temps:          0       0       0       0       0       0       0       0       0       0       0       0       0       0       0
      Totals:         0       0       9       0       0       0       0       0       0       0       0       0       0       0       0
Total ram usage:        9 bytes
 Hardware stack levels used:    1
 Hardware stack levels required when called:   10
 This function calls:
		i1___awdiv
		i1___awmod
		i1___flmul
 This function is called by:
		i1__doprnt
 This function uses a non-reentrant model


 *************** function i1_putch *****************
 Defined at:
		line 184 in file "mcc_generated_files/eusart2.c"
 Parameters:    Size  Location     Type
  txData          1    wreg     unsigned char 
 Auto vars:     Size  Location     Type
  txData          1   19[BANK1 ] unsigned char 
 Return value:  Size  Location     Type
                  1    wreg      void 
 Registers used:
		wreg, fsr2l, fsr2h, status,2, status,0, prodl, prodh, cstack
 Tracked objects:
		On entry : 
		On exit  : 
		Unchanged: 
 Data sizes:     COMRAM   BANK0   BANK1   BANK2   BANK3   BANK4   BANK5   BANK6   BANK7   BANK8   BANK9  BANK10  BANK11  BANK12  BANK13
      Params:         0       0       0       0       0       0       0       0       0       0       0       0       0       0       0
      Locals:         0       0       1       0       0       0       0       0       0       0       0       0       0       0       0
      Temps:          0       0       0       0       0       0       0       0       0       0       0       0       0       0       0
      Totals:         0       0       1       0       0       0       0       0       0       0       0       0       0       0       0
Total ram usage:        1 bytes
 Hardware stack levels used:    1
 Hardware stack levels required when called:   10
 This function calls:
		i1_EUSART2_Write
 This function is called by:
 This function uses a non-reentrant model


 *************** function i1_EUSART2_Write *****************
 Defined at:
		line 155 in file "mcc_generated_files/eusart2.c"
 Parameters:    Size  Location     Type
  txData          1    wreg     unsigned char 
 Auto vars:     Size  Location     Type
  txData          1   18[BANK1 ] unsigned char 
 Return value:  Size  Location     Type
                  1    wreg      void 
 Registers used:
		wreg, fsr2l, fsr2h, status,2, status,0, prodl, prodh
 Tracked objects:
		On entry : 
		On exit  : 
		Unchanged: 
 Data sizes:     COMRAM   BANK0   BANK1   BANK2   BANK3   BANK4   BANK5   BANK6   BANK7   BANK8   BANK9  BANK10  BANK11  BANK12  BANK13
      Params:         0       0       0       0       0       0       0       0       0       0       0       0       0       0       0
      Locals:         0       0       1       0       0       0       0       0       0       0       0       0       0       0       0
      Temps:          0       0       0       0       0       0       0       0       0       0       0       0       0       0       0
      Totals:         0       0       1       0       0       0       0       0       0       0       0       0       0       0       0
Total ram usage:        1 bytes
 Hardware stack levels used:    1
 Hardware stack levels required when called:    9
 This function calls:
		Nothing
 This function is called by:
		i1_putch
 This function uses a non-reentrant model


 *************** function i1_isdigit *****************
 Defined at:
		line 8 in file "C:\Program Files (x86)\Microchip\xc8\v1.45\sources\common\isdigit.c"
 Parameters:    Size  Location     Type
  c               1    wreg     unsigned char 
 Auto vars:     Size  Location     Type
  c               1   20[BANK1 ] unsigned char 
 Return value:  Size  Location     Type
		None               void
 Registers used:
		wreg, status,2, status,0
 Tracked objects:
		On entry : 
		On exit  : 
		Unchanged: 
 Data sizes:     COMRAM   BANK0   BANK1   BANK2   BANK3   BANK4   BANK5   BANK6   BANK7   BANK8   BANK9  BANK10  BANK11  BANK12  BANK13
      Params:         0       0       0       0       0       0       0       0       0       0       0       0       0       0       0
      Locals:         0       0       2       0       0       0       0       0       0       0       0       0       0       0       0
      Temps:          0       0       1       0       0       0       0       0       0       0       0       0       0       0       0
      Totals:         0       0       3       0       0       0       0       0       0       0       0       0       0       0       0
Total ram usage:        3 bytes
 Hardware stack levels used:    1
 Hardware stack levels required when called:    9
 This function calls:
		Nothing
 This function is called by:
		i1__doprnt
 This function uses a non-reentrant model


 *************** function i1_fround *****************
 Defined at:
		line 409 in file "C:\Program Files (x86)\Microchip\xc8\v1.45\sources\common\doprnt.c"
 Parameters:    Size  Location     Type
  prec            1    wreg     unsigned char 
 Auto vars:     Size  Location     Type
  prec            1   94[BANK1 ] unsigned char 
 Return value:  Size  Location     Type
                  4   82[BANK1 ] unsigned char 
 Registers used:
		wreg, status,2, status,0, tblptrl, tblptrh, tblptru, prodl, prodh, cstack
 Tracked objects:
		On entry : 
		On exit  : 
		Unchanged: 
 Data sizes:     COMRAM   BANK0   BANK1   BANK2   BANK3   BANK4   BANK5   BANK6   BANK7   BANK8   BANK9  BANK10  BANK11  BANK12  BANK13
      Params:         0       0       4       0       0       0       0       0       0       0       0       0       0       0       0
      Locals:         0       0       9       0       0       0       0       0       0       0       0       0       0       0       0
      Temps:          0       0       0       0       0       0       0       0       0       0       0       0       0       0       0
      Totals:         0       0      13       0       0       0       0       0       0       0       0       0       0       0       0
Total ram usage:       13 bytes
 Hardware stack levels used:    1
 Hardware stack levels required when called:   10
 This function calls:
		i1___awdiv
		i1___awmod
		i1___flmul
 This function is called by:
		i1__doprnt
 This function uses a non-reentrant model


 *************** function i1___awmod *****************
 Defined at:
		line 8 in file "C:\Program Files (x86)\Microchip\xc8\v1.45\sources\common\awmod.c"
 Parameters:    Size  Location     Type
  dividend        2   18[BANK1 ] int 
  divisor         2   20[BANK1 ] int 
 Auto vars:     Size  Location     Type
  __awmod         1   23[BANK1 ] unsigned char 
  __awmod         1   22[BANK1 ] unsigned char 
 Return value:  Size  Location     Type
                  2   18[BANK1 ] int 
 Registers used:
		wreg, status,2, status,0
 Tracked objects:
		On entry : 
		On exit  : 
		Unchanged: 
 Data sizes:     COMRAM   BANK0   BANK1   BANK2   BANK3   BANK4   BANK5   BANK6   BANK7   BANK8   BANK9  BANK10  BANK11  BANK12  BANK13
      Params:         0       0       4       0       0       0       0       0       0       0       0       0       0       0       0
      Locals:         0       0       2       0       0       0       0       0       0       0       0       0       0       0       0
      Temps:          0       0       0       0       0       0       0       0       0       0       0       0       0       0       0
      Totals:         0       0       6       0       0       0       0       0       0       0       0       0       0       0       0
Total ram usage:        6 bytes
 Hardware stack levels used:    1
 Hardware stack levels required when called:    9
 This function calls:
		Nothing
 This function is called by:
		i1_fround
		i1_scale
		i1__doprnt
 This function uses a non-reentrant model


 *************** function i1___awdiv *****************
 Defined at:
		line 8 in file "C:\Program Files (x86)\Microchip\xc8\v1.45\sources\common\awdiv.c"
 Parameters:    Size  Location     Type
  dividend        2   24[BANK1 ] int 
  divisor         2   26[BANK1 ] int 
 Auto vars:     Size  Location     Type
  __awdiv         2   30[BANK1 ] int 
  __awdiv         1   29[BANK1 ] unsigned char 
  __awdiv         1   28[BANK1 ] unsigned char 
 Return value:  Size  Location     Type
                  2   24[BANK1 ] int 
 Registers used:
		wreg, status,2, status,0
 Tracked objects:
		On entry : 
		On exit  : 
		Unchanged: 
 Data sizes:     COMRAM   BANK0   BANK1   BANK2   BANK3   BANK4   BANK5   BANK6   BANK7   BANK8   BANK9  BANK10  BANK11  BANK12  BANK13
      Params:         0       0       4       0       0       0       0       0       0       0       0       0       0       0       0
      Locals:         0       0       4       0       0       0       0       0       0       0       0       0       0       0       0
      Temps:          0       0       0       0       0       0       0       0       0       0       0       0       0       0       0
      Totals:         0       0       8       0       0       0       0       0       0       0       0       0       0       0       0
Total ram usage:        8 bytes
 Hardware stack levels used:    1
 Hardware stack levels required when called:    9
 This function calls:
		Nothing
 This function is called by:
		i1_fround
		i1_scale
		i1__doprnt
 This function uses a non-reentrant model


 *************** function i1__tdiv_to_l_ *****************
 Defined at:
		line 60 in file "C:\Program Files (x86)\Microchip\xc8\v1.45\sources\common\ftdivl.c"
 Parameters:    Size  Location     Type
  f1              3   18[BANK1 ] float 
  f2              3   21[BANK1 ] float 
 Auto vars:     Size  Location     Type
  _tdiv_to_l_     4   27[BANK1 ] unsigned long 
  _tdiv_to_l_     1   32[BANK1 ] unsigned char 
  _tdiv_to_l_     1   31[BANK1 ] unsigned char 
 Return value:  Size  Location     Type
                  4   18[BANK1 ] unsigned long 
 Registers used:
		wreg, status,2, status,0
 Tracked objects:
		On entry : 
		On exit  : 
		Unchanged: 
 Data sizes:     COMRAM   BANK0   BANK1   BANK2   BANK3   BANK4   BANK5   BANK6   BANK7   BANK8   BANK9  BANK10  BANK11  BANK12  BANK13
      Params:         0       0       6       0       0       0       0       0       0       0       0       0       0       0       0
      Locals:         0       0       6       0       0       0       0       0       0       0       0       0       0       0       0
      Temps:          0       0       3       0       0       0       0       0       0       0       0       0       0       0       0
      Totals:         0       0      15       0       0       0       0       0       0       0       0       0       0       0       0
Total ram usage:       15 bytes
 Hardware stack levels used:    1
 Hardware stack levels required when called:    9
 This function calls:
		Nothing
 This function is called by:
		i1__doprnt
 This function uses a non-reentrant model


 *************** function i1__div_to_l_ *****************
 Defined at:
		line 60 in file "C:\Program Files (x86)\Microchip\xc8\v1.45\sources\common\fldivl.c"
 Parameters:    Size  Location     Type
  f1              4   18[BANK1 ] unsigned long 
  f2              4   22[BANK1 ] unsigned long 
 Auto vars:     Size  Location     Type
  _div_to_l_      4   26[BANK1 ] unsigned long 
  _div_to_l_      1   31[BANK1 ] unsigned char 
  _div_to_l_      1   30[BANK1 ] unsigned char 
 Return value:  Size  Location     Type
                  4   18[BANK1 ] unsigned long 
 Registers used:
		wreg, status,2, status,0
 Tracked objects:
		On entry : 
		On exit  : 
		Unchanged: 
 Data sizes:     COMRAM   BANK0   BANK1   BANK2   BANK3   BANK4   BANK5   BANK6   BANK7   BANK8   BANK9  BANK10  BANK11  BANK12  BANK13
      Params:         0       0       8       0       0       0       0       0       0       0       0       0       0       0       0
      Locals:         0       0       6       0       0       0       0       0       0       0       0       0       0       0       0
      Temps:          0       0       0       0       0       0       0       0       0       0       0       0       0       0       0
      Totals:         0       0      14       0       0       0       0       0       0       0       0       0       0       0       0
Total ram usage:       14 bytes
 Hardware stack levels used:    1
 Hardware stack levels required when called:    9
 This function calls:
		Nothing
 This function is called by:
		i1__doprnt
 This function uses a non-reentrant model


 *************** function i1___wmul *****************
 Defined at:
		line 15 in file "C:\Program Files (x86)\Microchip\xc8\v1.45\sources\common\Umul16.c"
 Parameters:    Size  Location     Type
  multiplier      2   18[BANK1 ] unsigned int 
  multiplicand    2   20[BANK1 ] unsigned int 
 Auto vars:     Size  Location     Type
  __wmul          2   22[BANK1 ] unsigned int 
 Return value:  Size  Location     Type
                  2   18[BANK1 ] unsigned int 
 Registers used:
		wreg, status,2, status,0, prodl, prodh
 Tracked objects:
		On entry : 
		On exit  : 
		Unchanged: 
 Data sizes:     COMRAM   BANK0   BANK1   BANK2   BANK3   BANK4   BANK5   BANK6   BANK7   BANK8   BANK9  BANK10  BANK11  BANK12  BANK13
      Params:         0       0       4       0       0       0       0       0       0       0       0       0       0       0       0
      Locals:         0       0       2       0       0       0       0       0       0       0       0       0       0       0       0
      Temps:          0       0       0       0       0       0       0       0       0       0       0       0       0       0       0
      Totals:         0       0       6       0       0       0       0       0       0       0       0       0       0       0       0
Total ram usage:        6 bytes
 Hardware stack levels used:    1
 Hardware stack levels required when called:    9
 This function calls:
		Nothing
 This function is called by:
		i1__doprnt
 This function uses a non-reentrant model


 *************** function i1___llmod *****************
 Defined at:
		line 8 in file "C:\Program Files (x86)\Microchip\xc8\v1.45\sources\common\llmod.c"
 Parameters:    Size  Location     Type
  dividend        4   31[BANK1 ] unsigned long 
  divisor         4   35[BANK1 ] unsigned long 
 Auto vars:     Size  Location     Type
  __llmod         1   39[BANK1 ] unsigned char 
 Return value:  Size  Location     Type
                  4   31[BANK1 ] unsigned long 
 Registers used:
		wreg, status,2, status,0
 Tracked objects:
		On entry : 
		On exit  : 
		Unchanged: 
 Data sizes:     COMRAM   BANK0   BANK1   BANK2   BANK3   BANK4   BANK5   BANK6   BANK7   BANK8   BANK9  BANK10  BANK11  BANK12  BANK13
      Params:         0       0       8       0       0       0       0       0       0       0       0       0       0       0       0
      Locals:         0       0       1       0       0       0       0       0       0       0       0       0       0       0       0
      Temps:          0       0       0       0       0       0       0       0       0       0       0       0       0       0       0
      Totals:         0       0       9       0       0       0       0       0       0       0       0       0       0       0       0
Total ram usage:        9 bytes
 Hardware stack levels used:    1
 Hardware stack levels required when called:    9
 This function calls:
		Nothing
 This function is called by:
		i1__doprnt
 This function uses a non-reentrant model


 *************** function i1___lldiv *****************
 Defined at:
		line 8 in file "C:\Program Files (x86)\Microchip\xc8\v1.45\sources\common\lldiv.c"
 Parameters:    Size  Location     Type
  dividend        4   18[BANK1 ] unsigned long 
  divisor         4   22[BANK1 ] unsigned long 
 Auto vars:     Size  Location     Type
  __lldiv         4   26[BANK1 ] unsigned long 
  __lldiv         1   30[BANK1 ] unsigned char 
 Return value:  Size  Location     Type
                  4   18[BANK1 ] unsigned long 
 Registers used:
		wreg, status,2, status,0
 Tracked objects:
		On entry : 
		On exit  : 
		Unchanged: 
 Data sizes:     COMRAM   BANK0   BANK1   BANK2   BANK3   BANK4   BANK5   BANK6   BANK7   BANK8   BANK9  BANK10  BANK11  BANK12  BANK13
      Params:         0       0       8       0       0       0       0       0       0       0       0       0       0       0       0
      Locals:         0       0       5       0       0       0       0       0       0       0       0       0       0       0       0
      Temps:          0       0       0       0       0       0       0       0       0       0       0       0       0       0       0
      Totals:         0       0      13       0       0       0       0       0       0       0       0       0       0       0       0
Total ram usage:       13 bytes
 Hardware stack levels used:    1
 Hardware stack levels required when called:    9
 This function calls:
		Nothing
 This function is called by:
		i1__doprnt
 This function uses a non-reentrant model


 *************** function i1___flsub *****************
 Defined at:
		line 245 in file "C:\Program Files (x86)\Microchip\xc8\v1.45\sources\common\sprcadd.c"
 Parameters:    Size  Location     Type
  b               4  149[BANK1 ] unsigned long 
  a               4  153[BANK1 ] unsigned long 
 Auto vars:     Size  Location     Type
		None
 Return value:  Size  Location     Type
                  4  149[BANK1 ] unsigned long 
 Registers used:
		wreg, status,2, status,0, cstack
 Tracked objects:
		On entry : 
		On exit  : 
		Unchanged: 
 Data sizes:     COMRAM   BANK0   BANK1   BANK2   BANK3   BANK4   BANK5   BANK6   BANK7   BANK8   BANK9  BANK10  BANK11  BANK12  BANK13
      Params:         0       0       8       0       0       0       0       0       0       0       0       0       0       0       0
      Locals:         0       0       0       0       0       0       0       0       0       0       0       0       0       0       0
      Temps:          0       0       0       0       0       0       0       0       0       0       0       0       0       0       0
      Totals:         0       0       8       0       0       0       0       0       0       0       0       0       0       0       0
Total ram usage:        8 bytes
 Hardware stack levels used:    1
 Hardware stack levels required when called:   10
 This function calls:
		i1___fladd
 This function is called by:
		i1__doprnt
 This function uses a non-reentrant model


 *************** function i1_round *****************
 Defined at:
		line 6 in file "C:\Program Files (x86)\Microchip\xc8\v1.45\sources\common\round.c"
 Parameters:    Size  Location     Type
  x               4    4[BANK2 ] unsigned long 
 Auto vars:     Size  Location     Type
  round           4    8[BANK2 ] unsigned long 
 Return value:  Size  Location     Type
                  4    4[BANK2 ] unsigned long 
 Registers used:
		wreg, fsr2l, fsr2h, status,2, status,0, cstack
 Tracked objects:
		On entry : 
		On exit  : 
		Unchanged: 
 Data sizes:     COMRAM   BANK0   BANK1   BANK2   BANK3   BANK4   BANK5   BANK6   BANK7   BANK8   BANK9  BANK10  BANK11  BANK12  BANK13
      Params:         0       0       0       4       0       0       0       0       0       0       0       0       0       0       0
      Locals:         0       0       0       4       0       0       0       0       0       0       0       0       0       0       0
      Temps:          0       0       0       0       0       0       0       0       0       0       0       0       0       0       0
      Totals:         0       0       0       8       0       0       0       0       0       0       0       0       0       0       0
Total ram usage:        8 bytes
 Hardware stack levels used:    1
 Hardware stack levels required when called:   11
 This function calls:
		i1___fladd
		i1___flneg
		i1_trunc
 This function is called by:
		i1_OLED_updateCallback
 This function uses a non-reentrant model


 *************** function i1_trunc *****************
 Defined at:
		line 13 in file "C:\Program Files (x86)\Microchip\xc8\v1.45\sources\common\trunc.c"
 Parameters:    Size  Location     Type
  x               4  115[BANK1 ] unsigned long 
 Auto vars:     Size  Location     Type
  trunc           4  119[BANK1 ] unsigned long 
  trunc           2  123[BANK1 ] int 
 Return value:  Size  Location     Type
                  4  115[BANK1 ] int 
 Registers used:
		wreg, fsr2l, fsr2h, status,2, status,0, cstack
 Tracked objects:
		On entry : 
		On exit  : 
		Unchanged: 
 Data sizes:     COMRAM   BANK0   BANK1   BANK2   BANK3   BANK4   BANK5   BANK6   BANK7   BANK8   BANK9  BANK10  BANK11  BANK12  BANK13
      Params:         0       0       4       0       0       0       0       0       0       0       0       0       0       0       0
      Locals:         0       0       6       0       0       0       0       0       0       0       0       0       0       0       0
      Temps:          0       0       0       0       0       0       0       0       0       0       0       0       0       0       0
      Totals:         0       0      10       0       0       0       0       0       0       0       0       0       0       0       0
Total ram usage:       10 bytes
 Hardware stack levels used:    1
 Hardware stack levels required when called:   10
 This function calls:
		i1___fltol
		i1___xxtofl
		i1_frexp
 This function is called by:
		i1_round
 This function uses a non-reentrant model


 *************** function i1_frexp *****************
 Defined at:
		line 254 in file "C:\Program Files (x86)\Microchip\xc8\v1.45\sources\common\frexp.c"
 Parameters:    Size  Location     Type
  value           4   18[BANK1 ] int 
  eptr            2   22[BANK1 ] PTR int 
		 -> floor@expon(2), trunc@expon(2), 
 Auto vars:     Size  Location     Type
		None
 Return value:  Size  Location     Type
                  4   18[BANK1 ] PTR int 
 Registers used:
		wreg, fsr2l, fsr2h, status,2, status,0
 Tracked objects:
		On entry : 
		On exit  : 
		Unchanged: 
 Data sizes:     COMRAM   BANK0   BANK1   BANK2   BANK3   BANK4   BANK5   BANK6   BANK7   BANK8   BANK9  BANK10  BANK11  BANK12  BANK13
      Params:         0       0       6       0       0       0       0       0       0       0       0       0       0       0       0
      Locals:         0       0       0       0       0       0       0       0       0       0       0       0       0       0       0
      Temps:          0       0       2       0       0       0       0       0       0       0       0       0       0       0       0
      Totals:         0       0       8       0       0       0       0       0       0       0       0       0       0       0       0
Total ram usage:        8 bytes
 Hardware stack levels used:    1
 Hardware stack levels required when called:    9
 This function calls:
		Nothing
 This function is called by:
		i1_trunc
 This function uses a non-reentrant model


 *************** function i1___xxtofl *****************
 Defined at:
		line 10 in file "C:\Program Files (x86)\Microchip\xc8\v1.45\sources\common\xxtofl.c"
 Parameters:    Size  Location     Type
  sign            1    wreg     unsigned char 
  val             4  101[BANK1 ] long 
 Auto vars:     Size  Location     Type
  sign            1  109[BANK1 ] unsigned char 
  __xxtofl        4  111[BANK1 ] unsigned long 
  __xxtofl        1  110[BANK1 ] unsigned char 
 Return value:  Size  Location     Type
                  4  101[BANK1 ] unsigned char 
 Registers used:
		wreg, status,2, status,0
 Tracked objects:
		On entry : 
		On exit  : 
		Unchanged: 
 Data sizes:     COMRAM   BANK0   BANK1   BANK2   BANK3   BANK4   BANK5   BANK6   BANK7   BANK8   BANK9  BANK10  BANK11  BANK12  BANK13
      Params:         0       0       4       0       0       0       0       0       0       0       0       0       0       0       0
      Locals:         0       0       6       0       0       0       0       0       0       0       0       0       0       0       0
      Temps:          0       0       4       0       0       0       0       0       0       0       0       0       0       0       0
      Totals:         0       0      14       0       0       0       0       0       0       0       0       0       0       0       0
Total ram usage:       14 bytes
 Hardware stack levels used:    1
 Hardware stack levels required when called:    9
 This function calls:
		Nothing
 This function is called by:
		i1__doprnt
		i1_trunc
 This function uses a non-reentrant model


 *************** function i1___fltol *****************
 Defined at:
		line 43 in file "C:\Program Files (x86)\Microchip\xc8\v1.45\sources\common\fltol.c"
 Parameters:    Size  Location     Type
  f1              4   91[BANK1 ] unsigned char 
 Auto vars:     Size  Location     Type
  __fltol         1  100[BANK1 ] unsigned char 
  __fltol         1   99[BANK1 ] unsigned char 
 Return value:  Size  Location     Type
                  4   91[BANK1 ] long 
 Registers used:
		wreg, status,2, status,0
 Tracked objects:
		On entry : 
		On exit  : 
		Unchanged: 
 Data sizes:     COMRAM   BANK0   BANK1   BANK2   BANK3   BANK4   BANK5   BANK6   BANK7   BANK8   BANK9  BANK10  BANK11  BANK12  BANK13
      Params:         0       0       4       0       0       0       0       0       0       0       0       0       0       0       0
      Locals:         0       0       2       0       0       0       0       0       0       0       0       0       0       0       0
      Temps:          0       0       4       0       0       0       0       0       0       0       0       0       0       0       0
      Totals:         0       0      10       0       0       0       0       0       0       0       0       0       0       0       0
Total ram usage:       10 bytes
 Hardware stack levels used:    1
 Hardware stack levels required when called:    9
 This function calls:
		Nothing
 This function is called by:
		i1__doprnt
		i1_trunc
 This function uses a non-reentrant model


 *************** function i1_getMinorRevisionID *****************
 Defined at:
		line 23 in file "device_IDs.c"
 Parameters:    Size  Location     Type
		None
 Auto vars:     Size  Location     Type
  getMinorRevi    2   29[BANK1 ] unsigned int 
 Return value:  Size  Location     Type
                  1    wreg      unsigned char 
 Registers used:
		wreg, status,2, status,0, cstack
 Tracked objects:
		On entry : 
		On exit  : 
		Unchanged: 
 Data sizes:     COMRAM   BANK0   BANK1   BANK2   BANK3   BANK4   BANK5   BANK6   BANK7   BANK8   BANK9  BANK10  BANK11  BANK12  BANK13
      Params:         0       0       0       0       0       0       0       0       0       0       0       0       0       0       0
      Locals:         0       0       2       0       0       0       0       0       0       0       0       0       0       0       0
      Temps:          0       0       0       0       0       0       0       0       0       0       0       0       0       0       0
      Totals:         0       0       2       0       0       0       0       0       0       0       0       0       0       0       0
Total ram usage:        2 bytes
 Hardware stack levels used:    1
 Hardware stack levels required when called:   11
 This function calls:
		i1_FLASH_ReadWord
 This function is called by:
		i1_OLED_updateCallback
 This function uses a non-reentrant model


 *************** function i1_getMajorRevisionID *****************
 Defined at:
		line 12 in file "device_IDs.c"
 Parameters:    Size  Location     Type
		None
 Auto vars:     Size  Location     Type
  getMajorRevi    2   32[BANK1 ] unsigned int 
 Return value:  Size  Location     Type
                  1    wreg      unsigned char 
 Registers used:
		wreg, status,2, status,0, cstack
 Tracked objects:
		On entry : 
		On exit  : 
		Unchanged: 
 Data sizes:     COMRAM   BANK0   BANK1   BANK2   BANK3   BANK4   BANK5   BANK6   BANK7   BANK8   BANK9  BANK10  BANK11  BANK12  BANK13
      Params:         0       0       0       0       0       0       0       0       0       0       0       0       0       0       0
      Locals:         0       0       2       0       0       0       0       0       0       0       0       0       0       0       0
      Temps:          0       0       3       0       0       0       0       0       0       0       0       0       0       0       0
      Totals:         0       0       5       0       0       0       0       0       0       0       0       0       0       0       0
Total ram usage:        5 bytes
 Hardware stack levels used:    1
 Hardware stack levels required when called:   11
 This function calls:
		i1_FLASH_ReadWord
 This function is called by:
		i1_OLED_updateCallback
 This function uses a non-reentrant model


 *************** function i1_getDeviceID *****************
 Defined at:
		line 4 in file "device_IDs.c"
 Parameters:    Size  Location     Type
		None
 Auto vars:     Size  Location     Type
		None
 Return value:  Size  Location     Type
                  2   29[BANK1 ] unsigned int 
 Registers used:
		wreg, status,2, status,0, cstack
 Tracked objects:
		On entry : 
		On exit  : 
		Unchanged: 
 Data sizes:     COMRAM   BANK0   BANK1   BANK2   BANK3   BANK4   BANK5   BANK6   BANK7   BANK8   BANK9  BANK10  BANK11  BANK12  BANK13
      Params:         0       0       2       0       0       0       0       0       0       0       0       0       0       0       0
      Locals:         0       0       0       0       0       0       0       0       0       0       0       0       0       0       0
      Temps:          0       0       0       0       0       0       0       0       0       0       0       0       0       0       0
      Totals:         0       0       2       0       0       0       0       0       0       0       0       0       0       0       0
Total ram usage:        2 bytes
 Hardware stack levels used:    1
 Hardware stack levels required when called:   11
 This function calls:
		i1_FLASH_ReadWord
 This function is called by:
		i1_OLED_updateCallback
 This function uses a non-reentrant model


 *************** function i1_FLASH_ReadWord *****************
 Defined at:
		line 71 in file "mcc_generated_files/memory.c"
 Parameters:    Size  Location     Type
  flashAddr       4   22[BANK1 ] unsigned long 
 Auto vars:     Size  Location     Type
		None
 Return value:  Size  Location     Type
                  2   22[BANK1 ] unsigned int 
 Registers used:
		wreg, status,2, status,0, cstack
 Tracked objects:
		On entry : 
		On exit  : 
		Unchanged: 
 Data sizes:     COMRAM   BANK0   BANK1   BANK2   BANK3   BANK4   BANK5   BANK6   BANK7   BANK8   BANK9  BANK10  BANK11  BANK12  BANK13
      Params:         0       0       4       0       0       0       0       0       0       0       0       0       0       0       0
      Locals:         0       0       0       0       0       0       0       0       0       0       0       0       0       0       0
      Temps:          0       0       3       0       0       0       0       0       0       0       0       0       0       0       0
      Totals:         0       0       7       0       0       0       0       0       0       0       0       0       0       0       0
Total ram usage:        7 bytes
 Hardware stack levels used:    1
 Hardware stack levels required when called:   10
 This function calls:
		i1_FLASH_ReadByte
 This function is called by:
		i1_getDeviceID
		i1_getMajorRevisionID
		i1_getMinorRevisionID
 This function uses a non-reentrant model


 *************** function i1_FLASH_ReadByte *****************
 Defined at:
		line 59 in file "mcc_generated_files/memory.c"
 Parameters:    Size  Location     Type
  flashAddr       4   18[BANK1 ] unsigned long 
 Auto vars:     Size  Location     Type
		None
 Return value:  Size  Location     Type
                  1    wreg      unsigned char 
 Registers used:
		wreg, status,2
 Tracked objects:
		On entry : 
		On exit  : 
		Unchanged: 
 Data sizes:     COMRAM   BANK0   BANK1   BANK2   BANK3   BANK4   BANK5   BANK6   BANK7   BANK8   BANK9  BANK10  BANK11  BANK12  BANK13
      Params:         0       0       4       0       0       0       0       0       0       0       0       0       0       0       0
      Locals:         0       0       0       0       0       0       0       0       0       0       0       0       0       0       0
      Temps:          0       0       0       0       0       0       0       0       0       0       0       0       0       0       0
      Totals:         0       0       4       0       0       0       0       0       0       0       0       0       0       0       0
Total ram usage:        4 bytes
 Hardware stack levels used:    1
 Hardware stack levels required when called:    9
 This function calls:
		Nothing
 This function is called by:
		i1_FLASH_ReadWord
 This function uses a non-reentrant model


 *************** function i1_getCauseOfResetStringSmall *****************
 Defined at:
		line 118 in file "cause_of_reset.c"
 Parameters:    Size  Location     Type
  r               1    wreg     enum E17455
 Auto vars:     Size  Location     Type
  r               1   20[BANK1 ] enum E17455
 Return value:  Size  Location     Type
                  2   18[BANK1 ] PTR inline unsigned char
 Registers used:
		wreg, fsr2l, fsr2h, status,2, status,0, prodl, prodh
 Tracked objects:
		On entry : 
		On exit  : 
		Unchanged: 
 Data sizes:     COMRAM   BANK0   BANK1   BANK2   BANK3   BANK4   BANK5   BANK6   BANK7   BANK8   BANK9  BANK10  BANK11  BANK12  BANK13
      Params:         0       0       2       0       0       0       0       0       0       0       0       0       0       0       0
      Locals:         0       0       1       0       0       0       0       0       0       0       0       0       0       0       0
      Temps:          0       0       0       0       0       0       0       0       0       0       0       0       0       0       0
      Totals:         0       0       3       0       0       0       0       0       0       0       0       0       0       0       0
Total ram usage:        3 bytes
 Hardware stack levels used:    1
 Hardware stack levels required when called:    9
 This function calls:
		Nothing
 This function is called by:
		i1_OLED_updateCallback
 This function uses a non-reentrant model


 *************** function i1_acos *****************
 Defined at:
		line 8 in file "C:\Program Files (x86)\Microchip\xc8\v1.45\sources\common\acos.c"
 Parameters:    Size  Location     Type
  x               4  210[BANK1 ] PTR inline unsigned char
 Auto vars:     Size  Location     Type
		None
 Return value:  Size  Location     Type
                  4  210[BANK1 ] PTR inline unsigned char
 Registers used:
		wreg, status,2, status,0, tblptrl, tblptrh, tblptru, prodl, prodh, cstack
 Tracked objects:
		On entry : 
		On exit  : 
		Unchanged: 
 Data sizes:     COMRAM   BANK0   BANK1   BANK2   BANK3   BANK4   BANK5   BANK6   BANK7   BANK8   BANK9  BANK10  BANK11  BANK12  BANK13
      Params:         0       0       4       0       0       0       0       0       0       0       0       0       0       0       0
      Locals:         0       0       0       4       0       0       0       0       0       0       0       0       0       0       0
      Temps:          0       0       0       0       0       0       0       0       0       0       0       0       0       0       0
      Totals:         0       0       4       4       0       0       0       0       0       0       0       0       0       0       0
Total ram usage:        8 bytes
 Hardware stack levels used:    1
 Hardware stack levels required when called:   13
 This function calls:
		i1___fladd
		i1___flneg
		i1_asin
 This function is called by:
		i1_OLED_updateCallback
 This function uses a non-reentrant model


 *************** function i1_asin *****************
 Defined at:
		line 9 in file "C:\Program Files (x86)\Microchip\xc8\v1.45\sources\common\asin.c"
 Parameters:    Size  Location     Type
  x               4  186[BANK1 ] PTR inline unsigned char
 Auto vars:     Size  Location     Type
  asin            4  202[BANK1 ] PTR inline unsigned char
  asin            4  190[BANK1 ] PTR inline unsigned char
 Return value:  Size  Location     Type
                  4  186[BANK1 ] PTR inline unsigned char
 Registers used:
		wreg, status,2, status,0, tblptrl, tblptrh, tblptru, prodl, prodh, cstack
 Tracked objects:
		On entry : 
		On exit  : 
		Unchanged: 
 Data sizes:     COMRAM   BANK0   BANK1   BANK2   BANK3   BANK4   BANK5   BANK6   BANK7   BANK8   BANK9  BANK10  BANK11  BANK12  BANK13
      Params:         0       0       4       0       0       0       0       0       0       0       0       0       0       0       0
      Locals:         0       0      20       0       0       0       0       0       0       0       0       0       0       0       0
      Temps:          0       0       0       0       0       0       0       0       0       0       0       0       0       0       0
      Totals:         0       0      24       0       0       0       0       0       0       0       0       0       0       0       0
Total ram usage:       24 bytes
 Hardware stack levels used:    1
 Hardware stack levels required when called:   12
 This function calls:
		i1___fladd
		i1___fldiv
		i1___flge
		i1___flmul
		i1___flneg
		i1_atan
		i1_fabs
		i1_sqrt
 This function is called by:
		i1_acos
 This function uses a non-reentrant model


 *************** function i1_sqrt *****************
 Defined at:
		line 9 in file "C:\Program Files (x86)\Microchip\xc8\v1.45\sources\common\sprcsqrt.c"
 Parameters:    Size  Location     Type
  a               4  149[BANK1 ] PTR inline unsigned char
 Auto vars:     Size  Location     Type
  sqrt            4  174[BANK1 ] unsigned long 
  sqrt            4  170[BANK1 ] struct .
  sqrt            4  164[BANK1 ] unsigned long 
  sqrt            4  159[BANK1 ] unsigned long 
  sqrt            2  168[BANK1 ] int 
  sqrt            1  163[BANK1 ] unsigned char 
  sqrt            1  158[BANK1 ] unsigned char 
  sqrt            1  157[BANK1 ] unsigned char 
 Return value:  Size  Location     Type
                  4  149[BANK1 ] unsigned char 
 Registers used:
		wreg, status,2, status,0
 Tracked objects:
		On entry : 
		On exit  : 
		Unchanged: 
 Data sizes:     COMRAM   BANK0   BANK1   BANK2   BANK3   BANK4   BANK5   BANK6   BANK7   BANK8   BANK9  BANK10  BANK11  BANK12  BANK13
      Params:         0       0       4       0       0       0       0       0       0       0       0       0       0       0       0
      Locals:         0       0      21       0       0       0       0       0       0       0       0       0       0       0       0
      Temps:          0       0       4       0       0       0       0       0       0       0       0       0       0       0       0
      Totals:         0       0      29       0       0       0       0       0       0       0       0       0       0       0       0
Total ram usage:       29 bytes
 Hardware stack levels used:    1
 Hardware stack levels required when called:    9
 This function calls:
		Nothing
 This function is called by:
		i1_asin
 This function uses a non-reentrant model


 *************** function i1_atan *****************
 Defined at:
		line 8 in file "C:\Program Files (x86)\Microchip\xc8\v1.45\sources\common\atan.c"
 Parameters:    Size  Location     Type
  f               4  165[BANK1 ] unsigned char 
 Auto vars:     Size  Location     Type
  atan            4  182[BANK1 ] unsigned char 
  atan            4  178[BANK1 ] unsigned char 
  atan            4  173[BANK1 ] unsigned char 
  atan            4  169[BANK1 ] unsigned char 
  atan            1  177[BANK1 ] unsigned char 
 Return value:  Size  Location     Type
                  4  165[BANK1 ] unsigned char 
 Registers used:
		wreg, status,2, status,0, tblptrl, tblptrh, tblptru, prodl, prodh, cstack
 Tracked objects:
		On entry : 
		On exit  : 
		Unchanged: 
 Data sizes:     COMRAM   BANK0   BANK1   BANK2   BANK3   BANK4   BANK5   BANK6   BANK7   BANK8   BANK9  BANK10  BANK11  BANK12  BANK13
      Params:         0       0       4       0       0       0       0       0       0       0       0       0       0       0       0
      Locals:         0       0      17       0       0       0       0       0       0       0       0       0       0       0       0
      Temps:          0       0       0       0       0       0       0       0       0       0       0       0       0       0       0
      Totals:         0       0      21       0       0       0       0       0       0       0       0       0       0       0       0
Total ram usage:       21 bytes
 Hardware stack levels used:    1
 Hardware stack levels required when called:   11
 This function calls:
		i1___fladd
		i1___fldiv
		i1___flge
		i1___flmul
		i1___flneg
		i1_eval_poly
		i1_fabs
 This function is called by:
		i1_asin
 This function uses a non-reentrant model


 *************** function i1_fabs *****************
 Defined at:
		line 4 in file "C:\Program Files (x86)\Microchip\xc8\v1.45\sources\common\fabs.c"
 Parameters:    Size  Location     Type
  d               4  129[BANK1 ] unsigned char 
 Auto vars:     Size  Location     Type
		None
 Return value:  Size  Location     Type
                  4  129[BANK1 ] unsigned char 
 Registers used:
		wreg, status,2, status,0, cstack
 Tracked objects:
		On entry : 
		On exit  : 
		Unchanged: 
 Data sizes:     COMRAM   BANK0   BANK1   BANK2   BANK3   BANK4   BANK5   BANK6   BANK7   BANK8   BANK9  BANK10  BANK11  BANK12  BANK13
      Params:         0       0       4       0       0       0       0       0       0       0       0       0       0       0       0
      Locals:         0       0       0       0       0       0       0       0       0       0       0       0       0       0       0
      Temps:          0       0       0       0       0       0       0       0       0       0       0       0       0       0       0
      Totals:         0       0       4       0       0       0       0       0       0       0       0       0       0       0       0
Total ram usage:        4 bytes
 Hardware stack levels used:    1
 Hardware stack levels required when called:   10
 This function calls:
		i1___flneg
 This function is called by:
		i1_asin
		i1_atan
 This function uses a non-reentrant model


 *************** function i1___flneg *****************
 Defined at:
		line 15 in file "C:\Program Files (x86)\Microchip\xc8\v1.45\sources\common\flneg.c"
 Parameters:    Size  Location     Type
  f1              4  125[BANK1 ] unsigned char 
 Auto vars:     Size  Location     Type
		None
 Return value:  Size  Location     Type
                  4  125[BANK1 ] unsigned char 
 Registers used:
		wreg, status,2, status,0
 Tracked objects:
		On entry : 
		On exit  : 
		Unchanged: 
 Data sizes:     COMRAM   BANK0   BANK1   BANK2   BANK3   BANK4   BANK5   BANK6   BANK7   BANK8   BANK9  BANK10  BANK11  BANK12  BANK13
      Params:         0       0       4       0       0       0       0       0       0       0       0       0       0       0       0
      Locals:         0       0       0       0       0       0       0       0       0       0       0       0       0       0       0
      Temps:          0       0       0       0       0       0       0       0       0       0       0       0       0       0       0
      Totals:         0       0       4       0       0       0       0       0       0       0       0       0       0       0       0
Total ram usage:        4 bytes
 Hardware stack levels used:    1
 Hardware stack levels required when called:    9
 This function calls:
		Nothing
 This function is called by:
		i1__doprnt
		i1_acos
		i1_asin
		i1_atan
		i1_fabs
		i1_round
 This function uses a non-reentrant model


 *************** function i1_eval_poly *****************
 Defined at:
		line 4 in file "C:\Program Files (x86)\Microchip\xc8\v1.45\sources\common\evalpoly.c"
 Parameters:    Size  Location     Type
  x               4  149[BANK1 ] unsigned char 
  d               2  153[BANK1 ] PTR const 
		 -> sin@coeff_a(20), sin@coeff_b(16), atan@coeff_a(24), atan@coeff_b(20), 
  n               2  155[BANK1 ] int 
 Auto vars:     Size  Location     Type
  eval_poly       4  161[BANK1 ] int 
 Return value:  Size  Location     Type
                  4  149[BANK1 ] int 
 Registers used:
		wreg, status,2, status,0, tblptrl, tblptrh, tblptru, prodl, prodh, cstack
 Tracked objects:
		On entry : 
		On exit  : 
		Unchanged: 
 Data sizes:     COMRAM   BANK0   BANK1   BANK2   BANK3   BANK4   BANK5   BANK6   BANK7   BANK8   BANK9  BANK10  BANK11  BANK12  BANK13
      Params:         0       0       8       0       0       0       0       0       0       0       0       0       0       0       0
      Locals:         0       0       4       0       0       0       0       0       0       0       0       0       0       0       0
      Temps:          0       0       4       0       0       0       0       0       0       0       0       0       0       0       0
      Totals:         0       0      16       0       0       0       0       0       0       0       0       0       0       0       0
Total ram usage:       16 bytes
 Hardware stack levels used:    1
 Hardware stack levels required when called:   10
 This function calls:
		i1___fladd
		i1___flmul
 This function is called by:
		i1_atan
 This function uses a non-reentrant model


 *************** function i1___flmul *****************
 Defined at:
		line 8 in file "C:\Program Files (x86)\Microchip\xc8\v1.45\sources\common\sprcmul.c"
 Parameters:    Size  Location     Type
  b               4   57[BANK1 ] int 
  a               4   61[BANK1 ] int 
 Auto vars:     Size  Location     Type
  __flmul         4   76[BANK1 ] struct .
  __flmul         4   71[BANK1 ] unsigned long 
  __flmul         2   80[BANK1 ] struct .
  __flmul         1   75[BANK1 ] unsigned char 
  __flmul         1   70[BANK1 ] unsigned char 
  __flmul         1   69[BANK1 ] unsigned char 
 Return value:  Size  Location     Type
                  4   57[BANK1 ] unsigned char 
 Registers used:
		wreg, status,2, status,0, prodl, prodh
 Tracked objects:
		On entry : 
		On exit  : 
		Unchanged: 
 Data sizes:     COMRAM   BANK0   BANK1   BANK2   BANK3   BANK4   BANK5   BANK6   BANK7   BANK8   BANK9  BANK10  BANK11  BANK12  BANK13
      Params:         0       0       8       0       0       0       0       0       0       0       0       0       0       0       0
      Locals:         0       0      13       0       0       0       0       0       0       0       0       0       0       0       0
      Temps:          0       0       4       0       0       0       0       0       0       0       0       0       0       0       0
      Totals:         0       0      25       0       0       0       0       0       0       0       0       0       0       0       0
Total ram usage:       25 bytes
 Hardware stack levels used:    1
 Hardware stack levels required when called:    9
 This function calls:
		Nothing
 This function is called by:
		i1_OLED_updateCallback
		i1_fround
		i1_scale
		i1__doprnt
		i1_asin
		i1_atan
		i1_eval_poly
 This function uses a non-reentrant model


 *************** function i1___fladd *****************
 Defined at:
		line 10 in file "C:\Program Files (x86)\Microchip\xc8\v1.45\sources\common\sprcadd.c"
 Parameters:    Size  Location     Type
  b               4  129[BANK1 ] unsigned char 
  a               4  133[BANK1 ] unsigned char 
 Auto vars:     Size  Location     Type
  __fladd         1  148[BANK1 ] unsigned char 
  __fladd         1  147[BANK1 ] unsigned char 
  __fladd         1  146[BANK1 ] unsigned char 
  __fladd         1  145[BANK1 ] unsigned char 
 Return value:  Size  Location     Type
                  4  129[BANK1 ] unsigned char 
 Registers used:
		wreg, status,2, status,0
 Tracked objects:
		On entry : 
		On exit  : 
		Unchanged: 
 Data sizes:     COMRAM   BANK0   BANK1   BANK2   BANK3   BANK4   BANK5   BANK6   BANK7   BANK8   BANK9  BANK10  BANK11  BANK12  BANK13
      Params:         0       0       8       0       0       0       0       0       0       0       0       0       0       0       0
      Locals:         0       0       4       0       0       0       0       0       0       0       0       0       0       0       0
      Temps:          0       0       8       0       0       0       0       0       0       0       0       0       0       0       0
      Totals:         0       0      20       0       0       0       0       0       0       0       0       0       0       0       0
Total ram usage:       20 bytes
 Hardware stack levels used:    1
 Hardware stack levels required when called:    9
 This function calls:
		Nothing
 This function is called by:
		i1__doprnt
		i1_acos
		i1_asin
		i1_atan
		i1_eval_poly
		i1_round
		i1___flsub
 This function uses a non-reentrant model


 *************** function i1___flge *****************
 Defined at:
		line 4 in file "C:\Program Files (x86)\Microchip\xc8\v1.45\sources\common\flge.c"
 Parameters:    Size  Location     Type
  ff1             4  149[BANK1 ] unsigned char 
  ff2             4  153[BANK1 ] unsigned char 
 Auto vars:     Size  Location     Type
		None
 Return value:  Size  Location     Type
		None               void
 Registers used:
		wreg, status,2, status,0
 Tracked objects:
		On entry : 
		On exit  : 
		Unchanged: 
 Data sizes:     COMRAM   BANK0   BANK1   BANK2   BANK3   BANK4   BANK5   BANK6   BANK7   BANK8   BANK9  BANK10  BANK11  BANK12  BANK13
      Params:         0       0       8       0       0       0       0       0       0       0       0       0       0       0       0
      Locals:         0       0       0       0       0       0       0       0       0       0       0       0       0       0       0
      Temps:          0       0       4       0       0       0       0       0       0       0       0       0       0       0       0
      Totals:         0       0      12       0       0       0       0       0       0       0       0       0       0       0       0
Total ram usage:       12 bytes
 Hardware stack levels used:    1
 Hardware stack levels required when called:    9
 This function calls:
		Nothing
 This function is called by:
		i1_OLED_updateCallback
		i1__doprnt
		i1_asin
		i1_atan
 This function uses a non-reentrant model


 *************** function i1___fldiv *****************
 Defined at:
		line 11 in file "C:\Program Files (x86)\Microchip\xc8\v1.45\sources\common\sprcdiv.c"
 Parameters:    Size  Location     Type
  b               4   32[BANK1 ] unsigned char 
  a               4   36[BANK1 ] unsigned char 
 Auto vars:     Size  Location     Type
  __fldiv         4   51[BANK1 ] unsigned long 
  __fldiv         4   45[BANK1 ] unsigned long 
  __fldiv         2   49[BANK1 ] int 
  __fldiv         1   56[BANK1 ] unsigned char 
  __fldiv         1   55[BANK1 ] unsigned char 
  __fldiv         1   44[BANK1 ] unsigned char 
 Return value:  Size  Location     Type
                  4   32[BANK1 ] unsigned char 
 Registers used:
		wreg, status,2, status,0
 Tracked objects:
		On entry : 
		On exit  : 
		Unchanged: 
 Data sizes:     COMRAM   BANK0   BANK1   BANK2   BANK3   BANK4   BANK5   BANK6   BANK7   BANK8   BANK9  BANK10  BANK11  BANK12  BANK13
      Params:         0       0       8       0       0       0       0       0       0       0       0       0       0       0       0
      Locals:         0       0      13       0       0       0       0       0       0       0       0       0       0       0       0
      Temps:          0       0       4       0       0       0       0       0       0       0       0       0       0       0       0
      Totals:         0       0      25       0       0       0       0       0       0       0       0       0       0       0       0
Total ram usage:       25 bytes
 Hardware stack levels used:    1
 Hardware stack levels required when called:    9
 This function calls:
		Nothing
 This function is called by:
		i1_OLED_updateCallback
		i1__doprnt
		i1_asin
		i1_atan
 This function uses a non-reentrant model


 *************** function i1___lwtoft *****************
 Defined at:
		line 28 in file "C:\Program Files (x86)\Microchip\xc8\v1.45\sources\common\lwtoft.c"
 Parameters:    Size  Location     Type
  c               2   26[BANK1 ] unsigned int 
 Auto vars:     Size  Location     Type
		None
 Return value:  Size  Location     Type
                  3   26[BANK1 ] float 
 Registers used:
		wreg, status,2, status,0, cstack
 Tracked objects:
		On entry : 
		On exit  : 
		Unchanged: 
 Data sizes:     COMRAM   BANK0   BANK1   BANK2   BANK3   BANK4   BANK5   BANK6   BANK7   BANK8   BANK9  BANK10  BANK11  BANK12  BANK13
      Params:         0       0       3       0       0       0       0       0       0       0       0       0       0       0       0
      Locals:         0       0       0       0       0       0       0       0       0       0       0       0       0       0       0
      Temps:          0       0       0       0       0       0       0       0       0       0       0       0       0       0       0
      Totals:         0       0       3       0       0       0       0       0       0       0       0       0       0       0       0
Total ram usage:        3 bytes
 Hardware stack levels used:    1
 Hardware stack levels required when called:   10
 This function calls:
		i1___ftpack
 This function is called by:
		i1_OLED_updateCallback
 This function uses a non-reentrant model


 *************** function i1___ftdiv *****************
 Defined at:
		line 54 in file "C:\Program Files (x86)\Microchip\xc8\v1.45\sources\common\ftdiv.c"
 Parameters:    Size  Location     Type
  f1              3   29[BANK1 ] float 
  f2              3   32[BANK1 ] float 
 Auto vars:     Size  Location     Type
  __ftdiv         3   39[BANK1 ] float 
  __ftdiv         1   43[BANK1 ] unsigned char 
  __ftdiv         1   42[BANK1 ] unsigned char 
  __ftdiv         1   38[BANK1 ] unsigned char 
 Return value:  Size  Location     Type
                  3   29[BANK1 ] float 
 Registers used:
		wreg, status,2, status,0, cstack
 Tracked objects:
		On entry : 
		On exit  : 
		Unchanged: 
 Data sizes:     COMRAM   BANK0   BANK1   BANK2   BANK3   BANK4   BANK5   BANK6   BANK7   BANK8   BANK9  BANK10  BANK11  BANK12  BANK13
      Params:         0       0       6       0       0       0       0       0       0       0       0       0       0       0       0
      Locals:         0       0       6       0       0       0       0       0       0       0       0       0       0       0       0
      Temps:          0       0       3       0       0       0       0       0       0       0       0       0       0       0       0
      Totals:         0       0      15       0       0       0       0       0       0       0       0       0       0       0       0
Total ram usage:       15 bytes
 Hardware stack levels used:    1
 Hardware stack levels required when called:   10
 This function calls:
		i1___ftpack
 This function is called by:
		i1_OLED_updateCallback
 This function uses a non-reentrant model


 *************** function i1___ftpack *****************
 Defined at:
		line 62 in file "C:\Program Files (x86)\Microchip\xc8\v1.45\sources\common\float.c"
 Parameters:    Size  Location     Type
  arg             3   18[BANK1 ] unsigned um
  exp             1   21[BANK1 ] unsigned char 
  sign            1   22[BANK1 ] unsigned char 
 Auto vars:     Size  Location     Type
		None
 Return value:  Size  Location     Type
                  3   18[BANK1 ] float 
 Registers used:
		wreg, status,2, status,0
 Tracked objects:
		On entry : 
		On exit  : 
		Unchanged: 
 Data sizes:     COMRAM   BANK0   BANK1   BANK2   BANK3   BANK4   BANK5   BANK6   BANK7   BANK8   BANK9  BANK10  BANK11  BANK12  BANK13
      Params:         0       0       5       0       0       0       0       0       0       0       0       0       0       0       0
      Locals:         0       0       0       0       0       0       0       0       0       0       0       0       0       0       0
      Temps:          0       0       3       0       0       0       0       0       0       0       0       0       0       0       0
      Totals:         0       0       8       0       0       0       0       0       0       0       0       0       0       0       0
Total ram usage:        8 bytes
 Hardware stack levels used:    1
 Hardware stack levels required when called:    9
 This function calls:
		Nothing
 This function is called by:
		i1___ftdiv
		i1___lwtoft
 This function uses a non-reentrant model


 *************** function i1_TMR2_WriteTimer *****************
 Defined at:
		line 150 in file "mcc_generated_files/tmr2.c"
 Parameters:    Size  Location     Type
  timerVal        1    wreg     unsigned char 
 Auto vars:     Size  Location     Type
  timerVal        1   19[BANK1 ] unsigned char 
 Return value:  Size  Location     Type
                  1    wreg      void 
 Registers used:
		wreg, status,2, cstack
 Tracked objects:
		On entry : 
		On exit  : 
		Unchanged: 
 Data sizes:     COMRAM   BANK0   BANK1   BANK2   BANK3   BANK4   BANK5   BANK6   BANK7   BANK8   BANK9  BANK10  BANK11  BANK12  BANK13
      Params:         0       0       0       0       0       0       0       0       0       0       0       0       0       0       0
      Locals:         0       0       1       0       0       0       0       0       0       0       0       0       0       0       0
      Temps:          0       0       0       0       0       0       0       0       0       0       0       0       0       0       0
      Totals:         0       0       1       0       0       0       0       0       0       0       0       0       0       0       0
Total ram usage:        1 bytes
 Hardware stack levels used:    1
 Hardware stack levels required when called:   10
 This function calls:
		i1_TMR2_Counter8BitSet
 This function is called by:
		i1_OLED_updateCallback
 This function uses a non-reentrant model


 *************** function i1_TMR2_Counter8BitSet *****************
 Defined at:
		line 144 in file "mcc_generated_files/tmr2.c"
 Parameters:    Size  Location     Type
  timerVal        1    wreg     unsigned char 
 Auto vars:     Size  Location     Type
  timerVal        1   18[BANK1 ] unsigned char 
 Return value:  Size  Location     Type
                  1    wreg      void 
 Registers used:
		wreg
 Tracked objects:
		On entry : 
		On exit  : 
		Unchanged: 
 Data sizes:     COMRAM   BANK0   BANK1   BANK2   BANK3   BANK4   BANK5   BANK6   BANK7   BANK8   BANK9  BANK10  BANK11  BANK12  BANK13
      Params:         0       0       0       0       0       0       0       0       0       0       0       0       0       0       0
      Locals:         0       0       1       0       0       0       0       0       0       0       0       0       0       0       0
      Temps:          0       0       0       0       0       0       0       0       0       0       0       0       0       0       0
      Totals:         0       0       1       0       0       0       0       0       0       0       0       0       0       0       0
Total ram usage:        1 bytes
 Hardware stack levels used:    1
 Hardware stack levels required when called:    9
 This function calls:
		Nothing
 This function is called by:
		i1_TMR2_WriteTimer
 This function uses a non-reentrant model


 *************** function i1_TMR2_StopTimer *****************
 Defined at:
		line 125 in file "mcc_generated_files/tmr2.c"
 Parameters:    Size  Location     Type
		None
 Auto vars:     Size  Location     Type
		None
 Return value:  Size  Location     Type
                  1    wreg      void 
 Registers used:
		cstack
 Tracked objects:
		On entry : 
		On exit  : 
		Unchanged: 
 Data sizes:     COMRAM   BANK0   BANK1   BANK2   BANK3   BANK4   BANK5   BANK6   BANK7   BANK8   BANK9  BANK10  BANK11  BANK12  BANK13
      Params:         0       0       0       0       0       0       0       0       0       0       0       0       0       0       0
      Locals:         0       0       0       0       0       0       0       0       0       0       0       0       0       0       0
      Temps:          0       0       0       0       0       0       0       0       0       0       0       0       0       0       0
      Totals:         0       0       0       0       0       0       0       0       0       0       0       0       0       0       0
Total ram usage:        0 bytes
 Hardware stack levels used:    1
 Hardware stack levels required when called:   10
 This function calls:
		i1_TMR2_Stop
 This function is called by:
		i1_OLED_updateCallback
 This function uses a non-reentrant model


 *************** function i1_TMR2_Stop *****************
 Defined at:
		line 119 in file "mcc_generated_files/tmr2.c"
 Parameters:    Size  Location     Type
		None
 Auto vars:     Size  Location     Type
		None
 Return value:  Size  Location     Type
                  1    wreg      void 
 Registers used:
		None
 Tracked objects:
		On entry : 
		On exit  : 
		Unchanged: 
 Data sizes:     COMRAM   BANK0   BANK1   BANK2   BANK3   BANK4   BANK5   BANK6   BANK7   BANK8   BANK9  BANK10  BANK11  BANK12  BANK13
      Params:         0       0       0       0       0       0       0       0       0       0       0       0       0       0       0
      Locals:         0       0       0       0       0       0       0       0       0       0       0       0       0       0       0
      Temps:          0       0       0       0       0       0       0       0       0       0       0       0       0       0       0
      Totals:         0       0       0       0       0       0       0       0       0       0       0       0       0       0       0
Total ram usage:        0 bytes
 Hardware stack levels used:    1
 Hardware stack levels required when called:    9
 This function calls:
		Nothing
 This function is called by:
		i1_TMR2_StopTimer
 This function uses a non-reentrant model


 *************** function i1_TMR2_StartTimer *****************
 Defined at:
		line 114 in file "mcc_generated_files/tmr2.c"
 Parameters:    Size  Location     Type
		None
 Auto vars:     Size  Location     Type
		None
 Return value:  Size  Location     Type
                  1    wreg      void 
 Registers used:
		cstack
 Tracked objects:
		On entry : 
		On exit  : 
		Unchanged: 
 Data sizes:     COMRAM   BANK0   BANK1   BANK2   BANK3   BANK4   BANK5   BANK6   BANK7   BANK8   BANK9  BANK10  BANK11  BANK12  BANK13
      Params:         0       0       0       0       0       0       0       0       0       0       0       0       0       0       0
      Locals:         0       0       0       0       0       0       0       0       0       0       0       0       0       0       0
      Temps:          0       0       0       0       0       0       0       0       0       0       0       0       0       0       0
      Totals:         0       0       0       0       0       0       0       0       0       0       0       0       0       0       0
Total ram usage:        0 bytes
 Hardware stack levels used:    1
 Hardware stack levels required when called:   10
 This function calls:
		i1_TMR2_Start
 This function is called by:
		i1_OLED_updateCallback
 This function uses a non-reentrant model


 *************** function i1_TMR2_Start *****************
 Defined at:
		line 108 in file "mcc_generated_files/tmr2.c"
 Parameters:    Size  Location     Type
		None
 Auto vars:     Size  Location     Type
		None
 Return value:  Size  Location     Type
                  1    wreg      void 
 Registers used:
		None
 Tracked objects:
		On entry : 
		On exit  : 
		Unchanged: 
 Data sizes:     COMRAM   BANK0   BANK1   BANK2   BANK3   BANK4   BANK5   BANK6   BANK7   BANK8   BANK9  BANK10  BANK11  BANK12  BANK13
      Params:         0       0       0       0       0       0       0       0       0       0       0       0       0       0       0
      Locals:         0       0       0       0       0       0       0       0       0       0       0       0       0       0       0
      Temps:          0       0       0       0       0       0       0       0       0       0       0       0       0       0       0
      Totals:         0       0       0       0       0       0       0       0       0       0       0       0       0       0       0
Total ram usage:        0 bytes
 Hardware stack levels used:    1
 Hardware stack levels required when called:    9
 This function calls:
		Nothing
 This function is called by:
		i1_TMR2_StartTimer
 This function uses a non-reentrant model


 *************** function i1_TMR2_Period8BitSet *****************
 Defined at:
		line 155 in file "mcc_generated_files/tmr2.c"
 Parameters:    Size  Location     Type
  periodVal       1    wreg     unsigned char 
 Auto vars:     Size  Location     Type
  periodVal       1   18[BANK1 ] unsigned char 
 Return value:  Size  Location     Type
                  1    wreg      void 
 Registers used:
		wreg
 Tracked objects:
		On entry : 
		On exit  : 
		Unchanged: 
 Data sizes:     COMRAM   BANK0   BANK1   BANK2   BANK3   BANK4   BANK5   BANK6   BANK7   BANK8   BANK9  BANK10  BANK11  BANK12  BANK13
      Params:         0       0       0       0       0       0       0       0       0       0       0       0       0       0       0
      Locals:         0       0       1       0       0       0       0       0       0       0       0       0       0       0       0
      Temps:          0       0       0       0       0       0       0       0       0       0       0       0       0       0       0
      Totals:         0       0       1       0       0       0       0       0       0       0       0       0       0       0       0
Total ram usage:        1 bytes
 Hardware stack levels used:    1
 Hardware stack levels required when called:    9
 This function calls:
		Nothing
 This function is called by:
		i1_OLED_updateCallback
 This function uses a non-reentrant model


 *************** function i1_OLED_UpdateFromRAMBuffer *****************
 Defined at:
		line 313 in file "oled.c"
 Parameters:    Size  Location     Type
		None
 Auto vars:     Size  Location     Type
		None
 Return value:  Size  Location     Type
                  1    wreg      void 
 Registers used:
		wreg, fsr0l, fsr0h, fsr2l, fsr2h, status,2, status,0, tblptrl, tblptrh, tblptru, prodl, prodh, cstack
 Tracked objects:
		On entry : 
		On exit  : 
		Unchanged: 
 Data sizes:     COMRAM   BANK0   BANK1   BANK2   BANK3   BANK4   BANK5   BANK6   BANK7   BANK8   BANK9  BANK10  BANK11  BANK12  BANK13
      Params:         0       0       0       0       0       0       0       0       0       0       0       0       0       0       0
      Locals:         0       0       0       0       0       0       0       0       0       0       0       0       0       0       0
      Temps:          0       0       0       0       0       0       0       0       0       0       0       0       0       0       0
      Totals:         0       0       0       0       0       0       0       0       0       0       0       0       0       0       0
Total ram usage:        0 bytes
 Hardware stack levels used:    1
 Hardware stack levels required when called:   14
 This function calls:
		i1_OLED_Clear
		i1_OLED_WriteString
		i1_OLED_YX
 This function is called by:
		i1_OLED_updateCallback
 This function uses a non-reentrant model


 *************** function i1_OLED_YX *****************
 Defined at:
		line 220 in file "oled.c"
 Parameters:    Size  Location     Type
  Row             1    wreg     unsigned char 
  Column          1   38[BANK1 ] unsigned char 
 Auto vars:     Size  Location     Type
  Row             1   40[BANK1 ] unsigned char 
 Return value:  Size  Location     Type
                  1    wreg      void 
 Registers used:
		wreg, fsr2l, fsr2h, status,2, status,0, prodl, prodh, cstack
 Tracked objects:
		On entry : 
		On exit  : 
		Unchanged: 
 Data sizes:     COMRAM   BANK0   BANK1   BANK2   BANK3   BANK4   BANK5   BANK6   BANK7   BANK8   BANK9  BANK10  BANK11  BANK12  BANK13
      Params:         0       0       1       0       0       0       0       0       0       0       0       0       0       0       0
      Locals:         0       0       1       0       0       0       0       0       0       0       0       0       0       0       0
      Temps:          0       0       1       0       0       0       0       0       0       0       0       0       0       0       0
      Totals:         0       0       3       0       0       0       0       0       0       0       0       0       0       0       0
Total ram usage:        3 bytes
 Hardware stack levels used:    1
 Hardware stack levels required when called:   13
 This function calls:
		i1_OLED_Command
 This function is called by:
		i1_OLED_UpdateFromRAMBuffer
 This function uses a non-reentrant model


 *************** function i1_OLED_Command *****************
 Defined at:
		line 110 in file "oled.c"
 Parameters:    Size  Location     Type
  temp            1    wreg     unsigned char 
 Auto vars:     Size  Location     Type
  temp            1   36[BANK1 ] unsigned char 
  OLED_Command    2   34[BANK1 ] unsigned char [2]
  OLED_Command    1   37[BANK1 ] unsigned char 
 Return value:  Size  Location     Type
                  1    wreg      void 
 Registers used:
		wreg, fsr2l, fsr2h, status,2, status,0, cstack
 Tracked objects:
		On entry : 
		On exit  : 
		Unchanged: 
 Data sizes:     COMRAM   BANK0   BANK1   BANK2   BANK3   BANK4   BANK5   BANK6   BANK7   BANK8   BANK9  BANK10  BANK11  BANK12  BANK13
      Params:         0       0       0       0       0       0       0       0       0       0       0       0       0       0       0
      Locals:         0       0       4       0       0       0       0       0       0       0       0       0       0       0       0
      Temps:          0       0       0       0       0       0       0       0       0       0       0       0       0       0       0
      Totals:         0       0       4       0       0       0       0       0       0       0       0       0       0       0       0
Total ram usage:        4 bytes
 Hardware stack levels used:    1
 Hardware stack levels required when called:   12
 This function calls:
		i1_I2C1_MasterWrite
 This function is called by:
		i1_OLED_YX
 This function uses a non-reentrant model


 *************** function i1_OLED_WriteString *****************
 Defined at:
		line 281 in file "oled.c"
 Parameters:    Size  Location     Type
  s               2   51[BANK1 ] PTR unsigned char 
		 -> ftoa@buf(17), STR_324(1), STR_323(1), OLED_WriteInteger@s(20), 
		 -> OLED_RAM_Buffer(68), 
 Auto vars:     Size  Location     Type
		None
 Return value:  Size  Location     Type
                  1    wreg      void 
 Registers used:
		wreg, fsr0l, fsr0h, fsr2l, fsr2h, status,2, status,0, tblptrl, tblptrh, tblptru, cstack
 Tracked objects:
		On entry : 
		On exit  : 
		Unchanged: 
 Data sizes:     COMRAM   BANK0   BANK1   BANK2   BANK3   BANK4   BANK5   BANK6   BANK7   BANK8   BANK9  BANK10  BANK11  BANK12  BANK13
      Params:         0       0       2       0       0       0       0       0       0       0       0       0       0       0       0
      Locals:         0       0       0       0       0       0       0       0       0       0       0       0       0       0       0
      Temps:          0       0       0       0       0       0       0       0       0       0       0       0       0       0       0
      Totals:         0       0       2       0       0       0       0       0       0       0       0       0       0       0       0
Total ram usage:        2 bytes
 Hardware stack levels used:    1
 Hardware stack levels required when called:   13
 This function calls:
		i1_OLED_PutChar
 This function is called by:
		i1_OLED_UpdateFromRAMBuffer
 This function uses a non-reentrant model


 *************** function i1_OLED_Clear *****************
 Defined at:
		line 266 in file "oled.c"
 Parameters:    Size  Location     Type
		None
 Auto vars:     Size  Location     Type
  OLED_Clear      2   53[BANK1 ] unsigned int 
  OLED_Clear      2   51[BANK1 ] unsigned int 
 Return value:  Size  Location     Type
                  1    wreg      void 
 Registers used:
		wreg, fsr2l, fsr2h, status,2, status,0, tblptrl, tblptrh, tblptru, cstack
 Tracked objects:
		On entry : 
		On exit  : 
		Unchanged: 
 Data sizes:     COMRAM   BANK0   BANK1   BANK2   BANK3   BANK4   BANK5   BANK6   BANK7   BANK8   BANK9  BANK10  BANK11  BANK12  BANK13
      Params:         0       0       0       0       0       0       0       0       0       0       0       0       0       0       0
      Locals:         0       0       4       0       0       0       0       0       0       0       0       0       0       0       0
      Temps:          0       0       0       0       0       0       0       0       0       0       0       0       0       0       0
      Totals:         0       0       4       0       0       0       0       0       0       0       0       0       0       0       0
Total ram usage:        4 bytes
 Hardware stack levels used:    1
 Hardware stack levels required when called:   13
 This function calls:
		i1_OLED_PutChar
 This function is called by:
		i1_OLED_UpdateFromRAMBuffer
 This function uses a non-reentrant model


 *************** function i1_OLED_PutChar *****************
 Defined at:
		line 231 in file "oled.c"
 Parameters:    Size  Location     Type
  ch              1    wreg     unsigned char 
 Auto vars:     Size  Location     Type
  ch              1   50[BANK1 ] unsigned char 
  OLED_PutChar    9   38[BANK1 ] unsigned char [9]
  OLED_PutChar    2   47[BANK1 ] PTR const unsigned char 
		 -> OledFont(768), 
  OLED_PutChar    1   49[BANK1 ] unsigned char 
 Return value:  Size  Location     Type
                  1    wreg      void 
 Registers used:
		wreg, fsr2l, fsr2h, status,2, status,0, tblptrl, tblptrh, tblptru, cstack
 Tracked objects:
		On entry : 
		On exit  : 
		Unchanged: 
 Data sizes:     COMRAM   BANK0   BANK1   BANK2   BANK3   BANK4   BANK5   BANK6   BANK7   BANK8   BANK9  BANK10  BANK11  BANK12  BANK13
      Params:         0       0       0       0       0       0       0       0       0       0       0       0       0       0       0
      Locals:         0       0      13       0       0       0       0       0       0       0       0       0       0       0       0
      Temps:          0       0       4       0       0       0       0       0       0       0       0       0       0       0       0
      Totals:         0       0      17       0       0       0       0       0       0       0       0       0       0       0       0
Total ram usage:       17 bytes
 Hardware stack levels used:    1
 Hardware stack levels required when called:   12
 This function calls:
		i1_I2C1_MasterWrite
		i1_memmove
 This function is called by:
		i1_OLED_Clear
		i1_OLED_WriteString
 This function uses a non-reentrant model


 *************** function i1_memmove *****************
 Defined at:
		line 8 in file "C:\Program Files (x86)\Microchip\xc8\v1.45\sources\common\memmove.c"
 Parameters:    Size  Location     Type
  d1              2   18[BANK1 ] PTR void 
		 -> OLED_PutChar@data_array(9), 
  s1              2   20[BANK1 ] PTR const void 
		 -> OledFont(768), 
  n               2   22[BANK1 ] unsigned int 
 Auto vars:     Size  Location     Type
  memmove         2   28[BANK1 ] PTR const unsigned char 
		 -> OledFont(768), 
  memmove         2   26[BANK1 ] PTR unsigned char 
		 -> OLED_PutChar@data_array(9), 
 Return value:  Size  Location     Type
                  2   18[BANK1 ] PTR void 
 Registers used:
		wreg, fsr2l, fsr2h, status,2, status,0, tblptrl, tblptrh, tblptru
 Tracked objects:
		On entry : 
		On exit  : 
		Unchanged: 
 Data sizes:     COMRAM   BANK0   BANK1   BANK2   BANK3   BANK4   BANK5   BANK6   BANK7   BANK8   BANK9  BANK10  BANK11  BANK12  BANK13
      Params:         0       0       6       0       0       0       0       0       0       0       0       0       0       0       0
      Locals:         0       0       4       0       0       0       0       0       0       0       0       0       0       0       0
      Temps:          0       0       2       0       0       0       0       0       0       0       0       0       0       0       0
      Totals:         0       0      12       0       0       0       0       0       0       0       0       0       0       0       0
Total ram usage:       12 bytes
 Hardware stack levels used:    1
 Hardware stack levels required when called:    9
 This function calls:
		Nothing
 This function is called by:
		i1_OLED_PutChar
 This function uses a non-reentrant model


 *************** function i1_I2C1_MasterWrite *****************
 Defined at:
		line 600 in file "mcc_generated_files/i2c1.c"
 Parameters:    Size  Location     Type
  pdata           2   27[BANK1 ] PTR unsigned char 
		 -> OLED_PutChar@data_array(9), OLED_Data@data_array(2), OLED_Command@data_array(2), 
  length          1   29[BANK1 ] unsigned char 
  address         2   30[BANK1 ] unsigned int 
  pflag           2   32[BANK1 ] PTR enum E17311
		 -> OLED_I2C_Status(1), 
 Auto vars:     Size  Location     Type
		None
 Return value:  Size  Location     Type
                  1    wreg      void 
 Registers used:
		wreg, fsr2l, fsr2h, status,2, status,0, cstack
 Tracked objects:
		On entry : 
		On exit  : 
		Unchanged: 
 Data sizes:     COMRAM   BANK0   BANK1   BANK2   BANK3   BANK4   BANK5   BANK6   BANK7   BANK8   BANK9  BANK10  BANK11  BANK12  BANK13
      Params:         0       0       7       0       0       0       0       0       0       0       0       0       0       0       0
      Locals:         0       0       0       0       0       0       0       0       0       0       0       0       0       0       0
      Temps:          0       0       0       0       0       0       0       0       0       0       0       0       0       0       0
      Totals:         0       0       7       0       0       0       0       0       0       0       0       0       0       0       0
Total ram usage:        7 bytes
 Hardware stack levels used:    1
 Hardware stack levels required when called:   11
 This function calls:
		i1_I2C1_MasterTRBInsert
		i1_I2C1_MasterWriteTRBBuild
 This function is called by:
		i1_OLED_Command
		i1_OLED_PutChar
 This function uses a non-reentrant model


 *************** function i1_I2C1_MasterWriteTRBBuild *****************
 Defined at:
		line 721 in file "mcc_generated_files/i2c1.c"
 Parameters:    Size  Location     Type
  ptrb            2   18[BANK1 ] PTR struct .
		 -> I2C1_MasterWrite@trBlock(5), 
  pdata           2   20[BANK1 ] PTR unsigned char 
		 -> OLED_PutChar@data_array(9), OLED_Data@data_array(2), OLED_Command@data_array(2), 
  length          1   22[BANK1 ] unsigned char 
  address         2   23[BANK1 ] unsigned int 
 Auto vars:     Size  Location     Type
		None
 Return value:  Size  Location     Type
                  1    wreg      void 
 Registers used:
		wreg, fsr2l, fsr2h, status,2, status,0
 Tracked objects:
		On entry : 
		On exit  : 
		Unchanged: 
 Data sizes:     COMRAM   BANK0   BANK1   BANK2   BANK3   BANK4   BANK5   BANK6   BANK7   BANK8   BANK9  BANK10  BANK11  BANK12  BANK13
      Params:         0       0       7       0       0       0       0       0       0       0       0       0       0       0       0
      Locals:         0       0       0       0       0       0       0       0       0       0       0       0       0       0       0
      Temps:          0       0       2       0       0       0       0       0       0       0       0       0       0       0       0
      Totals:         0       0       9       0       0       0       0       0       0       0       0       0       0       0       0
Total ram usage:        9 bytes
 Hardware stack levels used:    1
 Hardware stack levels required when called:    9
 This function calls:
		Nothing
 This function is called by:
		i1_I2C1_MasterWrite
 This function uses a non-reentrant model


 *************** function i1_I2C1_MasterTRBInsert *****************
 Defined at:
		line 654 in file "mcc_generated_files/i2c1.c"
 Parameters:    Size  Location     Type
  count           1    wreg     unsigned char 
  ptrb_list       2   18[BANK1 ] PTR struct .
		 -> I2C1_MasterRead@trBlock(5), I2C1_MasterWrite@trBlock(5), 
  pflag           2   20[BANK1 ] PTR enum E17311
		 -> OLED_I2C_Status(1), 
 Auto vars:     Size  Location     Type
  count           1   23[BANK1 ] unsigned char 
 Return value:  Size  Location     Type
                  1    wreg      void 
 Registers used:
		wreg, fsr2l, fsr2h, status,2, status,0, cstack
 Tracked objects:
		On entry : 
		On exit  : 
		Unchanged: 
 Data sizes:     COMRAM   BANK0   BANK1   BANK2   BANK3   BANK4   BANK5   BANK6   BANK7   BANK8   BANK9  BANK10  BANK11  BANK12  BANK13
      Params:         0       0       4       0       0       0       0       0       0       0       0       0       0       0       0
      Locals:         0       0       1       0       0       0       0       0       0       0       0       0       0       0       0
      Temps:          0       0       1       0       0       0       0       0       0       0       0       0       0       0       0
      Totals:         0       0       6       0       0       0       0       0       0       0       0       0       0       0       0
Total ram usage:        6 bytes
 Hardware stack levels used:    1
 Hardware stack levels required when called:   10
 This function calls:
		i1_I2C1_WaitForLastPacketToComplete
 This function is called by:
		i1_I2C1_MasterWrite
 This function uses a non-reentrant model


 *************** function i1_I2C1_WaitForLastPacketToComplete *****************
 Defined at:
		line 644 in file "mcc_generated_files/i2c1.c"
 Parameters:    Size  Location     Type
		None
 Auto vars:     Size  Location     Type
		None
 Return value:  Size  Location     Type
                  1    wreg      void 
 Registers used:
		wreg, status,2
 Tracked objects:
		On entry : 
		On exit  : 
		Unchanged: 
 Data sizes:     COMRAM   BANK0   BANK1   BANK2   BANK3   BANK4   BANK5   BANK6   BANK7   BANK8   BANK9  BANK10  BANK11  BANK12  BANK13
      Params:         0       0       0       0       0       0       0       0       0       0       0       0       0       0       0
      Locals:         0       0       0       0       0       0       0       0       0       0       0       0       0       0       0
      Temps:          0       0       0       0       0       0       0       0       0       0       0       0       0       0       0
      Totals:         0       0       0       0       0       0       0       0       0       0       0       0       0       0       0
Total ram usage:        0 bytes
 Hardware stack levels used:    1
 Hardware stack levels required when called:    9
 This function calls:
		Nothing
 This function is called by:
		i1_I2C1_MasterTRBInsert
 This function uses a non-reentrant model


 *************** function _EUSART2_Transmit_ISR *****************
 Defined at:
		line 189 in file "mcc_generated_files/eusart2.c"
 Parameters:    Size  Location     Type
		None
 Auto vars:     Size  Location     Type
		None
 Return value:  Size  Location     Type
                  1    wreg      void 
 Registers used:
		wreg, fsr2l, fsr2h, status,2, status,0, prodl, prodh
 Tracked objects:
		On entry : 
		On exit  : 
		Unchanged: 
 Data sizes:     COMRAM   BANK0   BANK1   BANK2   BANK3   BANK4   BANK5   BANK6   BANK7   BANK8   BANK9  BANK10  BANK11  BANK12  BANK13
      Params:         0       0       0       0       0       0       0       0       0       0       0       0       0       0       0
      Locals:         0       0       0       0       0       0       0       0       0       0       0       0       0       0       0
      Temps:          0       0       0       0       0       0       0       0       0       0       0       0       0       0       0
      Totals:         0       0       0       0       0       0       0       0       0       0       0       0       0       0       0
Total ram usage:        0 bytes
 Hardware stack levels used:    1
 Hardware stack levels required when called:    9
 This function calls:
		Nothing
 This function is called by:
		_EUSART2_Initialize
		_INTERRUPT_InterruptManagerLow
 This function uses a non-reentrant model


 *************** function _INTERRUPT_InterruptManagerHigh *****************
 Defined at:
		line 98 in file "mcc_generated_files/interrupt_manager.c"
 Parameters:    Size  Location     Type
		None
 Auto vars:     Size  Location     Type
		None
 Return value:  Size  Location     Type
                  1    wreg      void 
 Registers used:
		wreg, fsr0l, fsr0h, fsr2l, fsr2h, status,2, status,0, pclath, tosl, tblptrl, tblptrh, tblptru, prodl, prodh, cstack
 Tracked objects:
		On entry : 
		On exit  : 
		Unchanged: 
 Data sizes:     COMRAM   BANK0   BANK1   BANK2   BANK3   BANK4   BANK5   BANK6   BANK7   BANK8   BANK9  BANK10  BANK11  BANK12  BANK13
      Params:         0       0       0       0       0       0       0       0       0       0       0       0       0       0       0
      Locals:         0       0       0       0       0       0       0       0       0       0       0       0       0       0       0
      Temps:          0       0      18       0       0       0       0       0       0       0       0       0       0       0       0
      Totals:         0       0      18       0       0       0       0       0       0       0       0       0       0       0       0
Total ram usage:       18 bytes
 Hardware stack levels used:    1
 Hardware stack levels required when called:    8
 This function calls:
		Absolute function
		_ADCC_ThresholdISR
		_EUSART2_Receive_ISR
		_HLVD_ISR
		_I2C1_BusCollisionISR
		_I2C1_ISR
		_INT0_ISR
		_TMR4_ISR
		_TMR5_ISR
 This function is called by:
		Interrupt level 2
 This function uses a non-reentrant model


 *************** function _TMR5_ISR *****************
 Defined at:
		line 164 in file "mcc_generated_files/tmr5.c"
 Parameters:    Size  Location     Type
		None
 Auto vars:     Size  Location     Type
		None
 Return value:  Size  Location     Type
                  1    wreg      void 
 Registers used:
		wreg, status,2, status,0, pclath, tosl, cstack
 Tracked objects:
		On entry : 
		On exit  : 
		Unchanged: 
 Data sizes:     COMRAM   BANK0   BANK1   BANK2   BANK3   BANK4   BANK5   BANK6   BANK7   BANK8   BANK9  BANK10  BANK11  BANK12  BANK13
      Params:         0       0       0       0       0       0       0       0       0       0       0       0       0       0       0
      Locals:         0       0       0       0       0       0       0       0       0       0       0       0       0       0       0
      Temps:          0       0       0       0       0       0       0       0       0       0       0       0       0       0       0
      Totals:         0       0       0       0       0       0       0       0       0       0       0       0       0       0       0
Total ram usage:        0 bytes
 Hardware stack levels used:    1
 Hardware stack levels required when called:    2
 This function calls:
		Absolute function
		_TMR5_DefaultInterruptHandler
		_TMR5_WriteTimer
		_dimmingOnTimeCallback
 This function is called by:
		_INTERRUPT_InterruptManagerHigh
 This function uses a non-reentrant model


 *************** function _TMR5_DefaultInterruptHandler *****************
 Defined at:
		line 182 in file "mcc_generated_files/tmr5.c"
 Parameters:    Size  Location     Type
		None
 Auto vars:     Size  Location     Type
		None
 Return value:  Size  Location     Type
                  1    wreg      void 
 Registers used:
		None
 Tracked objects:
		On entry : 
		On exit  : 
		Unchanged: 
 Data sizes:     COMRAM   BANK0   BANK1   BANK2   BANK3   BANK4   BANK5   BANK6   BANK7   BANK8   BANK9  BANK10  BANK11  BANK12  BANK13
      Params:         0       0       0       0       0       0       0       0       0       0       0       0       0       0       0
      Locals:         0       0       0       0       0       0       0       0       0       0       0       0       0       0       0
      Temps:          0       0       0       0       0       0       0       0       0       0       0       0       0       0       0
      Totals:         0       0       0       0       0       0       0       0       0       0       0       0       0       0       0
Total ram usage:        0 bytes
 Hardware stack levels used:    1
 This function calls:
		Nothing
 This function is called by:
		_TMR5_Initialize
		_TMR5_ISR
 This function uses a non-reentrant model


 *************** function _dimmingOnTimeCallback *****************
 Defined at:
		line 450 in file "main.c"
 Parameters:    Size  Location     Type
		None
 Auto vars:     Size  Location     Type
		None
 Return value:  Size  Location     Type
                  1    wreg      void 
 Registers used:
		cstack
 Tracked objects:
		On entry : 
		On exit  : 
		Unchanged: 
 Data sizes:     COMRAM   BANK0   BANK1   BANK2   BANK3   BANK4   BANK5   BANK6   BANK7   BANK8   BANK9  BANK10  BANK11  BANK12  BANK13
      Params:         0       0       0       0       0       0       0       0       0       0       0       0       0       0       0
      Locals:         0       0       0       0       0       0       0       0       0       0       0       0       0       0       0
      Temps:          0       0       0       0       0       0       0       0       0       0       0       0       0       0       0
      Totals:         0       0       0       0       0       0       0       0       0       0       0       0       0       0       0
Total ram usage:        0 bytes
 Hardware stack levels used:    1
 Hardware stack levels required when called:    1
 This function calls:
		i2_TMR5_StopTimer
 This function is called by:
		_main
		_TMR5_ISR
 This function uses a non-reentrant model


 *************** function i2_TMR5_StopTimer *****************
 Defined at:
		line 105 in file "mcc_generated_files/tmr5.c"
 Parameters:    Size  Location     Type
		None
 Auto vars:     Size  Location     Type
		None
 Return value:  Size  Location     Type
                  1    wreg      void 
 Registers used:
		None
 Tracked objects:
		On entry : 
		On exit  : 
		Unchanged: 
 Data sizes:     COMRAM   BANK0   BANK1   BANK2   BANK3   BANK4   BANK5   BANK6   BANK7   BANK8   BANK9  BANK10  BANK11  BANK12  BANK13
      Params:         0       0       0       0       0       0       0       0       0       0       0       0       0       0       0
      Locals:         0       0       0       0       0       0       0       0       0       0       0       0       0       0       0
      Temps:          0       0       0       0       0       0       0       0       0       0       0       0       0       0       0
      Totals:         0       0       0       0       0       0       0       0       0       0       0       0       0       0       0
Total ram usage:        0 bytes
 Hardware stack levels used:    1
 This function calls:
		Nothing
 This function is called by:
		_dimmingOnTimeCallback
 This function uses a non-reentrant model


 *************** function _TMR4_ISR *****************
 Defined at:
		line 165 in file "mcc_generated_files/tmr4.c"
 Parameters:    Size  Location     Type
		None
 Auto vars:     Size  Location     Type
		None
 Return value:  Size  Location     Type
                  1    wreg      void 
 Registers used:
		wreg, fsr2l, fsr2h, status,2, status,0, pclath, tosl, tblptrl, tblptrh, tblptru, cstack
 Tracked objects:
		On entry : 
		On exit  : 
		Unchanged: 
 Data sizes:     COMRAM   BANK0   BANK1   BANK2   BANK3   BANK4   BANK5   BANK6   BANK7   BANK8   BANK9  BANK10  BANK11  BANK12  BANK13
      Params:         0       0       0       0       0       0       0       0       0       0       0       0       0       0       0
      Locals:         0       0       0       0       0       0       0       0       0       0       0       0       0       0       0
      Temps:          0       0       0       0       0       0       0       0       0       0       0       0       0       0       0
      Totals:         0       0       0       0       0       0       0       0       0       0       0       0       0       0       0
Total ram usage:        0 bytes
 Hardware stack levels used:    1
 Hardware stack levels required when called:    4
 This function calls:
		_TMR4_CallBack
 This function is called by:
		_INTERRUPT_InterruptManagerHigh
 This function uses a non-reentrant model


 *************** function _TMR4_CallBack *****************
 Defined at:
		line 183 in file "mcc_generated_files/tmr4.c"
 Parameters:    Size  Location     Type
		None
 Auto vars:     Size  Location     Type
		None
 Return value:  Size  Location     Type
                  1    wreg      void 
 Registers used:
		wreg, fsr2l, fsr2h, status,2, status,0, pclath, tosl, tblptrl, tblptrh, tblptru, cstack
 Tracked objects:
		On entry : 
		On exit  : 
		Unchanged: 
 Data sizes:     COMRAM   BANK0   BANK1   BANK2   BANK3   BANK4   BANK5   BANK6   BANK7   BANK8   BANK9  BANK10  BANK11  BANK12  BANK13
      Params:         0       0       0       0       0       0       0       0       0       0       0       0       0       0       0
      Locals:         0       0       0       0       0       0       0       0       0       0       0       0       0       0       0
      Temps:          0       0       0       0       0       0       0       0       0       0       0       0       0       0       0
      Totals:         0       0       0       0       0       0       0       0       0       0       0       0       0       0       0
Total ram usage:        0 bytes
 Hardware stack levels used:    1
 Hardware stack levels required when called:    3
 This function calls:
		Absolute function
		_TMR4_DefaultInterruptHandler
		_writeEnergyToEEPROMCallback
 This function is called by:
		_TMR4_ISR
 This function uses a non-reentrant model


 *************** function _TMR4_DefaultInterruptHandler *****************
 Defined at:
		line 197 in file "mcc_generated_files/tmr4.c"
 Parameters:    Size  Location     Type
		None
 Auto vars:     Size  Location     Type
		None
 Return value:  Size  Location     Type
                  1    wreg      void 
 Registers used:
		None
 Tracked objects:
		On entry : 
		On exit  : 
		Unchanged: 
 Data sizes:     COMRAM   BANK0   BANK1   BANK2   BANK3   BANK4   BANK5   BANK6   BANK7   BANK8   BANK9  BANK10  BANK11  BANK12  BANK13
      Params:         0       0       0       0       0       0       0       0       0       0       0       0       0       0       0
      Locals:         0       0       0       0       0       0       0       0       0       0       0       0       0       0       0
      Temps:          0       0       0       0       0       0       0       0       0       0       0       0       0       0       0
      Totals:         0       0       0       0       0       0       0       0       0       0       0       0       0       0       0
Total ram usage:        0 bytes
 Hardware stack levels used:    1
 This function calls:
		Nothing
 This function is called by:
		_TMR4_Initialize
		_TMR4_CallBack
 This function uses a non-reentrant model


 *************** function _writeEnergyToEEPROMCallback *****************
 Defined at:
		line 467 in file "main.c"
 Parameters:    Size  Location     Type
		None
 Auto vars:     Size  Location     Type
  current_valu    4   41[BANK0 ] void 
 Return value:  Size  Location     Type
                  1    wreg      void 
 Registers used:
		wreg, fsr2l, fsr2h, status,2, status,0, tblptrl, tblptrh, tblptru, cstack
 Tracked objects:
		On entry : 
		On exit  : 
		Unchanged: 
 Data sizes:     COMRAM   BANK0   BANK1   BANK2   BANK3   BANK4   BANK5   BANK6   BANK7   BANK8   BANK9  BANK10  BANK11  BANK12  BANK13
      Params:         0       0       0       0       0       0       0       0       0       0       0       0       0       0       0
      Locals:         0       4       0       0       0       0       0       0       0       0       0       0       0       0       0
      Temps:          0       0       0       0       0       0       0       0       0       0       0       0       0       0       0
      Totals:         0       4       0       0       0       0       0       0       0       0       0       0       0       0       0
Total ram usage:        4 bytes
 Hardware stack levels used:    1
 Hardware stack levels required when called:    2
 This function calls:
		i2___flge
		i2_readDoubleFromEEPROM
		i2_writeDoubleToEEPROM
 This function is called by:
		_main
		_TMR4_CallBack
 This function uses a non-reentrant model


 *************** function i2_readDoubleFromEEPROM *****************
 Defined at:
		line 22 in file "double_to_EEPROM.c"
 Parameters:    Size  Location     Type
  starting_add    2    2[COMRAM] unsigned int 
 Auto vars:     Size  Location     Type
  readDoubleFr    4    6[COMRAM] struct .
  readDoubleFr    2   10[COMRAM] int 
 Return value:  Size  Location     Type
                  4    2[COMRAM] int 
 Registers used:
		wreg, fsr2l, fsr2h, status,2, status,0, cstack
 Tracked objects:
		On entry : 
		On exit  : 
		Unchanged: 
 Data sizes:     COMRAM   BANK0   BANK1   BANK2   BANK3   BANK4   BANK5   BANK6   BANK7   BANK8   BANK9  BANK10  BANK11  BANK12  BANK13
      Params:         4       0       0       0       0       0       0       0       0       0       0       0       0       0       0
      Locals:         6       0       0       0       0       0       0       0       0       0       0       0       0       0       0
      Temps:          0       0       0       0       0       0       0       0       0       0       0       0       0       0       0
      Totals:        10       0       0       0       0       0       0       0       0       0       0       0       0       0       0
Total ram usage:       10 bytes
 Hardware stack levels used:    1
 Hardware stack levels required when called:    1
 This function calls:
		i2_DATAEE_ReadByte
 This function is called by:
		_writeEnergyToEEPROMCallback
 This function uses a non-reentrant model


 *************** function i2_DATAEE_ReadByte *****************
 Defined at:
		line 190 in file "mcc_generated_files/memory.c"
 Parameters:    Size  Location     Type
  bAdd            2    0[COMRAM] unsigned int 
 Auto vars:     Size  Location     Type
		None
 Return value:  Size  Location     Type
                  1    wreg      unsigned char 
 Registers used:
		wreg, status,2, status,0
 Tracked objects:
		On entry : 
		On exit  : 
		Unchanged: 
 Data sizes:     COMRAM   BANK0   BANK1   BANK2   BANK3   BANK4   BANK5   BANK6   BANK7   BANK8   BANK9  BANK10  BANK11  BANK12  BANK13
      Params:         2       0       0       0       0       0       0       0       0       0       0       0       0       0       0
      Locals:         0       0       0       0       0       0       0       0       0       0       0       0       0       0       0
      Temps:          0       0       0       0       0       0       0       0       0       0       0       0       0       0       0
      Totals:         2       0       0       0       0       0       0       0       0       0       0       0       0       0       0
Total ram usage:        2 bytes
 Hardware stack levels used:    1
 This function calls:
		Nothing
 This function is called by:
		i2_readDoubleFromEEPROM
 This function uses a non-reentrant model


 *************** function _INT0_ISR *****************
 Defined at:
		line 32 in file "mcc_generated_files/ext_int.c"
 Parameters:    Size  Location     Type
		None
 Auto vars:     Size  Location     Type
		None
 Return value:  Size  Location     Type
                  1    wreg      void 
 Registers used:
		wreg, status,2, status,0, pclath, tosl, cstack
 Tracked objects:
		On entry : 
		On exit  : 
		Unchanged: 
 Data sizes:     COMRAM   BANK0   BANK1   BANK2   BANK3   BANK4   BANK5   BANK6   BANK7   BANK8   BANK9  BANK10  BANK11  BANK12  BANK13
      Params:         0       0       0       0       0       0       0       0       0       0       0       0       0       0       0
      Locals:         0       0       0       0       0       0       0       0       0       0       0       0       0       0       0
      Temps:          0       0       0       0       0       0       0       0       0       0       0       0       0       0       0
      Totals:         0       0       0       0       0       0       0       0       0       0       0       0       0       0       0
Total ram usage:        0 bytes
 Hardware stack levels used:    1
 Hardware stack levels required when called:    3
 This function calls:
		_INT0_CallBack
 This function is called by:
		_INTERRUPT_InterruptManagerHigh
 This function uses a non-reentrant model


 *************** function _INT0_CallBack *****************
 Defined at:
		line 41 in file "mcc_generated_files/ext_int.c"
 Parameters:    Size  Location     Type
		None
 Auto vars:     Size  Location     Type
		None
 Return value:  Size  Location     Type
                  1    wreg      void 
 Registers used:
		wreg, status,2, status,0, pclath, tosl, cstack
 Tracked objects:
		On entry : 
		On exit  : 
		Unchanged: 
 Data sizes:     COMRAM   BANK0   BANK1   BANK2   BANK3   BANK4   BANK5   BANK6   BANK7   BANK8   BANK9  BANK10  BANK11  BANK12  BANK13
      Params:         0       0       0       0       0       0       0       0       0       0       0       0       0       0       0
      Locals:         0       0       0       0       0       0       0       0       0       0       0       0       0       0       0
      Temps:          0       0       0       0       0       0       0       0       0       0       0       0       0       0       0
      Totals:         0       0       0       0       0       0       0       0       0       0       0       0       0       0       0
Total ram usage:        0 bytes
 Hardware stack levels used:    1
 Hardware stack levels required when called:    2
 This function calls:
		Absolute function
		_INT0_DefaultInterruptHandler
		_dimmingOffTimeCallback
 This function is called by:
		_INT0_ISR
 This function uses a non-reentrant model


 *************** function _INT0_DefaultInterruptHandler *****************
 Defined at:
		line 54 in file "mcc_generated_files/ext_int.c"
 Parameters:    Size  Location     Type
		None
 Auto vars:     Size  Location     Type
		None
 Return value:  Size  Location     Type
                  1    wreg      void 
 Registers used:
		None
 Tracked objects:
		On entry : 
		On exit  : 
		Unchanged: 
 Data sizes:     COMRAM   BANK0   BANK1   BANK2   BANK3   BANK4   BANK5   BANK6   BANK7   BANK8   BANK9  BANK10  BANK11  BANK12  BANK13
      Params:         0       0       0       0       0       0       0       0       0       0       0       0       0       0       0
      Locals:         0       0       0       0       0       0       0       0       0       0       0       0       0       0       0
      Temps:          0       0       0       0       0       0       0       0       0       0       0       0       0       0       0
      Totals:         0       0       0       0       0       0       0       0       0       0       0       0       0       0       0
Total ram usage:        0 bytes
 Hardware stack levels used:    1
 This function calls:
		Nothing
 This function is called by:
		_EXT_INT_Initialize
		_INT0_CallBack
 This function uses a non-reentrant model


 *************** function _dimmingOffTimeCallback *****************
 Defined at:
		line 435 in file "main.c"
 Parameters:    Size  Location     Type
		None
 Auto vars:     Size  Location     Type
		None
 Return value:  Size  Location     Type
                  1    wreg      void 
 Registers used:
		wreg, status,2, cstack
 Tracked objects:
		On entry : 
		On exit  : 
		Unchanged: 
 Data sizes:     COMRAM   BANK0   BANK1   BANK2   BANK3   BANK4   BANK5   BANK6   BANK7   BANK8   BANK9  BANK10  BANK11  BANK12  BANK13
      Params:         0       0       0       0       0       0       0       0       0       0       0       0       0       0       0
      Locals:         0       0       0       0       0       0       0       0       0       0       0       0       0       0       0
      Temps:          0       0       0       0       0       0       0       0       0       0       0       0       0       0       0
      Totals:         0       0       0       0       0       0       0       0       0       0       0       0       0       0       0
Total ram usage:        0 bytes
 Hardware stack levels used:    1
 Hardware stack levels required when called:    1
 This function calls:
		_TMR5_StartTimer
		_TMR5_WriteTimer
 This function is called by:
		_main
		_INT0_CallBack
 This function uses a non-reentrant model


 *************** function _TMR5_WriteTimer *****************
 Defined at:
		line 127 in file "mcc_generated_files/tmr5.c"
 Parameters:    Size  Location     Type
  timerVal        2    0[COMRAM] unsigned int 
 Auto vars:     Size  Location     Type
		None
 Return value:  Size  Location     Type
                  1    wreg      void 
 Registers used:
		wreg, status,2
 Tracked objects:
		On entry : 
		On exit  : 
		Unchanged: 
 Data sizes:     COMRAM   BANK0   BANK1   BANK2   BANK3   BANK4   BANK5   BANK6   BANK7   BANK8   BANK9  BANK10  BANK11  BANK12  BANK13
      Params:         2       0       0       0       0       0       0       0       0       0       0       0       0       0       0
      Locals:         0       0       0       0       0       0       0       0       0       0       0       0       0       0       0
      Temps:          0       0       0       0       0       0       0       0       0       0       0       0       0       0       0
      Totals:         2       0       0       0       0       0       0       0       0       0       0       0       0       0       0
Total ram usage:        2 bytes
 Hardware stack levels used:    1
 This function calls:
		Nothing
 This function is called by:
		_TMR5_ISR
		_dimmingOffTimeCallback
		_TMR5_Reload
 This function uses a non-reentrant model


 *************** function _TMR5_StartTimer *****************
 Defined at:
		line 99 in file "mcc_generated_files/tmr5.c"
 Parameters:    Size  Location     Type
		None
 Auto vars:     Size  Location     Type
		None
 Return value:  Size  Location     Type
                  1    wreg      void 
 Registers used:
		None
 Tracked objects:
		On entry : 
		On exit  : 
		Unchanged: 
 Data sizes:     COMRAM   BANK0   BANK1   BANK2   BANK3   BANK4   BANK5   BANK6   BANK7   BANK8   BANK9  BANK10  BANK11  BANK12  BANK13
      Params:         0       0       0       0       0       0       0       0       0       0       0       0       0       0       0
      Locals:         0       0       0       0       0       0       0       0       0       0       0       0       0       0       0
      Temps:          0       0       0       0       0       0       0       0       0       0       0       0       0       0       0
      Totals:         0       0       0       0       0       0       0       0       0       0       0       0       0       0       0
Total ram usage:        0 bytes
 Hardware stack levels used:    1
 This function calls:
		Nothing
 This function is called by:
		_dimmingOffTimeCallback
 This function uses a non-reentrant model


 *************** function _I2C1_ISR *****************
 Defined at:
		line 235 in file "mcc_generated_files/i2c1.c"
 Parameters:    Size  Location     Type
		None
 Auto vars:     Size  Location     Type
		None
 Return value:  Size  Location     Type
                  1    wreg      void 
 Registers used:
		wreg, fsr2l, fsr2h, status,2, status,0, cstack
 Tracked objects:
		On entry : 
		On exit  : 
		Unchanged: 
 Data sizes:     COMRAM   BANK0   BANK1   BANK2   BANK3   BANK4   BANK5   BANK6   BANK7   BANK8   BANK9  BANK10  BANK11  BANK12  BANK13
      Params:         0       0       0       0       0       0       0       0       0       0       0       0       0       0       0
      Locals:         0       0       0       0       0       0       0       0       0       0       0       0       0       0       0
      Temps:          2       0       0       0       0       0       0       0       0       0       0       0       0       0       0
      Totals:         2       0       0       0       0       0       0       0       0       0       0       0       0       0       0
Total ram usage:        2 bytes
 Hardware stack levels used:    1
 Hardware stack levels required when called:    1
 This function calls:
		_I2C1_FunctionComplete
		_I2C1_Stop
 This function is called by:
		_INTERRUPT_InterruptManagerHigh
 This function uses a non-reentrant model


 *************** function _I2C1_Stop *****************
 Defined at:
		line 583 in file "mcc_generated_files/i2c1.c"
 Parameters:    Size  Location     Type
  completion_c    1    wreg     enum E17311
 Auto vars:     Size  Location     Type
  completion_c    1    2[COMRAM] enum E17311
 Return value:  Size  Location     Type
                  1    wreg      void 
 Registers used:
		wreg, fsr2l, fsr2h, status,2, status,0
 Tracked objects:
		On entry : 
		On exit  : 
		Unchanged: 
 Data sizes:     COMRAM   BANK0   BANK1   BANK2   BANK3   BANK4   BANK5   BANK6   BANK7   BANK8   BANK9  BANK10  BANK11  BANK12  BANK13
      Params:         0       0       0       0       0       0       0       0       0       0       0       0       0       0       0
      Locals:         1       0       0       0       0       0       0       0       0       0       0       0       0       0       0
      Temps:          2       0       0       0       0       0       0       0       0       0       0       0       0       0       0
      Totals:         3       0       0       0       0       0       0       0       0       0       0       0       0       0       0
Total ram usage:        3 bytes
 Hardware stack levels used:    1
 This function calls:
		Nothing
 This function is called by:
		_I2C1_ISR
 This function uses a non-reentrant model


 *************** function _I2C1_FunctionComplete *****************
 Defined at:
		line 565 in file "mcc_generated_files/i2c1.c"
 Parameters:    Size  Location     Type
		None
 Auto vars:     Size  Location     Type
		None
 Return value:  Size  Location     Type
                  1    wreg      void 
 Registers used:
		wreg, status,2, status,0
 Tracked objects:
		On entry : 
		On exit  : 
		Unchanged: 
 Data sizes:     COMRAM   BANK0   BANK1   BANK2   BANK3   BANK4   BANK5   BANK6   BANK7   BANK8   BANK9  BANK10  BANK11  BANK12  BANK13
      Params:         0       0       0       0       0       0       0       0       0       0       0       0       0       0       0
      Locals:         0       0       0       0       0       0       0       0       0       0       0       0       0       0       0
      Temps:          0       0       0       0       0       0       0       0       0       0       0       0       0       0       0
      Totals:         0       0       0       0       0       0       0       0       0       0       0       0       0       0       0
Total ram usage:        0 bytes
 Hardware stack levels used:    1
 This function calls:
		Nothing
 This function is called by:
		_I2C1_ISR
 This function uses a non-reentrant model


 *************** function _I2C1_BusCollisionISR *****************
 Defined at:
		line 742 in file "mcc_generated_files/i2c1.c"
 Parameters:    Size  Location     Type
		None
 Auto vars:     Size  Location     Type
		None
 Return value:  Size  Location     Type
                  1    wreg      void 
 Registers used:
		None
 Tracked objects:
		On entry : 
		On exit  : 
		Unchanged: 
 Data sizes:     COMRAM   BANK0   BANK1   BANK2   BANK3   BANK4   BANK5   BANK6   BANK7   BANK8   BANK9  BANK10  BANK11  BANK12  BANK13
      Params:         0       0       0       0       0       0       0       0       0       0       0       0       0       0       0
      Locals:         0       0       0       0       0       0       0       0       0       0       0       0       0       0       0
      Temps:          0       0       0       0       0       0       0       0       0       0       0       0       0       0       0
      Totals:         0       0       0       0       0       0       0       0       0       0       0       0       0       0       0
Total ram usage:        0 bytes
 Hardware stack levels used:    1
 This function calls:
		Nothing
 This function is called by:
		_INTERRUPT_InterruptManagerHigh
 This function uses a non-reentrant model


 *************** function _HLVD_ISR *****************
 Defined at:
		line 121 in file "mcc_generated_files/hlvd.c"
 Parameters:    Size  Location     Type
		None
 Auto vars:     Size  Location     Type
		None
 Return value:  Size  Location     Type
                  1    wreg      void 
 Registers used:
		wreg, fsr2l, fsr2h, status,2, status,0, tblptrl, tblptrh, tblptru, cstack
 Tracked objects:
		On entry : 
		On exit  : 
		Unchanged: 
 Data sizes:     COMRAM   BANK0   BANK1   BANK2   BANK3   BANK4   BANK5   BANK6   BANK7   BANK8   BANK9  BANK10  BANK11  BANK12  BANK13
      Params:         0       0       0       0       0       0       0       0       0       0       0       0       0       0       0
      Locals:         0       0       0       0       0       0       0       0       0       0       0       0       0       0       0
      Temps:          0       0       0       0       0       0       0       0       0       0       0       0       0       0       0
      Totals:         0       0       0       0       0       0       0       0       0       0       0       0       0       0       0
Total ram usage:        0 bytes
 Hardware stack levels used:    1
 Hardware stack levels required when called:    2
 This function calls:
		i2_writeDoubleToEEPROM
 This function is called by:
		_INTERRUPT_InterruptManagerHigh
 This function uses a non-reentrant model


 *************** function i2_writeDoubleToEEPROM *****************
 Defined at:
		line 6 in file "double_to_EEPROM.c"
 Parameters:    Size  Location     Type
  input_double    4    4[COMRAM] void 
  starting_add    2    8[COMRAM] unsigned int 
 Auto vars:     Size  Location     Type
  writeDoubleT    4   10[COMRAM] struct .
  writeDoubleT    2   14[COMRAM] int 
 Return value:  Size  Location     Type
                  1    wreg      void 
 Registers used:
		wreg, fsr2l, fsr2h, status,2, status,0, cstack
 Tracked objects:
		On entry : 
		On exit  : 
		Unchanged: 
 Data sizes:     COMRAM   BANK0   BANK1   BANK2   BANK3   BANK4   BANK5   BANK6   BANK7   BANK8   BANK9  BANK10  BANK11  BANK12  BANK13
      Params:         6       0       0       0       0       0       0       0       0       0       0       0       0       0       0
      Locals:         6       0       0       0       0       0       0       0       0       0       0       0       0       0       0
      Temps:          0       0       0       0       0       0       0       0       0       0       0       0       0       0       0
      Totals:        12       0       0       0       0       0       0       0       0       0       0       0       0       0       0
Total ram usage:       12 bytes
 Hardware stack levels used:    1
 Hardware stack levels required when called:    1
 This function calls:
		i2_DATAEE_WriteByte
 This function is called by:
		_HLVD_ISR
		_writeEnergyToEEPROMCallback
 This function uses a non-reentrant model


 *************** function i2_DATAEE_WriteByte *****************
 Defined at:
		line 168 in file "mcc_generated_files/memory.c"
 Parameters:    Size  Location     Type
  bAdd            2    0[COMRAM] unsigned int 
  bData           1    2[COMRAM] unsigned char 
 Auto vars:     Size  Location     Type
  DATAEE_Write    1    3[COMRAM] unsigned char 
 Return value:  Size  Location     Type
                  1    wreg      void 
 Registers used:
		wreg, status,2, status,0
 Tracked objects:
		On entry : 
		On exit  : 
		Unchanged: 
 Data sizes:     COMRAM   BANK0   BANK1   BANK2   BANK3   BANK4   BANK5   BANK6   BANK7   BANK8   BANK9  BANK10  BANK11  BANK12  BANK13
      Params:         3       0       0       0       0       0       0       0       0       0       0       0       0       0       0
      Locals:         1       0       0       0       0       0       0       0       0       0       0       0       0       0       0
      Temps:          0       0       0       0       0       0       0       0       0       0       0       0       0       0       0
      Totals:         4       0       0       0       0       0       0       0       0       0       0       0       0       0       0
Total ram usage:        4 bytes
 Hardware stack levels used:    1
 This function calls:
		Nothing
 This function is called by:
		i2_writeDoubleToEEPROM
 This function uses a non-reentrant model


 *************** function _EUSART2_Receive_ISR *****************
 Defined at:
		line 208 in file "mcc_generated_files/eusart2.c"
 Parameters:    Size  Location     Type
		None
 Auto vars:     Size  Location     Type
		None
 Return value:  Size  Location     Type
                  1    wreg      void 
 Registers used:
		wreg, fsr0l, fsr0h, fsr2l, fsr2h, status,2, status,0, pclath, tosl, tblptrl, tblptrh, tblptru, prodl, prodh, cstack
 Tracked objects:
		On entry : 
		On exit  : 
		Unchanged: 
 Data sizes:     COMRAM   BANK0   BANK1   BANK2   BANK3   BANK4   BANK5   BANK6   BANK7   BANK8   BANK9  BANK10  BANK11  BANK12  BANK13
      Params:         0       0       0       0       0       0       0       0       0       0       0       0       0       0       0
      Locals:         0       0       0       0       0       0       0       0       0       0       0       0       0       0       0
      Temps:          0       0       0       0       0       0       0       0       0       0       0       0       0       0       0
      Totals:         0       0       0       0       0       0       0       0       0       0       0       0       0       0       0
Total ram usage:        0 bytes
 Hardware stack levels used:    1
 Hardware stack levels required when called:    4
 This function calls:
		i2_printf
 This function is called by:
		_EUSART2_Initialize
		_INTERRUPT_InterruptManagerHigh
 This function uses a non-reentrant model


 *************** function i2_printf *****************
 Defined at:
		line 13 in file "C:\Program Files (x86)\Microchip\xc8\v1.45\sources\common\printf.c"
 Parameters:    Size  Location     Type
  f               2  101[BANK0 ] PTR const unsigned char 
		 -> STR_299(14), STR_298(99), STR_297(30), STR_296(58), 
		 -> STR_295(36), STR_294(36), STR_293(37), STR_292(28), 
		 -> STR_291(38), STR_290(60), STR_289(32), STR_288(23), 
		 -> STR_287(65), STR_286(27), STR_285(48), STR_284(15), 
		 -> STR_283(13), STR_282(12), STR_281(11), STR_280(10), 
		 -> STR_279(11), STR_278(24), STR_277(46), STR_276(25), 
		 -> STR_275(56), STR_274(64), STR_273(59), STR_272(85), 
		 -> STR_271(30), STR_270(55), STR_269(46), STR_268(39), 
		 -> STR_267(62), STR_266(21), STR_265(31), STR_264(49), 
		 -> STR_263(99), STR_262(88), STR_261(37), STR_260(13), 
		 -> STR_259(29), STR_258(26), STR_257(26), STR_256(426), 
		 -> STR_254(30), STR_253(46), STR_252(39), STR_251(62), 
		 -> STR_250(55), STR_249(470), STR_247(3282), STR_245(492), 
		 -> STR_243(840), STR_241(720), STR_239(1080), STR_237(46), 
		 -> STR_236(51), STR_235(73), STR_234(73), STR_233(71), 
		 -> STR_232(56), STR_231(34), STR_230(34), STR_229(53), 
		 -> STR_228(42), STR_227(53), STR_226(71), STR_225(63), 
		 -> STR_224(37), STR_223(31), STR_221(54), STR_220(45), 
		 -> STR_219(51), STR_218(52), STR_217(30), STR_216(58), 
		 -> STR_215(36), STR_214(36), STR_213(37), STR_212(38), 
		 -> STR_211(60), STR_210(32), STR_209(23), STR_208(65), 
		 -> STR_207(27), STR_206(48), STR_205(15), STR_204(13), 
		 -> STR_203(12), STR_202(11), STR_201(10), STR_200(11), 
		 -> STR_199(24), STR_198(46), STR_197(25), STR_196(58), 
		 -> STR_195(56), STR_194(64), STR_193(59), STR_192(85), 
		 -> STR_191(21), STR_189(54), STR_187(54), STR_185(45), 
		 -> STR_183(51), STR_181(52), STR_179(46), STR_177(51), 
		 -> STR_175(53), STR_173(58), STR_171(71), STR_170(63), 
		 -> STR_169(37), STR_168(46), STR_167(102), STR_166(86), 
		 -> STR_164(25), STR_162(42), STR_161(53), STR_160(31), 
		 -> STR_158(29), STR_157(28), STR_155(42), STR_153(41), 
		 -> STR_151(44), STR_150(19), STR_149(34), STR_147(53), 
		 -> STR_146(50), STR_145(105), STR_144(105), STR_142(59), 
		 -> STR_140(73), STR_139(73), STR_138(71), STR_136(56), 
		 -> STR_134(34), STR_132(34), STR_130(32), STR_128(30), 
		 -> STR_126(58), STR_124(36), STR_122(36), STR_120(37), 
		 -> STR_118(34), STR_116(38), STR_115(60), STR_114(32), 
		 -> STR_113(23), STR_112(65), STR_110(23), STR_108(27), 
		 -> STR_107(48), STR_106(15), STR_105(13), STR_104(12), 
		 -> STR_103(11), STR_102(10), STR_101(11), STR_100(24), 
		 -> STR_99(46), STR_98(25), STR_96(56), STR_95(64), 
		 -> STR_93(59), STR_91(85), STR_89(47), STR_88(17), 
		 -> STR_85(52), STR_83(4), STR_82(5), STR_80(4), 
		 -> STR_79(5), STR_77(3), terminal_textAttributes@output_buff(15), STR_47(4), 
		 -> STR_46(4), STR_45(4), STR_44(4), STR_43(5), 
		 -> STR_1(4), 
 Auto vars:     Size  Location     Type
  printf          5  105[BANK0 ] struct __prbuf
  printf          2  103[BANK0 ] PTR void [1]
		 -> ?i2_printf(2), ?_sprintf(2), ?_printf(2), 
 Return value:  Size  Location     Type
                  2  101[BANK0 ] int 
 Registers used:
		wreg, fsr0l, fsr0h, fsr2l, fsr2h, status,2, status,0, pclath, tosl, tblptrl, tblptrh, tblptru, prodl, prodh, cstack
 Tracked objects:
		On entry : 
		On exit  : 
		Unchanged: 
 Data sizes:     COMRAM   BANK0   BANK1   BANK2   BANK3   BANK4   BANK5   BANK6   BANK7   BANK8   BANK9  BANK10  BANK11  BANK12  BANK13
      Params:         0       2       0       0       0       0       0       0       0       0       0       0       0       0       0
      Locals:         0       7       0       0       0       0       0       0       0       0       0       0       0       0       0
      Temps:          0       0       0       0       0       0       0       0       0       0       0       0       0       0       0
      Totals:         0       9       0       0       0       0       0       0       0       0       0       0       0       0       0
Total ram usage:        9 bytes
 Hardware stack levels used:    1
 Hardware stack levels required when called:    3
 This function calls:
		i2__doprnt
 This function is called by:
		_EUSART2_Receive_ISR
 This function uses a non-reentrant model


 *************** function i2__doprnt *****************
 Defined at:
		line 458 in file "C:\Program Files (x86)\Microchip\xc8\v1.45\sources\common\doprnt.c"
 Parameters:    Size  Location     Type
  pb              2   59[BANK0 ] PTR struct __prbuf
		 -> sprintf@pb(5), printf@pb(5), 
  f               2   61[BANK0 ] PTR const unsigned char 
		 -> STR_327(11), STR_299(14), STR_298(99), STR_297(30), 
		 -> STR_296(58), STR_295(36), STR_294(36), STR_293(37), 
		 -> STR_292(28), STR_291(38), STR_290(60), STR_289(32), 
		 -> STR_288(23), STR_287(65), STR_286(27), STR_285(48), 
		 -> STR_284(15), STR_283(13), STR_282(12), STR_281(11), 
		 -> STR_280(10), STR_279(11), STR_278(24), STR_277(46), 
		 -> STR_276(25), STR_275(56), STR_274(64), STR_273(59), 
		 -> STR_272(85), STR_271(30), STR_270(55), STR_269(46), 
		 -> STR_268(39), STR_267(62), STR_266(21), STR_265(31), 
		 -> STR_264(49), STR_263(99), STR_262(88), STR_261(37), 
		 -> STR_260(13), STR_259(29), STR_258(26), STR_257(26), 
		 -> STR_256(426), STR_254(30), STR_253(46), STR_252(39), 
		 -> STR_251(62), STR_250(55), STR_249(470), STR_247(3282), 
		 -> STR_245(492), STR_243(840), STR_241(720), STR_239(1080), 
		 -> STR_237(46), STR_236(51), STR_235(73), STR_234(73), 
		 -> STR_233(71), STR_232(56), STR_231(34), STR_230(34), 
		 -> STR_229(53), STR_228(42), STR_227(53), STR_226(71), 
		 -> STR_225(63), STR_224(37), STR_223(31), STR_221(54), 
		 -> STR_220(45), STR_219(51), STR_218(52), STR_217(30), 
		 -> STR_216(58), STR_215(36), STR_214(36), STR_213(37), 
		 -> STR_212(38), STR_211(60), STR_210(32), STR_209(23), 
		 -> STR_208(65), STR_207(27), STR_206(48), STR_205(15), 
		 -> STR_204(13), STR_203(12), STR_202(11), STR_201(10), 
		 -> STR_200(11), STR_199(24), STR_198(46), STR_197(25), 
		 -> STR_196(58), STR_195(56), STR_194(64), STR_193(59), 
		 -> STR_192(85), STR_191(21), STR_189(54), STR_187(54), 
		 -> STR_185(45), STR_183(51), STR_181(52), STR_179(46), 
		 -> STR_177(51), STR_175(53), STR_173(58), STR_171(71), 
		 -> STR_170(63), STR_169(37), STR_168(46), STR_167(102), 
		 -> STR_166(86), STR_164(25), STR_162(42), STR_161(53), 
		 -> STR_160(31), STR_158(29), STR_157(28), STR_155(42), 
		 -> STR_153(41), STR_151(44), STR_150(19), STR_149(34), 
		 -> STR_147(53), STR_146(50), STR_145(105), STR_144(105), 
		 -> STR_142(59), STR_140(73), STR_139(73), STR_138(71), 
		 -> STR_136(56), STR_134(34), STR_132(34), STR_130(32), 
		 -> STR_128(30), STR_126(58), STR_124(36), STR_122(36), 
		 -> STR_120(37), STR_118(34), STR_116(38), STR_115(60), 
		 -> STR_114(32), STR_113(23), STR_112(65), STR_110(23), 
		 -> STR_108(27), STR_107(48), STR_106(15), STR_105(13), 
		 -> STR_104(12), STR_103(11), STR_102(10), STR_101(11), 
		 -> STR_100(24), STR_99(46), STR_98(25), STR_96(56), 
		 -> STR_95(64), STR_93(59), STR_91(85), STR_89(47), 
		 -> STR_88(17), STR_85(52), STR_83(4), STR_82(5), 
		 -> STR_80(4), STR_79(5), STR_77(3), terminal_textAttributes@output_buff(15), 
		 -> STR_47(4), STR_46(4), STR_45(4), STR_44(4), 
		 -> STR_43(5), STR_42(12), STR_41(12), STR_40(12), 
		 -> STR_39(11), STR_38(10), STR_37(10), STR_36(9), 
		 -> STR_34(13), STR_8(7), STR_6(5), STR_1(4), 
  ap              2   63[BANK0 ] PTR PTR void 
		 -> sprintf@ap(2), printf@ap(2), 
 Auto vars:     Size  Location     Type
  _doprnt         4   94[BANK0 ] PTR PTR void 
  _doprnt         4   86[BANK0 ] unsigned long 
  _doprnt         4   80[BANK0 ] struct .
  _doprnt         2   98[BANK0 ] int 
  _doprnt         2   92[BANK0 ] unsigned short 
  _doprnt         2   90[BANK0 ] int 
  _doprnt         2   84[BANK0 ] int 
  _doprnt         2   78[BANK0 ] unsigned int 
  _doprnt         2   76[BANK0 ] PTR const unsigned char 
		 -> ?_sprintf(2), ?_printf(2), ftoa@buf(17), STR_325(7), 
		 -> _doprnt@c(1), STR_312(16), STR_311(22), STR_310(21), 
		 -> STR_309(27), STR_308(41), STR_307(32), STR_306(19), 
		 -> STR_305(16), STR_304(15), STR_303(16), STR_302(10), 
		 -> STR_301(13), STR_300(12), print_Energy_str(17), print_Power_str(17), 
		 -> print_Vrms_str(17), print_Irms_str(17), OLED_updateCallback@angle_string(17), OLED_updateCallback@percentage_string(17), 
		 -> OLED_updateCallback@rev_id_str(17), OLED_updateCallback@dev_id_str(17), TRIAC_Firing_Angle(4), NULL(0), 
  _doprnt         1  100[BANK0 ] char 
  _doprnt         1   75[BANK0 ] unsigned char 
  _doprnt         1    0        unsigned char 
 Return value:  Size  Location     Type
                  2   59[BANK0 ] int 
 Registers used:
		wreg, fsr0l, fsr0h, fsr2l, fsr2h, status,2, status,0, pclath, tosl, tblptrl, tblptrh, tblptru, prodl, prodh, cstack
 Tracked objects:
		On entry : 
		On exit  : 
		Unchanged: 
 Data sizes:     COMRAM   BANK0   BANK1   BANK2   BANK3   BANK4   BANK5   BANK6   BANK7   BANK8   BANK9  BANK10  BANK11  BANK12  BANK13
      Params:         0       6       0       0       0       0       0       0       0       0       0       0       0       0       0
      Locals:         0      30       0       0       0       0       0       0       0       0       0       0       0       0       0
      Temps:          0       6       0       0       0       0       0       0       0       0       0       0       0       0       0
      Totals:         0      42       0       0       0       0       0       0       0       0       0       0       0       0       0
Total ram usage:       42 bytes
 Hardware stack levels used:    1
 Hardware stack levels required when called:    2
 This function calls:
		Absolute function
		i2___awdiv
		i2___awmod
		i2___fladd
		i2___fldiv
		i2___flge
		i2___flmul
		i2___flneg
		i2___flsub
		i2___fltol
		i2___lldiv
		i2___llmod
		i2___wmul
		i2___xxtofl
		i2__div_to_l_
		i2__tdiv_to_l_
		i2_fround
		i2_isdigit
		i2_putch
		i2_scale
 This function is called by:
		i2_printf
 This function uses a non-reentrant model


 *************** function i2_scale *****************
 Defined at:
		line 425 in file "C:\Program Files (x86)\Microchip\xc8\v1.45\sources\common\doprnt.c"
 Parameters:    Size  Location     Type
  scl             1    wreg     char 
 Auto vars:     Size  Location     Type
  scl             1   47[COMRAM] char 
 Return value:  Size  Location     Type
                  4   39[COMRAM] char 
 Registers used:
		wreg, status,2, status,0, tblptrl, tblptrh, tblptru, prodl, prodh, cstack
 Tracked objects:
		On entry : 
		On exit  : 
		Unchanged: 
 Data sizes:     COMRAM   BANK0   BANK1   BANK2   BANK3   BANK4   BANK5   BANK6   BANK7   BANK8   BANK9  BANK10  BANK11  BANK12  BANK13
      Params:         4       0       0       0       0       0       0       0       0       0       0       0       0       0       0
      Locals:         5       0       0       0       0       0       0       0       0       0       0       0       0       0       0
      Temps:          0       0       0       0       0       0       0       0       0       0       0       0       0       0       0
      Totals:         9       0       0       0       0       0       0       0       0       0       0       0       0       0       0
Total ram usage:        9 bytes
 Hardware stack levels used:    1
 Hardware stack levels required when called:    1
 This function calls:
		i2___awdiv
		i2___awmod
		i2___flmul
 This function is called by:
		i2__doprnt
 This function uses a non-reentrant model


 *************** function i2_putch *****************
 Defined at:
		line 184 in file "mcc_generated_files/eusart2.c"
 Parameters:    Size  Location     Type
  txData          1    wreg     unsigned char 
 Auto vars:     Size  Location     Type
  txData          1    1[COMRAM] unsigned char 
 Return value:  Size  Location     Type
                  1    wreg      void 
 Registers used:
		wreg, fsr2l, fsr2h, status,2, status,0, prodl, prodh, cstack
 Tracked objects:
		On entry : 
		On exit  : 
		Unchanged: 
 Data sizes:     COMRAM   BANK0   BANK1   BANK2   BANK3   BANK4   BANK5   BANK6   BANK7   BANK8   BANK9  BANK10  BANK11  BANK12  BANK13
      Params:         0       0       0       0       0       0       0       0       0       0       0       0       0       0       0
      Locals:         1       0       0       0       0       0       0       0       0       0       0       0       0       0       0
      Temps:          0       0       0       0       0       0       0       0       0       0       0       0       0       0       0
      Totals:         1       0       0       0       0       0       0       0       0       0       0       0       0       0       0
Total ram usage:        1 bytes
 Hardware stack levels used:    1
 Hardware stack levels required when called:    1
 This function calls:
		i2_EUSART2_Write
 This function is called by:
		i2_printf
 This function uses a non-reentrant model


 *************** function i2_EUSART2_Write *****************
 Defined at:
		line 155 in file "mcc_generated_files/eusart2.c"
 Parameters:    Size  Location     Type
  txData          1    wreg     unsigned char 
 Auto vars:     Size  Location     Type
  txData          1    0[COMRAM] unsigned char 
 Return value:  Size  Location     Type
                  1    wreg      void 
 Registers used:
		wreg, fsr2l, fsr2h, status,2, status,0, prodl, prodh
 Tracked objects:
		On entry : 
		On exit  : 
		Unchanged: 
 Data sizes:     COMRAM   BANK0   BANK1   BANK2   BANK3   BANK4   BANK5   BANK6   BANK7   BANK8   BANK9  BANK10  BANK11  BANK12  BANK13
      Params:         0       0       0       0       0       0       0       0       0       0       0       0       0       0       0
      Locals:         1       0       0       0       0       0       0       0       0       0       0       0       0       0       0
      Temps:          0       0       0       0       0       0       0       0       0       0       0       0       0       0       0
      Totals:         1       0       0       0       0       0       0       0       0       0       0       0       0       0       0
Total ram usage:        1 bytes
 Hardware stack levels used:    1
 This function calls:
		Nothing
 This function is called by:
		i2_putch
 This function uses a non-reentrant model


 *************** function i2_isdigit *****************
 Defined at:
		line 8 in file "C:\Program Files (x86)\Microchip\xc8\v1.45\sources\common\isdigit.c"
 Parameters:    Size  Location     Type
  c               1    wreg     unsigned char 
 Auto vars:     Size  Location     Type
  c               1    2[COMRAM] unsigned char 
 Return value:  Size  Location     Type
		None               void
 Registers used:
		wreg, status,2, status,0
 Tracked objects:
		On entry : 
		On exit  : 
		Unchanged: 
 Data sizes:     COMRAM   BANK0   BANK1   BANK2   BANK3   BANK4   BANK5   BANK6   BANK7   BANK8   BANK9  BANK10  BANK11  BANK12  BANK13
      Params:         0       0       0       0       0       0       0       0       0       0       0       0       0       0       0
      Locals:         2       0       0       0       0       0       0       0       0       0       0       0       0       0       0
      Temps:          1       0       0       0       0       0       0       0       0       0       0       0       0       0       0
      Totals:         3       0       0       0       0       0       0       0       0       0       0       0       0       0       0
Total ram usage:        3 bytes
 Hardware stack levels used:    1
 This function calls:
		Nothing
 This function is called by:
		i2__doprnt
 This function uses a non-reentrant model


 *************** function i2_fround *****************
 Defined at:
		line 409 in file "C:\Program Files (x86)\Microchip\xc8\v1.45\sources\common\doprnt.c"
 Parameters:    Size  Location     Type
  prec            1    wreg     unsigned char 
 Auto vars:     Size  Location     Type
  prec            1   51[COMRAM] unsigned char 
 Return value:  Size  Location     Type
                  4   39[COMRAM] unsigned char 
 Registers used:
		wreg, status,2, status,0, tblptrl, tblptrh, tblptru, prodl, prodh, cstack
 Tracked objects:
		On entry : 
		On exit  : 
		Unchanged: 
 Data sizes:     COMRAM   BANK0   BANK1   BANK2   BANK3   BANK4   BANK5   BANK6   BANK7   BANK8   BANK9  BANK10  BANK11  BANK12  BANK13
      Params:         4       0       0       0       0       0       0       0       0       0       0       0       0       0       0
      Locals:         9       0       0       0       0       0       0       0       0       0       0       0       0       0       0
      Temps:          0       0       0       0       0       0       0       0       0       0       0       0       0       0       0
      Totals:        13       0       0       0       0       0       0       0       0       0       0       0       0       0       0
Total ram usage:       13 bytes
 Hardware stack levels used:    1
 Hardware stack levels required when called:    1
 This function calls:
		i2___awdiv
		i2___awmod
		i2___flmul
 This function is called by:
		i2__doprnt
 This function uses a non-reentrant model


 *************** function i2___awmod *****************
 Defined at:
		line 8 in file "C:\Program Files (x86)\Microchip\xc8\v1.45\sources\common\awmod.c"
 Parameters:    Size  Location     Type
  dividend        2    0[COMRAM] int 
  divisor         2    2[COMRAM] int 
 Auto vars:     Size  Location     Type
  __awmod         1    5[COMRAM] unsigned char 
  __awmod         1    4[COMRAM] unsigned char 
 Return value:  Size  Location     Type
                  2    0[COMRAM] int 
 Registers used:
		wreg, status,2, status,0
 Tracked objects:
		On entry : 
		On exit  : 
		Unchanged: 
 Data sizes:     COMRAM   BANK0   BANK1   BANK2   BANK3   BANK4   BANK5   BANK6   BANK7   BANK8   BANK9  BANK10  BANK11  BANK12  BANK13
      Params:         4       0       0       0       0       0       0       0       0       0       0       0       0       0       0
      Locals:         2       0       0       0       0       0       0       0       0       0       0       0       0       0       0
      Temps:          0       0       0       0       0       0       0       0       0       0       0       0       0       0       0
      Totals:         6       0       0       0       0       0       0       0       0       0       0       0       0       0       0
Total ram usage:        6 bytes
 Hardware stack levels used:    1
 This function calls:
		Nothing
 This function is called by:
		i2_fround
		i2_scale
		i2__doprnt
 This function uses a non-reentrant model


 *************** function i2___awdiv *****************
 Defined at:
		line 8 in file "C:\Program Files (x86)\Microchip\xc8\v1.45\sources\common\awdiv.c"
 Parameters:    Size  Location     Type
  dividend        2    6[COMRAM] int 
  divisor         2    8[COMRAM] int 
 Auto vars:     Size  Location     Type
  __awdiv         2   12[COMRAM] int 
  __awdiv         1   11[COMRAM] unsigned char 
  __awdiv         1   10[COMRAM] unsigned char 
 Return value:  Size  Location     Type
                  2    6[COMRAM] int 
 Registers used:
		wreg, status,2, status,0
 Tracked objects:
		On entry : 
		On exit  : 
		Unchanged: 
 Data sizes:     COMRAM   BANK0   BANK1   BANK2   BANK3   BANK4   BANK5   BANK6   BANK7   BANK8   BANK9  BANK10  BANK11  BANK12  BANK13
      Params:         4       0       0       0       0       0       0       0       0       0       0       0       0       0       0
      Locals:         4       0       0       0       0       0       0       0       0       0       0       0       0       0       0
      Temps:          0       0       0       0       0       0       0       0       0       0       0       0       0       0       0
      Totals:         8       0       0       0       0       0       0       0       0       0       0       0       0       0       0
Total ram usage:        8 bytes
 Hardware stack levels used:    1
 This function calls:
		Nothing
 This function is called by:
		i2_fround
		i2_scale
		i2__doprnt
 This function uses a non-reentrant model


 *************** function i2__tdiv_to_l_ *****************
 Defined at:
		line 60 in file "C:\Program Files (x86)\Microchip\xc8\v1.45\sources\common\ftdivl.c"
 Parameters:    Size  Location     Type
  f1              3    0[COMRAM] float 
  f2              3    3[COMRAM] float 
 Auto vars:     Size  Location     Type
  _tdiv_to_l_     4    9[COMRAM] unsigned long 
  _tdiv_to_l_     1   14[COMRAM] unsigned char 
  _tdiv_to_l_     1   13[COMRAM] unsigned char 
 Return value:  Size  Location     Type
                  4    0[COMRAM] unsigned long 
 Registers used:
		wreg, status,2, status,0
 Tracked objects:
		On entry : 
		On exit  : 
		Unchanged: 
 Data sizes:     COMRAM   BANK0   BANK1   BANK2   BANK3   BANK4   BANK5   BANK6   BANK7   BANK8   BANK9  BANK10  BANK11  BANK12  BANK13
      Params:         6       0       0       0       0       0       0       0       0       0       0       0       0       0       0
      Locals:         6       0       0       0       0       0       0       0       0       0       0       0       0       0       0
      Temps:          3       0       0       0       0       0       0       0       0       0       0       0       0       0       0
      Totals:        15       0       0       0       0       0       0       0       0       0       0       0       0       0       0
Total ram usage:       15 bytes
 Hardware stack levels used:    1
 This function calls:
		Nothing
 This function is called by:
		i2__doprnt
 This function uses a non-reentrant model


 *************** function i2__div_to_l_ *****************
 Defined at:
		line 60 in file "C:\Program Files (x86)\Microchip\xc8\v1.45\sources\common\fldivl.c"
 Parameters:    Size  Location     Type
  f1              4    0[COMRAM] unsigned long 
  f2              4    4[COMRAM] unsigned long 
 Auto vars:     Size  Location     Type
  _div_to_l_      4    8[COMRAM] unsigned long 
  _div_to_l_      1   13[COMRAM] unsigned char 
  _div_to_l_      1   12[COMRAM] unsigned char 
 Return value:  Size  Location     Type
                  4    0[COMRAM] unsigned long 
 Registers used:
		wreg, status,2, status,0
 Tracked objects:
		On entry : 
		On exit  : 
		Unchanged: 
 Data sizes:     COMRAM   BANK0   BANK1   BANK2   BANK3   BANK4   BANK5   BANK6   BANK7   BANK8   BANK9  BANK10  BANK11  BANK12  BANK13
      Params:         8       0       0       0       0       0       0       0       0       0       0       0       0       0       0
      Locals:         6       0       0       0       0       0       0       0       0       0       0       0       0       0       0
      Temps:          0       0       0       0       0       0       0       0       0       0       0       0       0       0       0
      Totals:        14       0       0       0       0       0       0       0       0       0       0       0       0       0       0
Total ram usage:       14 bytes
 Hardware stack levels used:    1
 This function calls:
		Nothing
 This function is called by:
		i2__doprnt
 This function uses a non-reentrant model


 *************** function i2___wmul *****************
 Defined at:
		line 15 in file "C:\Program Files (x86)\Microchip\xc8\v1.45\sources\common\Umul16.c"
 Parameters:    Size  Location     Type
  multiplier      2    0[COMRAM] unsigned int 
  multiplicand    2    2[COMRAM] unsigned int 
 Auto vars:     Size  Location     Type
  __wmul          2    4[COMRAM] unsigned int 
 Return value:  Size  Location     Type
                  2    0[COMRAM] unsigned int 
 Registers used:
		wreg, status,2, status,0, prodl, prodh
 Tracked objects:
		On entry : 
		On exit  : 
		Unchanged: 
 Data sizes:     COMRAM   BANK0   BANK1   BANK2   BANK3   BANK4   BANK5   BANK6   BANK7   BANK8   BANK9  BANK10  BANK11  BANK12  BANK13
      Params:         4       0       0       0       0       0       0       0       0       0       0       0       0       0       0
      Locals:         2       0       0       0       0       0       0       0       0       0       0       0       0       0       0
      Temps:          0       0       0       0       0       0       0       0       0       0       0       0       0       0       0
      Totals:         6       0       0       0       0       0       0       0       0       0       0       0       0       0       0
Total ram usage:        6 bytes
 Hardware stack levels used:    1
 This function calls:
		Nothing
 This function is called by:
		i2__doprnt
 This function uses a non-reentrant model


 *************** function i2___llmod *****************
 Defined at:
		line 8 in file "C:\Program Files (x86)\Microchip\xc8\v1.45\sources\common\llmod.c"
 Parameters:    Size  Location     Type
  dividend        4   13[COMRAM] unsigned long 
  divisor         4   17[COMRAM] unsigned long 
 Auto vars:     Size  Location     Type
  __llmod         1   21[COMRAM] unsigned char 
 Return value:  Size  Location     Type
                  4   13[COMRAM] unsigned long 
 Registers used:
		wreg, status,2, status,0
 Tracked objects:
		On entry : 
		On exit  : 
		Unchanged: 
 Data sizes:     COMRAM   BANK0   BANK1   BANK2   BANK3   BANK4   BANK5   BANK6   BANK7   BANK8   BANK9  BANK10  BANK11  BANK12  BANK13
      Params:         8       0       0       0       0       0       0       0       0       0       0       0       0       0       0
      Locals:         1       0       0       0       0       0       0       0       0       0       0       0       0       0       0
      Temps:          0       0       0       0       0       0       0       0       0       0       0       0       0       0       0
      Totals:         9       0       0       0       0       0       0       0       0       0       0       0       0       0       0
Total ram usage:        9 bytes
 Hardware stack levels used:    1
 This function calls:
		Nothing
 This function is called by:
		i2__doprnt
 This function uses a non-reentrant model


 *************** function i2___lldiv *****************
 Defined at:
		line 8 in file "C:\Program Files (x86)\Microchip\xc8\v1.45\sources\common\lldiv.c"
 Parameters:    Size  Location     Type
  dividend        4    0[COMRAM] unsigned long 
  divisor         4    4[COMRAM] unsigned long 
 Auto vars:     Size  Location     Type
  __lldiv         4    8[COMRAM] unsigned long 
  __lldiv         1   12[COMRAM] unsigned char 
 Return value:  Size  Location     Type
                  4    0[COMRAM] unsigned long 
 Registers used:
		wreg, status,2, status,0
 Tracked objects:
		On entry : 
		On exit  : 
		Unchanged: 
 Data sizes:     COMRAM   BANK0   BANK1   BANK2   BANK3   BANK4   BANK5   BANK6   BANK7   BANK8   BANK9  BANK10  BANK11  BANK12  BANK13
      Params:         8       0       0       0       0       0       0       0       0       0       0       0       0       0       0
      Locals:         5       0       0       0       0       0       0       0       0       0       0       0       0       0       0
      Temps:          0       0       0       0       0       0       0       0       0       0       0       0       0       0       0
      Totals:        13       0       0       0       0       0       0       0       0       0       0       0       0       0       0
Total ram usage:       13 bytes
 Hardware stack levels used:    1
 This function calls:
		Nothing
 This function is called by:
		i2__doprnt
 This function uses a non-reentrant model


 *************** function _ADCC_ThresholdISR *****************
 Defined at:
		line 301 in file "mcc_generated_files/adcc.c"
 Parameters:    Size  Location     Type
		None
 Auto vars:     Size  Location     Type
		None
 Return value:  Size  Location     Type
                  1    wreg      void 
 Registers used:
		wreg, fsr2l, fsr2h, status,2, status,0, pclath, tosl, tblptrl, tblptrh, tblptru, prodl, prodh, cstack
 Tracked objects:
		On entry : 
		On exit  : 
		Unchanged: 
 Data sizes:     COMRAM   BANK0   BANK1   BANK2   BANK3   BANK4   BANK5   BANK6   BANK7   BANK8   BANK9  BANK10  BANK11  BANK12  BANK13
      Params:         0       0       0       0       0       0       0       0       0       0       0       0       0       0       0
      Locals:         0       0       0       0       0       0       0       0       0       0       0       0       0       0       0
      Temps:          0       0       0       0       0       0       0       0       0       0       0       0       0       0       0
      Totals:         0       0       0       0       0       0       0       0       0       0       0       0       0       0       0
Total ram usage:        0 bytes
 Hardware stack levels used:    1
 Hardware stack levels required when called:    7
 This function calls:
		Absolute function
		_ADCC_DefaultInterruptHandler
		_ADC_PostProcessingCallback
 This function is called by:
		_INTERRUPT_InterruptManagerHigh
 This function uses a non-reentrant model


 *************** function _ADCC_DefaultInterruptHandler *****************
 Defined at:
		line 313 in file "mcc_generated_files/adcc.c"
 Parameters:    Size  Location     Type
		None
 Auto vars:     Size  Location     Type
		None
 Return value:  Size  Location     Type
                  1    wreg      void 
 Registers used:
		None
 Tracked objects:
		On entry : 
		On exit  : 
		Unchanged: 
 Data sizes:     COMRAM   BANK0   BANK1   BANK2   BANK3   BANK4   BANK5   BANK6   BANK7   BANK8   BANK9  BANK10  BANK11  BANK12  BANK13
      Params:         0       0       0       0       0       0       0       0       0       0       0       0       0       0       0
      Locals:         0       0       0       0       0       0       0       0       0       0       0       0       0       0       0
      Temps:          0       0       0       0       0       0       0       0       0       0       0       0       0       0       0
      Totals:         0       0       0       0       0       0       0       0       0       0       0       0       0       0       0
Total ram usage:        0 bytes
 Hardware stack levels used:    1
 This function calls:
		Nothing
 This function is called by:
		_ADCC_Initialize
		_ADCC_ThresholdISR
 This function uses a non-reentrant model


 *************** function _ADC_PostProcessingCallback *****************
 Defined at:
		line 241 in file "main.c"
 Parameters:    Size  Location     Type
		None
 Auto vars:     Size  Location     Type
  current_adc_    1  138[BANK0 ] enum E17653
 Return value:  Size  Location     Type
                  1    wreg      void 
 Registers used:
		wreg, fsr2l, fsr2h, status,2, status,0, tblptrl, tblptrh, tblptru, prodl, prodh, cstack
 Tracked objects:
		On entry : 
		On exit  : 
		Unchanged: 
 Data sizes:     COMRAM   BANK0   BANK1   BANK2   BANK3   BANK4   BANK5   BANK6   BANK7   BANK8   BANK9  BANK10  BANK11  BANK12  BANK13
      Params:         0       0       0       0       0       0       0       0       0       0       0       0       0       0       0
      Locals:         0      25       0       0       0       0       0       0       0       0       0       0       0       0       0
      Temps:          0       0       0       0       0       0       0       0       0       0       0       0       0       0       0
      Totals:         0      25       0       0       0       0       0       0       0       0       0       0       0       0       0
Total ram usage:       25 bytes
 Hardware stack levels used:    1
 Hardware stack levels required when called:    6
 This function calls:
		_ADCC_GetConversionResult
		_ADCC_GetCurrentCountofConversions
		_ADCC_GetFilterValue
		_ADCC_HasAccumulatorOverflowed
		_ADCC_StopConversion
		_abs
		_currentMeasuredToPeak
		_peakToRMS
		i2___fladd
		i2___fldiv
		i2___flge
		i2___flmul
		i2___flneg
		i2___fltol
		i2___xxtofl
 This function is called by:
		_main
		_ADCC_ThresholdISR
 This function uses a non-reentrant model


 *************** function _peakToRMS *****************
 Defined at:
		line 130 in file "main.c"
 Parameters:    Size  Location     Type
  Peak            4   98[BANK0 ] void 
  Angle           4  102[BANK0 ] void 
 Auto vars:     Size  Location     Type
  RMS             4  118[BANK0 ] void 
 Return value:  Size  Location     Type
                  4   98[BANK0 ] void 
 Registers used:
		wreg, fsr2l, fsr2h, status,2, status,0, tblptrl, tblptrh, tblptru, prodl, prodh, cstack
 Tracked objects:
		On entry : 
		On exit  : 
		Unchanged: 
 Data sizes:     COMRAM   BANK0   BANK1   BANK2   BANK3   BANK4   BANK5   BANK6   BANK7   BANK8   BANK9  BANK10  BANK11  BANK12  BANK13
      Params:         0       8       0       0       0       0       0       0       0       0       0       0       0       0       0
      Locals:         0      16       0       0       0       0       0       0       0       0       0       0       0       0       0
      Temps:          0       0       0       0       0       0       0       0       0       0       0       0       0       0       0
      Totals:         0      24       0       0       0       0       0       0       0       0       0       0       0       0       0
Total ram usage:       24 bytes
 Hardware stack levels used:    1
 Hardware stack levels required when called:    5
 This function calls:
		_sin
		i2___fladd
		i2___fldiv
		i2___flmul
		i2___flneg
		i2_acos
		i2_sqrt
 This function is called by:
		_ADC_PostProcessingCallback
 This function uses a non-reentrant model


 *************** function i2_acos *****************
 Defined at:
		line 8 in file "C:\Program Files (x86)\Microchip\xc8\v1.45\sources\common\acos.c"
 Parameters:    Size  Location     Type
  x               4   90[BANK0 ] void 
 Auto vars:     Size  Location     Type
		None
 Return value:  Size  Location     Type
                  4   90[BANK0 ] void 
 Registers used:
		wreg, status,2, status,0, tblptrl, tblptrh, tblptru, prodl, prodh, cstack
 Tracked objects:
		On entry : 
		On exit  : 
		Unchanged: 
 Data sizes:     COMRAM   BANK0   BANK1   BANK2   BANK3   BANK4   BANK5   BANK6   BANK7   BANK8   BANK9  BANK10  BANK11  BANK12  BANK13
      Params:         0       4       0       0       0       0       0       0       0       0       0       0       0       0       0
      Locals:         0       4       0       0       0       0       0       0       0       0       0       0       0       0       0
      Temps:          0       0       0       0       0       0       0       0       0       0       0       0       0       0       0
      Totals:         0       8       0       0       0       0       0       0       0       0       0       0       0       0       0
Total ram usage:        8 bytes
 Hardware stack levels used:    1
 Hardware stack levels required when called:    4
 This function calls:
		i2___fladd
		i2___flneg
		i2_asin
 This function is called by:
		_peakToRMS
 This function uses a non-reentrant model


 *************** function i2_asin *****************
 Defined at:
		line 9 in file "C:\Program Files (x86)\Microchip\xc8\v1.45\sources\common\asin.c"
 Parameters:    Size  Location     Type
  x               4   66[BANK0 ] void 
 Auto vars:     Size  Location     Type
  asin            4   82[BANK0 ] void 
  asin            4   70[BANK0 ] void 
 Return value:  Size  Location     Type
                  4   66[BANK0 ] void 
 Registers used:
		wreg, status,2, status,0, tblptrl, tblptrh, tblptru, prodl, prodh, cstack
 Tracked objects:
		On entry : 
		On exit  : 
		Unchanged: 
 Data sizes:     COMRAM   BANK0   BANK1   BANK2   BANK3   BANK4   BANK5   BANK6   BANK7   BANK8   BANK9  BANK10  BANK11  BANK12  BANK13
      Params:         0       4       0       0       0       0       0       0       0       0       0       0       0       0       0
      Locals:         0      20       0       0       0       0       0       0       0       0       0       0       0       0       0
      Temps:          0       0       0       0       0       0       0       0       0       0       0       0       0       0       0
      Totals:         0      24       0       0       0       0       0       0       0       0       0       0       0       0       0
Total ram usage:       24 bytes
 Hardware stack levels used:    1
 Hardware stack levels required when called:    3
 This function calls:
		i2___fladd
		i2___fldiv
		i2___flge
		i2___flmul
		i2___flneg
		i2_atan
		i2_fabs
		i2_sqrt
 This function is called by:
		i2_acos
 This function uses a non-reentrant model


 *************** function i2_sqrt *****************
 Defined at:
		line 9 in file "C:\Program Files (x86)\Microchip\xc8\v1.45\sources\common\sprcsqrt.c"
 Parameters:    Size  Location     Type
  a               4   29[BANK0 ] void 
 Auto vars:     Size  Location     Type
  sqrt            4   54[BANK0 ] unsigned long 
  sqrt            4   50[BANK0 ] struct .
  sqrt            4   44[BANK0 ] unsigned long 
  sqrt            4   39[BANK0 ] unsigned long 
  sqrt            2   48[BANK0 ] int 
  sqrt            1   43[BANK0 ] unsigned char 
  sqrt            1   38[BANK0 ] unsigned char 
  sqrt            1   37[BANK0 ] unsigned char 
 Return value:  Size  Location     Type
                  4   29[BANK0 ] unsigned char 
 Registers used:
		wreg, status,2, status,0
 Tracked objects:
		On entry : 
		On exit  : 
		Unchanged: 
 Data sizes:     COMRAM   BANK0   BANK1   BANK2   BANK3   BANK4   BANK5   BANK6   BANK7   BANK8   BANK9  BANK10  BANK11  BANK12  BANK13
      Params:         0       4       0       0       0       0       0       0       0       0       0       0       0       0       0
      Locals:         0      21       0       0       0       0       0       0       0       0       0       0       0       0       0
      Temps:          0       4       0       0       0       0       0       0       0       0       0       0       0       0       0
      Totals:         0      29       0       0       0       0       0       0       0       0       0       0       0       0       0
Total ram usage:       29 bytes
 Hardware stack levels used:    1
 This function calls:
		Nothing
 This function is called by:
		_peakToRMS
		i2_asin
 This function uses a non-reentrant model


 *************** function i2_atan *****************
 Defined at:
		line 8 in file "C:\Program Files (x86)\Microchip\xc8\v1.45\sources\common\atan.c"
 Parameters:    Size  Location     Type
  f               4   45[BANK0 ] unsigned char 
 Auto vars:     Size  Location     Type
  atan            4   62[BANK0 ] unsigned char 
  atan            4   58[BANK0 ] unsigned char 
  atan            4   53[BANK0 ] unsigned char 
  atan            4   49[BANK0 ] unsigned char 
  atan            1   57[BANK0 ] unsigned char 
 Return value:  Size  Location     Type
                  4   45[BANK0 ] unsigned char 
 Registers used:
		wreg, status,2, status,0, tblptrl, tblptrh, tblptru, prodl, prodh, cstack
 Tracked objects:
		On entry : 
		On exit  : 
		Unchanged: 
 Data sizes:     COMRAM   BANK0   BANK1   BANK2   BANK3   BANK4   BANK5   BANK6   BANK7   BANK8   BANK9  BANK10  BANK11  BANK12  BANK13
      Params:         0       4       0       0       0       0       0       0       0       0       0       0       0       0       0
      Locals:         0      17       0       0       0       0       0       0       0       0       0       0       0       0       0
      Temps:          0       0       0       0       0       0       0       0       0       0       0       0       0       0       0
      Totals:         0      21       0       0       0       0       0       0       0       0       0       0       0       0       0
Total ram usage:       21 bytes
 Hardware stack levels used:    1
 Hardware stack levels required when called:    2
 This function calls:
		i2___fladd
		i2___fldiv
		i2___flge
		i2___flmul
		i2___flneg
		i2_eval_poly
		i2_fabs
 This function is called by:
		i2_asin
 This function uses a non-reentrant model


 *************** function i2_fabs *****************
 Defined at:
		line 4 in file "C:\Program Files (x86)\Microchip\xc8\v1.45\sources\common\fabs.c"
 Parameters:    Size  Location     Type
  d               4   88[COMRAM] unsigned char 
 Auto vars:     Size  Location     Type
		None
 Return value:  Size  Location     Type
                  4   88[COMRAM] unsigned char 
 Registers used:
		wreg, status,2, status,0, cstack
 Tracked objects:
		On entry : 
		On exit  : 
		Unchanged: 
 Data sizes:     COMRAM   BANK0   BANK1   BANK2   BANK3   BANK4   BANK5   BANK6   BANK7   BANK8   BANK9  BANK10  BANK11  BANK12  BANK13
      Params:         4       0       0       0       0       0       0       0       0       0       0       0       0       0       0
      Locals:         0       0       0       0       0       0       0       0       0       0       0       0       0       0       0
      Temps:          0       0       0       0       0       0       0       0       0       0       0       0       0       0       0
      Totals:         4       0       0       0       0       0       0       0       0       0       0       0       0       0       0
Total ram usage:        4 bytes
 Hardware stack levels used:    1
 Hardware stack levels required when called:    1
 This function calls:
		i2___flneg
 This function is called by:
		i2_asin
		i2_atan
 This function uses a non-reentrant model


 *************** function _currentMeasuredToPeak *****************
 Defined at:
		line 147 in file "main.c"
 Parameters:    Size  Location     Type
  Measured        4   76[BANK0 ] unsigned char 
  Angle           4   80[BANK0 ] unsigned char 
 Auto vars:     Size  Location     Type
  Peak            4   84[BANK0 ] unsigned char 
 Return value:  Size  Location     Type
                  4   76[BANK0 ] unsigned char 
 Registers used:
		wreg, fsr2l, fsr2h, status,2, status,0, tblptrl, tblptrh, tblptru, prodl, prodh, cstack
 Tracked objects:
		On entry : 
		On exit  : 
		Unchanged: 
 Data sizes:     COMRAM   BANK0   BANK1   BANK2   BANK3   BANK4   BANK5   BANK6   BANK7   BANK8   BANK9  BANK10  BANK11  BANK12  BANK13
      Params:         0       8       0       0       0       0       0       0       0       0       0       0       0       0       0
      Locals:         0       4       0       0       0       0       0       0       0       0       0       0       0       0       0
      Temps:          0       0       0       0       0       0       0       0       0       0       0       0       0       0       0
      Totals:         0      12       0       0       0       0       0       0       0       0       0       0       0       0       0
Total ram usage:       12 bytes
 Hardware stack levels used:    1
 Hardware stack levels required when called:    3
 This function calls:
		_sin
		i2___fldiv
 This function is called by:
		_ADC_PostProcessingCallback
 This function uses a non-reentrant model


 *************** function _sin *****************
 Defined at:
		line 13 in file "C:\Program Files (x86)\Microchip\xc8\v1.45\sources\common\sin.c"
 Parameters:    Size  Location     Type
  f               4   59[BANK0 ] unsigned char 
 Auto vars:     Size  Location     Type
  x2              4   71[BANK0 ] unsigned char 
  y               4   63[BANK0 ] unsigned char 
  sgn             1   75[BANK0 ] unsigned char 
 Return value:  Size  Location     Type
                  4   59[BANK0 ] unsigned char 
 Registers used:
		wreg, fsr2l, fsr2h, status,2, status,0, tblptrl, tblptrh, tblptru, prodl, prodh, cstack
 Tracked objects:
		On entry : 
		On exit  : 
		Unchanged: 
 Data sizes:     COMRAM   BANK0   BANK1   BANK2   BANK3   BANK4   BANK5   BANK6   BANK7   BANK8   BANK9  BANK10  BANK11  BANK12  BANK13
      Params:         0       4       0       0       0       0       0       0       0       0       0       0       0       0       0
      Locals:         0      13       0       0       0       0       0       0       0       0       0       0       0       0       0
      Temps:          0       0       0       0       0       0       0       0       0       0       0       0       0       0       0
      Totals:         0      17       0       0       0       0       0       0       0       0       0       0       0       0       0
Total ram usage:       17 bytes
 Hardware stack levels used:    1
 Hardware stack levels required when called:    2
 This function calls:
		_floor
		i2___fladd
		i2___fldiv
		i2___flge
		i2___flmul
		i2___flneg
		i2___flsub
		i2_eval_poly
 This function is called by:
		_peakToRMS
		_currentMeasuredToPeak
 This function uses a non-reentrant model


 *************** function i2_eval_poly *****************
 Defined at:
		line 4 in file "C:\Program Files (x86)\Microchip\xc8\v1.45\sources\common\evalpoly.c"
 Parameters:    Size  Location     Type
  x               4   29[BANK0 ] unsigned char 
  d               2   33[BANK0 ] PTR const 
		 -> sin@coeff_a(20), sin@coeff_b(16), atan@coeff_a(24), atan@coeff_b(20), 
  n               2   35[BANK0 ] int 
 Auto vars:     Size  Location     Type
  eval_poly       4   41[BANK0 ] int 
 Return value:  Size  Location     Type
                  4   29[BANK0 ] int 
 Registers used:
		wreg, status,2, status,0, tblptrl, tblptrh, tblptru, prodl, prodh, cstack
 Tracked objects:
		On entry : 
		On exit  : 
		Unchanged: 
 Data sizes:     COMRAM   BANK0   BANK1   BANK2   BANK3   BANK4   BANK5   BANK6   BANK7   BANK8   BANK9  BANK10  BANK11  BANK12  BANK13
      Params:         0       8       0       0       0       0       0       0       0       0       0       0       0       0       0
      Locals:         0       4       0       0       0       0       0       0       0       0       0       0       0       0       0
      Temps:          0       4       0       0       0       0       0       0       0       0       0       0       0       0       0
      Totals:         0      16       0       0       0       0       0       0       0       0       0       0       0       0       0
Total ram usage:       16 bytes
 Hardware stack levels used:    1
 Hardware stack levels required when called:    1
 This function calls:
		i2___fladd
		i2___flmul
 This function is called by:
		_sin
		i2_atan
 This function uses a non-reentrant model


 *************** function i2___flmul *****************
 Defined at:
		line 8 in file "C:\Program Files (x86)\Microchip\xc8\v1.45\sources\common\sprcmul.c"
 Parameters:    Size  Location     Type
  b               4   14[COMRAM] int 
  a               4   18[COMRAM] int 
 Auto vars:     Size  Location     Type
  __flmul         4   33[COMRAM] struct .
  __flmul         4   28[COMRAM] unsigned long 
  __flmul         2   37[COMRAM] struct .
  __flmul         1   32[COMRAM] unsigned char 
  __flmul         1   27[COMRAM] unsigned char 
  __flmul         1   26[COMRAM] unsigned char 
 Return value:  Size  Location     Type
                  4   14[COMRAM] unsigned char 
 Registers used:
		wreg, status,2, status,0, prodl, prodh
 Tracked objects:
		On entry : 
		On exit  : 
		Unchanged: 
 Data sizes:     COMRAM   BANK0   BANK1   BANK2   BANK3   BANK4   BANK5   BANK6   BANK7   BANK8   BANK9  BANK10  BANK11  BANK12  BANK13
      Params:         8       0       0       0       0       0       0       0       0       0       0       0       0       0       0
      Locals:        13       0       0       0       0       0       0       0       0       0       0       0       0       0       0
      Temps:          4       0       0       0       0       0       0       0       0       0       0       0       0       0       0
      Totals:        25       0       0       0       0       0       0       0       0       0       0       0       0       0       0
Total ram usage:       25 bytes
 Hardware stack levels used:    1
 This function calls:
		Nothing
 This function is called by:
		_peakToRMS
		_ADC_PostProcessingCallback
		_sin
		i2_fround
		i2_scale
		i2__doprnt
		i2_asin
		i2_atan
		i2_eval_poly
 This function uses a non-reentrant model


 *************** function i2___flsub *****************
 Defined at:
		line 245 in file "C:\Program Files (x86)\Microchip\xc8\v1.45\sources\common\sprcadd.c"
 Parameters:    Size  Location     Type
  b               4   51[BANK0 ] unsigned char 
  a               4   55[BANK0 ] unsigned char 
 Auto vars:     Size  Location     Type
		None
 Return value:  Size  Location     Type
                  4   51[BANK0 ] unsigned char 
 Registers used:
		wreg, status,2, status,0, cstack
 Tracked objects:
		On entry : 
		On exit  : 
		Unchanged: 
 Data sizes:     COMRAM   BANK0   BANK1   BANK2   BANK3   BANK4   BANK5   BANK6   BANK7   BANK8   BANK9  BANK10  BANK11  BANK12  BANK13
      Params:         0       8       0       0       0       0       0       0       0       0       0       0       0       0       0
      Locals:         0       0       0       0       0       0       0       0       0       0       0       0       0       0       0
      Temps:          0       0       0       0       0       0       0       0       0       0       0       0       0       0       0
      Totals:         0       8       0       0       0       0       0       0       0       0       0       0       0       0       0
Total ram usage:        8 bytes
 Hardware stack levels used:    1
 Hardware stack levels required when called:    1
 This function calls:
		i2___fladd
 This function is called by:
		_sin
		i2__doprnt
 This function uses a non-reentrant model


 *************** function i2___flneg *****************
 Defined at:
		line 15 in file "C:\Program Files (x86)\Microchip\xc8\v1.45\sources\common\flneg.c"
 Parameters:    Size  Location     Type
  f1              4   84[COMRAM] unsigned char 
 Auto vars:     Size  Location     Type
		None
 Return value:  Size  Location     Type
                  4   84[COMRAM] unsigned char 
 Registers used:
		wreg, status,2, status,0
 Tracked objects:
		On entry : 
		On exit  : 
		Unchanged: 
 Data sizes:     COMRAM   BANK0   BANK1   BANK2   BANK3   BANK4   BANK5   BANK6   BANK7   BANK8   BANK9  BANK10  BANK11  BANK12  BANK13
      Params:         4       0       0       0       0       0       0       0       0       0       0       0       0       0       0
      Locals:         0       0       0       0       0       0       0       0       0       0       0       0       0       0       0
      Temps:          0       0       0       0       0       0       0       0       0       0       0       0       0       0       0
      Totals:         4       0       0       0       0       0       0       0       0       0       0       0       0       0       0
Total ram usage:        4 bytes
 Hardware stack levels used:    1
 This function calls:
		Nothing
 This function is called by:
		_peakToRMS
		_ADC_PostProcessingCallback
		_sin
		i2__doprnt
		i2_acos
		i2_asin
		i2_atan
		i2_fabs
 This function uses a non-reentrant model


 *************** function i2___fldiv *****************
 Defined at:
		line 11 in file "C:\Program Files (x86)\Microchip\xc8\v1.45\sources\common\sprcdiv.c"
 Parameters:    Size  Location     Type
  b               4   72[COMRAM] unsigned char 
  a               4   76[COMRAM] unsigned char 
 Auto vars:     Size  Location     Type
  __fldiv         4    7[BANK0 ] unsigned long 
  __fldiv         4    1[BANK0 ] unsigned long 
  __fldiv         2    5[BANK0 ] int 
  __fldiv         1   12[BANK0 ] unsigned char 
  __fldiv         1   11[BANK0 ] unsigned char 
  __fldiv         1    0[BANK0 ] unsigned char 
 Return value:  Size  Location     Type
                  4   72[COMRAM] unsigned char 
 Registers used:
		wreg, status,2, status,0
 Tracked objects:
		On entry : 
		On exit  : 
		Unchanged: 
 Data sizes:     COMRAM   BANK0   BANK1   BANK2   BANK3   BANK4   BANK5   BANK6   BANK7   BANK8   BANK9  BANK10  BANK11  BANK12  BANK13
      Params:         8       0       0       0       0       0       0       0       0       0       0       0       0       0       0
      Locals:         0      13       0       0       0       0       0       0       0       0       0       0       0       0       0
      Temps:          4       0       0       0       0       0       0       0       0       0       0       0       0       0       0
      Totals:        12      13       0       0       0       0       0       0       0       0       0       0       0       0       0
Total ram usage:       25 bytes
 Hardware stack levels used:    1
 This function calls:
		Nothing
 This function is called by:
		_peakToRMS
		_currentMeasuredToPeak
		_ADC_PostProcessingCallback
		_sin
		i2__doprnt
		i2_asin
		i2_atan
 This function uses a non-reentrant model


 *************** function _floor *****************
 Defined at:
		line 13 in file "C:\Program Files (x86)\Microchip\xc8\v1.45\sources\common\floor.c"
 Parameters:    Size  Location     Type
  x               4   41[BANK0 ] unsigned char 
 Auto vars:     Size  Location     Type
  i               4   45[BANK0 ] unsigned char 
  expon           2   49[BANK0 ] int 
 Return value:  Size  Location     Type
                  4   41[BANK0 ] int 
 Registers used:
		wreg, fsr2l, fsr2h, status,2, status,0, cstack
 Tracked objects:
		On entry : 
		On exit  : 
		Unchanged: 
 Data sizes:     COMRAM   BANK0   BANK1   BANK2   BANK3   BANK4   BANK5   BANK6   BANK7   BANK8   BANK9  BANK10  BANK11  BANK12  BANK13
      Params:         0       4       0       0       0       0       0       0       0       0       0       0       0       0       0
      Locals:         0       6       0       0       0       0       0       0       0       0       0       0       0       0       0
      Temps:          0       0       0       0       0       0       0       0       0       0       0       0       0       0       0
      Totals:         0      10       0       0       0       0       0       0       0       0       0       0       0       0       0
Total ram usage:       10 bytes
 Hardware stack levels used:    1
 Hardware stack levels required when called:    1
 This function calls:
		i2___fladd
		i2___flge
		i2___fltol
		i2___xxtofl
		i2_frexp
 This function is called by:
		_sin
 This function uses a non-reentrant model


 *************** function i2_frexp *****************
 Defined at:
		line 254 in file "C:\Program Files (x86)\Microchip\xc8\v1.45\sources\common\frexp.c"
 Parameters:    Size  Location     Type
  value           4    0[COMRAM] int 
  eptr            2    4[COMRAM] PTR int 
		 -> floor@expon(2), trunc@expon(2), 
 Auto vars:     Size  Location     Type
		None
 Return value:  Size  Location     Type
                  4    0[COMRAM] PTR int 
 Registers used:
		wreg, fsr2l, fsr2h, status,2, status,0
 Tracked objects:
		On entry : 
		On exit  : 
		Unchanged: 
 Data sizes:     COMRAM   BANK0   BANK1   BANK2   BANK3   BANK4   BANK5   BANK6   BANK7   BANK8   BANK9  BANK10  BANK11  BANK12  BANK13
      Params:         6       0       0       0       0       0       0       0       0       0       0       0       0       0       0
      Locals:         0       0       0       0       0       0       0       0       0       0       0       0       0       0       0
      Temps:          2       0       0       0       0       0       0       0       0       0       0       0       0       0       0
      Totals:         8       0       0       0       0       0       0       0       0       0       0       0       0       0       0
Total ram usage:        8 bytes
 Hardware stack levels used:    1
 This function calls:
		Nothing
 This function is called by:
		_floor
 This function uses a non-reentrant model


 *************** function i2___xxtofl *****************
 Defined at:
		line 10 in file "C:\Program Files (x86)\Microchip\xc8\v1.45\sources\common\xxtofl.c"
 Parameters:    Size  Location     Type
  sign            1    wreg     unsigned char 
  val             4   58[COMRAM] long 
 Auto vars:     Size  Location     Type
  sign            1   66[COMRAM] unsigned char 
  __xxtofl        4   68[COMRAM] unsigned long 
  __xxtofl        1   67[COMRAM] unsigned char 
 Return value:  Size  Location     Type
                  4   58[COMRAM] unsigned char 
 Registers used:
		wreg, status,2, status,0
 Tracked objects:
		On entry : 
		On exit  : 
		Unchanged: 
 Data sizes:     COMRAM   BANK0   BANK1   BANK2   BANK3   BANK4   BANK5   BANK6   BANK7   BANK8   BANK9  BANK10  BANK11  BANK12  BANK13
      Params:         4       0       0       0       0       0       0       0       0       0       0       0       0       0       0
      Locals:         6       0       0       0       0       0       0       0       0       0       0       0       0       0       0
      Temps:          4       0       0       0       0       0       0       0       0       0       0       0       0       0       0
      Totals:        14       0       0       0       0       0       0       0       0       0       0       0       0       0       0
Total ram usage:       14 bytes
 Hardware stack levels used:    1
 This function calls:
		Nothing
 This function is called by:
		_ADC_PostProcessingCallback
		_floor
		i2__doprnt
 This function uses a non-reentrant model


 *************** function i2___fltol *****************
 Defined at:
		line 43 in file "C:\Program Files (x86)\Microchip\xc8\v1.45\sources\common\fltol.c"
 Parameters:    Size  Location     Type
  f1              4   48[COMRAM] unsigned char 
 Auto vars:     Size  Location     Type
  __fltol         1   57[COMRAM] unsigned char 
  __fltol         1   56[COMRAM] unsigned char 
 Return value:  Size  Location     Type
                  4   48[COMRAM] long 
 Registers used:
		wreg, status,2, status,0
 Tracked objects:
		On entry : 
		On exit  : 
		Unchanged: 
 Data sizes:     COMRAM   BANK0   BANK1   BANK2   BANK3   BANK4   BANK5   BANK6   BANK7   BANK8   BANK9  BANK10  BANK11  BANK12  BANK13
      Params:         4       0       0       0       0       0       0       0       0       0       0       0       0       0       0
      Locals:         2       0       0       0       0       0       0       0       0       0       0       0       0       0       0
      Temps:          4       0       0       0       0       0       0       0       0       0       0       0       0       0       0
      Totals:        10       0       0       0       0       0       0       0       0       0       0       0       0       0       0
Total ram usage:       10 bytes
 Hardware stack levels used:    1
 This function calls:
		Nothing
 This function is called by:
		_ADC_PostProcessingCallback
		_floor
		i2__doprnt
 This function uses a non-reentrant model


 *************** function i2___flge *****************
 Defined at:
		line 4 in file "C:\Program Files (x86)\Microchip\xc8\v1.45\sources\common\flge.c"
 Parameters:    Size  Location     Type
  ff1             4   29[BANK0 ] long 
  ff2             4   33[BANK0 ] long 
 Auto vars:     Size  Location     Type
		None
 Return value:  Size  Location     Type
		None               void
 Registers used:
		wreg, status,2, status,0
 Tracked objects:
		On entry : 
		On exit  : 
		Unchanged: 
 Data sizes:     COMRAM   BANK0   BANK1   BANK2   BANK3   BANK4   BANK5   BANK6   BANK7   BANK8   BANK9  BANK10  BANK11  BANK12  BANK13
      Params:         0       8       0       0       0       0       0       0       0       0       0       0       0       0       0
      Locals:         0       0       0       0       0       0       0       0       0       0       0       0       0       0       0
      Temps:          0       4       0       0       0       0       0       0       0       0       0       0       0       0       0
      Totals:         0      12       0       0       0       0       0       0       0       0       0       0       0       0       0
Total ram usage:       12 bytes
 Hardware stack levels used:    1
 This function calls:
		Nothing
 This function is called by:
		_ADC_PostProcessingCallback
		_writeEnergyToEEPROMCallback
		_sin
		_floor
		i2__doprnt
		i2_asin
		i2_atan
 This function uses a non-reentrant model


 *************** function i2___fladd *****************
 Defined at:
		line 10 in file "C:\Program Files (x86)\Microchip\xc8\v1.45\sources\common\sprcadd.c"
 Parameters:    Size  Location     Type
  b               4   13[BANK0 ] long 
  a               4   17[BANK0 ] long 
 Auto vars:     Size  Location     Type
  __fladd         1   91[COMRAM] unsigned char 
  __fladd         1   90[COMRAM] unsigned char 
  __fladd         1   89[COMRAM] unsigned char 
  __fladd         1   88[COMRAM] unsigned char 
 Return value:  Size  Location     Type
                  4   13[BANK0 ] unsigned char 
 Registers used:
		wreg, status,2, status,0
 Tracked objects:
		On entry : 
		On exit  : 
		Unchanged: 
 Data sizes:     COMRAM   BANK0   BANK1   BANK2   BANK3   BANK4   BANK5   BANK6   BANK7   BANK8   BANK9  BANK10  BANK11  BANK12  BANK13
      Params:         0       8       0       0       0       0       0       0       0       0       0       0       0       0       0
      Locals:         4       0       0       0       0       0       0       0       0       0       0       0       0       0       0
      Temps:          0       8       0       0       0       0       0       0       0       0       0       0       0       0       0
      Totals:         4      16       0       0       0       0       0       0       0       0       0       0       0       0       0
Total ram usage:       20 bytes
 Hardware stack levels used:    1
 This function calls:
		Nothing
 This function is called by:
		_peakToRMS
		_ADC_PostProcessingCallback
		_sin
		_floor
		i2__doprnt
		i2_acos
		i2_asin
		i2_atan
		i2_eval_poly
		i2___flsub
 This function uses a non-reentrant model


 *************** function _abs *****************
 Defined at:
		line 4 in file "C:\Program Files (x86)\Microchip\xc8\v1.45\sources\common\abs.c"
 Parameters:    Size  Location     Type
  a               2   29[BANK0 ] int 
 Auto vars:     Size  Location     Type
		None
 Return value:  Size  Location     Type
                  2   29[BANK0 ] int 
 Registers used:
		wreg, status,2, status,0
 Tracked objects:
		On entry : 
		On exit  : 
		Unchanged: 
 Data sizes:     COMRAM   BANK0   BANK1   BANK2   BANK3   BANK4   BANK5   BANK6   BANK7   BANK8   BANK9  BANK10  BANK11  BANK12  BANK13
      Params:         0       2       0       0       0       0       0       0       0       0       0       0       0       0       0
      Locals:         0       0       0       0       0       0       0       0       0       0       0       0       0       0       0
      Temps:          2       0       0       0       0       0       0       0       0       0       0       0       0       0       0
      Totals:         2       2       0       0       0       0       0       0       0       0       0       0       0       0       0
Total ram usage:        4 bytes
 Hardware stack levels used:    1
 This function calls:
		Nothing
 This function is called by:
		_ADC_PostProcessingCallback
 This function uses a non-reentrant model


 *************** function _ADCC_StopConversion *****************
 Defined at:
		line 165 in file "mcc_generated_files/adcc.c"
 Parameters:    Size  Location     Type
		None
 Auto vars:     Size  Location     Type
		None
 Return value:  Size  Location     Type
                  1    wreg      void 
 Registers used:
		None
 Tracked objects:
		On entry : 
		On exit  : 
		Unchanged: 
 Data sizes:     COMRAM   BANK0   BANK1   BANK2   BANK3   BANK4   BANK5   BANK6   BANK7   BANK8   BANK9  BANK10  BANK11  BANK12  BANK13
      Params:         0       0       0       0       0       0       0       0       0       0       0       0       0       0       0
      Locals:         0       0       0       0       0       0       0       0       0       0       0       0       0       0       0
      Temps:          0       0       0       0       0       0       0       0       0       0       0       0       0       0       0
      Totals:         0       0       0       0       0       0       0       0       0       0       0       0       0       0       0
Total ram usage:        0 bytes
 Hardware stack levels used:    1
 This function calls:
		Nothing
 This function is called by:
		_ADC_PostProcessingCallback
 This function uses a non-reentrant model


 *************** function _ADCC_HasAccumulatorOverflowed *****************
 Defined at:
		line 219 in file "mcc_generated_files/adcc.c"
 Parameters:    Size  Location     Type
		None
 Auto vars:     Size  Location     Type
		None
 Return value:  Size  Location     Type
                  1    wreg      unsigned char 
 Registers used:
		wreg
 Tracked objects:
		On entry : 
		On exit  : 
		Unchanged: 
 Data sizes:     COMRAM   BANK0   BANK1   BANK2   BANK3   BANK4   BANK5   BANK6   BANK7   BANK8   BANK9  BANK10  BANK11  BANK12  BANK13
      Params:         0       0       0       0       0       0       0       0       0       0       0       0       0       0       0
      Locals:         0       0       0       0       0       0       0       0       0       0       0       0       0       0       0
      Temps:          0       0       0       0       0       0       0       0       0       0       0       0       0       0       0
      Totals:         0       0       0       0       0       0       0       0       0       0       0       0       0       0       0
Total ram usage:        0 bytes
 Hardware stack levels used:    1
 This function calls:
		Nothing
 This function is called by:
		_ADC_PostProcessingCallback
 This function uses a non-reentrant model


 *************** function _ADCC_GetFilterValue *****************
 Defined at:
		line 225 in file "mcc_generated_files/adcc.c"
 Parameters:    Size  Location     Type
		None
 Auto vars:     Size  Location     Type
		None
 Return value:  Size  Location     Type
                  2    0[COMRAM] unsigned int 
 Registers used:
		wreg, status,2, status,0
 Tracked objects:
		On entry : 
		On exit  : 
		Unchanged: 
 Data sizes:     COMRAM   BANK0   BANK1   BANK2   BANK3   BANK4   BANK5   BANK6   BANK7   BANK8   BANK9  BANK10  BANK11  BANK12  BANK13
      Params:         2       0       0       0       0       0       0       0       0       0       0       0       0       0       0
      Locals:         0       0       0       0       0       0       0       0       0       0       0       0       0       0       0
      Temps:          2       0       0       0       0       0       0       0       0       0       0       0       0       0       0
      Totals:         4       0       0       0       0       0       0       0       0       0       0       0       0       0       0
Total ram usage:        4 bytes
 Hardware stack levels used:    1
 This function calls:
		Nothing
 This function is called by:
		_ADC_PostProcessingCallback
 This function uses a non-reentrant model


 *************** function _ADCC_GetCurrentCountofConversions *****************
 Defined at:
		line 201 in file "mcc_generated_files/adcc.c"
 Parameters:    Size  Location     Type
		None
 Auto vars:     Size  Location     Type
		None
 Return value:  Size  Location     Type
                  1    wreg      unsigned char 
 Registers used:
		wreg, status,2
 Tracked objects:
		On entry : 
		On exit  : 
		Unchanged: 
 Data sizes:     COMRAM   BANK0   BANK1   BANK2   BANK3   BANK4   BANK5   BANK6   BANK7   BANK8   BANK9  BANK10  BANK11  BANK12  BANK13
      Params:         0       0       0       0       0       0       0       0       0       0       0       0       0       0       0
      Locals:         0       0       0       0       0       0       0       0       0       0       0       0       0       0       0
      Temps:          0       0       0       0       0       0       0       0       0       0       0       0       0       0       0
      Totals:         0       0       0       0       0       0       0       0       0       0       0       0       0       0       0
Total ram usage:        0 bytes
 Hardware stack levels used:    1
 This function calls:
		Nothing
 This function is called by:
		_ADC_PostProcessingCallback
 This function uses a non-reentrant model


 *************** function _ADCC_GetConversionResult *****************
 Defined at:
		line 133 in file "mcc_generated_files/adcc.c"
 Parameters:    Size  Location     Type
		None
 Auto vars:     Size  Location     Type
		None
 Return value:  Size  Location     Type
                  2    0[COMRAM] unsigned int 
 Registers used:
		wreg, status,2, status,0
 Tracked objects:
		On entry : 
		On exit  : 
		Unchanged: 
 Data sizes:     COMRAM   BANK0   BANK1   BANK2   BANK3   BANK4   BANK5   BANK6   BANK7   BANK8   BANK9  BANK10  BANK11  BANK12  BANK13
      Params:         2       0       0       0       0       0       0       0       0       0       0       0       0       0       0
      Locals:         0       0       0       0       0       0       0       0       0       0       0       0       0       0       0
      Temps:          2       0       0       0       0       0       0       0       0       0       0       0       0       0       0
      Totals:         4       0       0       0       0       0       0       0       0       0       0       0       0       0       0
Total ram usage:        4 bytes
 Hardware stack levels used:    1
 This function calls:
		Nothing
 This function is called by:
		_ADC_PostProcessingCallback
 This function uses a non-reentrant model



MODULE INFORMATION

Module		Function		Class		Link	Load	Size
C:\Program Files (x86)\Microchip\xc8\v1.45\sources\common\asin.c
		_asin          		CODE           	1C616	0000	785

C:\Program Files (x86)\Microchip\xc8\v1.45\sources\common\asin.c estimated size: 785

C:\Program Files (x86)\Microchip\xc8\v1.45\sources\common\sprcdiv.c
		___fldiv       		CODE           	1E02A	0000	695

C:\Program Files (x86)\Microchip\xc8\v1.45\sources\common\sprcdiv.c estimated size: 695

C:\Program Files (x86)\Microchip\xc8\v1.45\sources\common\sprcsqrt.c
		_sqrt          		CODE           	1D246	0000	713

C:\Program Files (x86)\Microchip\xc8\v1.45\sources\common\sprcsqrt.c estimated size: 713

C:\Program Files (x86)\Microchip\xc8\v1.45\sources\common\memmove.c
		_memmove       		CODE           	1CF0	0000	175

C:\Program Files (x86)\Microchip\xc8\v1.45\sources\common\memmove.c estimated size: 175

C:\Program Files (x86)\Microchip\xc8\v1.45\sources\common\float.c
		___ftpack      		CODE           	1AE0	0000	177

C:\Program Files (x86)\Microchip\xc8\v1.45\sources\common\float.c estimated size: 177

C:\Program Files (x86)\Microchip\xc8\v1.45\sources\common\flge.c
		___flge        		CODE           	0824	0000	291

C:\Program Files (x86)\Microchip\xc8\v1.45\sources\common\flge.c estimated size: 291

mcc_generated_files/tmr6.c
		_TMR6_ISR      		CODE           	3F9A	0000	41
		_TMR6_Initialize		CODE           	3D98	0000	51
		_TMR6_SetInterruptHandler		CODE           	44B2	0000	15
		_TMR6_DefaultInterruptHandler		CODE           	4626	0000	3

mcc_generated_files/tmr6.c estimated size: 110

mcc_generated_files/eusart2.c
		_putch         		CODE           	435E	0000	27
		_EUSART2_Read  		CODE           	32E4	0000	79
		_EUSART2_Write 		CODE           	34F2	0000	73
		_EUSART2_Receive_ISR		CODE           	1C40	0000	177
		_EUSART2_Transmit_ISR		CODE           	3CC6	0000	55
		_EUSART2_SetRxInterruptHandler		CODE           	4506	0000	15
		_EUSART2_SetTxInterruptHandler		CODE           	44F8	0000	15
		_EUSART2_Initialize		CODE           	2E20	0000	103

mcc_generated_files/eusart2.c estimated size: 544

C:\Program Files (x86)\Microchip\xc8\v1.45\sources\common\doprnt.c
		_scale         		CODE           	1A138	0000	1189
		_fround        		CODE           	1DA9E	0000	711
		__doprnt       		CODE           	120E8	0000	8249

C:\Program Files (x86)\Microchip\xc8\v1.45\sources\common\doprnt.c estimated size: 10149

mcc_generated_files/fvr.c
		_FVR_Initialize		CODE           	45C0	0000	9

mcc_generated_files/fvr.c estimated size: 9

error_handling.c
		_updateErrorLEDs		CODE           	43AC	0000	25
		_getADCError   		CODE           	3CFC	0000	53
		_clearADCErrors		CODE           	41D2	0000	35
		_getCOMMError  		CODE           	43F4	0000	23
		_clearCOMMErrors		CODE           	1FFF2	0000	15

error_handling.c estimated size: 151

mcc_generated_files/tmr4.c
		_TMR4_ISR      		CODE           	40F6	0000	39
		_TMR4_Initialize		CODE           	3E5A	0000	49
		_TMR4_SetInterruptHandler		CODE           	44CE	0000	15
		_TMR4_DefaultInterruptHandler		CODE           	462C	0000	3
		_TMR4_CallBack 		CODE           	418A	0000	37

mcc_generated_files/tmr4.c estimated size: 143

C:\Program Files (x86)\Microchip\xc8\v1.45\sources\common\round.c
		_round         		CODE           	1FF3C	0000	183

C:\Program Files (x86)\Microchip\xc8\v1.45\sources\common\round.c estimated size: 183

mcc_generated_files/tmr2.c
		_TMR2_ISR      		CODE           	4084	0000	39
		_TMR2_Initialize		CODE           	3E8A	0000	49
		_TMR2_Stop     		CODE           	4604	0000	5
		_TMR2_Start    		CODE           	4608	0000	5
		_TMR2_SetInterruptHandler		CODE           	44DC	0000	15
		_TMR2_Counter8BitSet		CODE           	4570	0000	11
		_TMR2_Period8BitSet		CODE           	457A	0000	11
		_TMR2_StopTimer		CODE           	45DC	0000	7
		_TMR2_DefaultInterruptHandler		CODE           	4628	0000	3
		_TMR2_CallBack 		CODE           	4166	0000	37
		_TMR2_WriteTimer		CODE           	4496	0000	15
		_TMR2_StartTimer		CODE           	45E2	0000	7

mcc_generated_files/tmr2.c estimated size: 204

mcc_generated_files/interrupt_manager.c
		_INTERRUPT_Initialize		CODE           	4278	0000	31
		_INTERRUPT_InterruptManagerLow		CODE           	0018	0000	243
		_INTERRUPT_InterruptManagerHigh		CODE           	0008	0000	271

mcc_generated_files/interrupt_manager.c estimated size: 545

C:\Program Files (x86)\Microchip\xc8\v1.45\sources\common\Umul16.c
		___wmul        		CODE           	3F72	0000	41

C:\Program Files (x86)\Microchip\xc8\v1.45\sources\common\Umul16.c estimated size: 41

mcc_generated_files/i2c1.c
		_I2C1_BusCollisionISR		CODE           	45FA	0000	7
		_I2C1_FunctionComplete		CODE           	42B4	0000	31
		_I2C1_MasterWriteTRBBuild		CODE           	36A2	0000	71
		_I2C1_ISR      		CODE           	1EAFA	0000	621
		_I2C1_MasterWrite		CODE           	3244	0000	81
		_I2C1_Initialize		CODE           	3C90	0000	55
		_I2C1_Stop     		CODE           	3880	0000	67
		_I2C1_WaitForLastPacketToComplete		CODE           	4584	0000	11
		_I2C1_MasterTRBInsert		CODE           	1E4C	0000	163

mcc_generated_files/i2c1.c estimated size: 1107

double_to_EEPROM.c
		_readDoubleFromEEPROM		CODE           	3102	0000	83
		_writeDoubleToEEPROM		CODE           	31A4	0000	81

double_to_EEPROM.c estimated size: 164

C:\Program Files (x86)\Microchip\xc8\v1.45\sources\common\frexp.c
		_frexp         		CODE           	2624	0000	127

C:\Program Files (x86)\Microchip\xc8\v1.45\sources\common\frexp.c estimated size: 127

mcc_generated_files/pin_manager.c
		_PIN_MANAGER_Initialize		CODE           	17D2	0000	205

mcc_generated_files/pin_manager.c estimated size: 205

C:\Program Files (x86)\Microchip\xc8\v1.45\sources\common\fabs.c
		_fabs          		CODE           	3982	0000	63

C:\Program Files (x86)\Microchip\xc8\v1.45\sources\common\fabs.c estimated size: 63

C:\Program Files (x86)\Microchip\xc8\v1.45\sources\common\isdigit.c
		_isdigit       		CODE           	41F4	0000	35

C:\Program Files (x86)\Microchip\xc8\v1.45\sources\common\isdigit.c estimated size: 35

C:\Program Files (x86)\Microchip\xc8\v1.45\sources\common\sprcadd.c
		___flsub       		CODE           	353A	0000	73
		___fladd       		CODE           	1BC5C	0000	831

C:\Program Files (x86)\Microchip\xc8\v1.45\sources\common\sprcadd.c estimated size: 904

C:\Program Files (x86)\Microchip\xc8\v1.45\sources\common\floor.c
		_floor         		CODE           	0B8A	0000	277

C:\Program Files (x86)\Microchip\xc8\v1.45\sources\common\floor.c estimated size: 277

C:\Program Files (x86)\Microchip\xc8\v1.45\sources\common\ftdivl.c
		__tdiv_to_l_   		CODE           	010E	0000	309

C:\Program Files (x86)\Microchip\xc8\v1.45\sources\common\ftdivl.c estimated size: 309

C:\Program Files (x86)\Microchip\xc8\v1.45\sources\common\awmod.c
		___awmod       		CODE           	290A	0000	115

C:\Program Files (x86)\Microchip\xc8\v1.45\sources\common\awmod.c estimated size: 115

C:\Program Files (x86)\Microchip\xc8\v1.45\sources\common\strstr.c
		_strstr        		CODE           	21FA	0000	141

C:\Program Files (x86)\Microchip\xc8\v1.45\sources\common\strstr.c estimated size: 141

C:\Program Files (x86)\Microchip\xc8\v1.45\sources\common\ftdiv.c
		___ftdiv       		CODE           	1292	0000	233

C:\Program Files (x86)\Microchip\xc8\v1.45\sources\common\ftdiv.c estimated size: 233

device_IDs.c
		_getDeviceID   		CODE           	4238	0000	33
		_getUserID     		CODE           	3774	0000	69
		_getMinorRevisionID		CODE           	4038	0000	39
		_getDeviceIDString		CODE           	2EEC	0000	97
		_getMajorRevisionID		CODE           	3AB6	0000	61

device_IDs.c estimated size: 299

C:\Program Files (x86)\Microchip\xc8\v1.45\sources\common\acos.c
		_acos          		CODE           	29EE	0000	113

C:\Program Files (x86)\Microchip\xc8\v1.45\sources\common\acos.c estimated size: 113

C:\Program Files (x86)\Microchip\xc8\v1.45\sources\common\llmod.c
		___llmod       		CODE           	2C80	0000	105

C:\Program Files (x86)\Microchip\xc8\v1.45\sources\common\llmod.c estimated size: 105

C:\Program Files (x86)\Microchip\xc8\v1.45\sources\common\fldivl.c
		__div_to_l_    		CODE           	04A8	0000	299

C:\Program Files (x86)\Microchip\xc8\v1.45\sources\common\fldivl.c estimated size: 299

C:\Program Files (x86)\Microchip\xc8\v1.45\sources\common\sprintf.c
		_sprintf       		CODE           	34AA	0000	73

C:\Program Files (x86)\Microchip\xc8\v1.45\sources\common\sprintf.c estimated size: 73

C:\Program Files (x86)\Microchip\xc8\v1.45\sources\common\fltol.c
		___fltol       		CODE           	1462	0000	223

C:\Program Files (x86)\Microchip\xc8\v1.45\sources\common\fltol.c estimated size: 223

mcc_generated_files/ext_int.c
		_INT0_SetInterruptHandler		CODE           	44EA	0000	15
		_EXT_INT_Initialize		CODE           	4296	0000	31
		_INT0_DefaultInterruptHandler		CODE           	462E	0000	3
		_INT0_CallBack 		CODE           	41AE	0000	37
		_INT0_ISR      		CODE           	45AC	0000	11

mcc_generated_files/ext_int.c estimated size: 97

C:\Program Files (x86)\Microchip\xc8\v1.45\sources\common\atoi.c
		_atoi          		CODE           	16FA	0000	217

C:\Program Files (x86)\Microchip\xc8\v1.45\sources\common\atoi.c estimated size: 217

mcc_generated_files/tmr7.c
		_TMR7_DefaultInterruptHandler		CODE           	4624	0000	3
		_TMR7_WriteTimer		CODE           	405E	0000	39
		_TMR7_ISR      		CODE           	3D30	0000	53
		_TMR7_Initialize		CODE           	30AE	0000	85
		_TMR7_SetInterruptHandler		CODE           	44A4	0000	15

mcc_generated_files/tmr7.c estimated size: 195

mcc_generated_files/hlvd.c
		_HLVD_ISR      		CODE           	3942	0000	65
		_HLVD_Initialize		CODE           	4486	0000	17

mcc_generated_files/hlvd.c estimated size: 82

C:\Program Files (x86)\Microchip\xc8\v1.45\sources\common\printf.c
		_printf        		CODE           	3AF2	0000	61

C:\Program Files (x86)\Microchip\xc8\v1.45\sources\common\printf.c estimated size: 61

mcc_generated_files/tmr5.c
		_TMR5_ISR      		CODE           	3D64	0000	53
		_TMR5_Initialize		CODE           	31F4	0000	81
		_TMR5_SetInterruptHandler		CODE           	44C0	0000	15
		_TMR5_StopTimer		CODE           	4600	0000	5
		_TMR5_DefaultInterruptHandler		CODE           	462A	0000	3
		_TMR5_WriteTimer		CODE           	4328	0000	29
		_TMR5_StartTimer		CODE           	4618	0000	5

mcc_generated_files/tmr5.c estimated size: 191

shared
		i2_writeDoubleToEEPROM		CODE           	33CC	0000	77
		i2_DATAEE_WriteByte		CODE           	3C1E	0000	59
		i1_acos        		CODE           	2A5E	0000	113
		i2_printf      		CODE           	3BA6	0000	61
		i2_acos        		CODE           	2B3E	0000	113
		_OledFont      		MEDIUMCONST    	CBA1	0000	769
		i2_readDoubleFromEEPROM		CODE           	3332	0000	79
		i1_putch       		CODE           	4530	0000	15
		i2_putch       		CODE           	45B6	0000	11
		i1_getMinorRevisionID		CODE           	40AA	0000	39
		i1___ftdiv     		CODE           	137A	0000	233
		__powers_      		MEDIUMCONST    	CAE3	0000	53
		i1_TMR2_Counter8BitSet		CODE           	458E	0000	11
		i1_OLED_YX     		CODE           	3B6A	0000	61
		i1_I2C1_WaitForLastPacketToComplete		CODE           	45A2	0000	11
		_dpowers       		MEDIUMCONST    	CB4B	0000	41
		i1___lwtoft    		CODE           	40D0	0000	39
		i1_isdigit     		CODE           	4216	0000	35
		i2_isdigit     		CODE           	42D2	0000	31
		i1_getCauseOfResetStringSmall		CODE           	3EBA	0000	49
		i1_OLED_Clear  		CODE           	3902	0000	65
		i1___flneg     		CODE           	3EEA	0000	49
		i1_strcpy      		CODE           	3582	0000	73
		i2___flneg     		CODE           	3F1A	0000	47
		i1_atan        		CODE           	1F44E	0000	569
		i1___awdiv     		CODE           	230C	0000	135
		i2_atan        		CODE           	1F686	0000	569
		atan@coeff_a   		MEDIUMCONST    	CEA1	0000	25
		atan@coeff_b   		MEDIUMCONST    	CECD	0000	21
		i2___awdiv     		CODE           	251E	0000	133
		i1___fladd     		CODE           	1BF9A	0000	831
		i1__tdiv_to_l_ 		CODE           	0242	0000	309
		i2___fladd     		CODE           	1C2D8	0000	831
		i2__tdiv_to_l_ 		CODE           	0376	0000	307
		i1___wmul      		CODE           	3FC2	0000	41
		i1_eval_poly   		CODE           	0EA6	0000	257
		i2___wmul      		CODE           	411C	0000	39
		i1_I2C1_MasterWrite		CODE           	3294	0000	81
		i2_eval_poly   		CODE           	0FA6	0000	257
		i1__doprnt     		CODE           	14120	0000	7987
		i2__doprnt     		CODE           	16052	0000	7969
		i1___fldiv     		CODE           	1E2E0	0000	695
		i1__div_to_l_  		CODE           	05D2	0000	299
		i1___fltol     		CODE           	1540	0000	223
		i2___fldiv     		CODE           	1E596	0000	695
		i2__div_to_l_  		CODE           	06FC	0000	297
		i1___ftpack    		CODE           	1B90	0000	177
		__npowers_     		MEDIUMCONST    	CB17	0000	53
		i2___fltol     		CODE           	161E	0000	221
		i1_scale       		CODE           	1A5DC	0000	1189
		i1___lldiv     		CODE           	2416	0000	133
		i2_scale       		CODE           	1AA80	0000	1153
		i2___lldiv     		CODE           	25A2	0000	131
		__initialization		CODE           	11A0	0000	233
		i1___flge      		CODE           	0946	0000	291
		i2___flge      		CODE           	0A68	0000	291
		i1_OLED_Command		CODE           	2DB8	0000	105
		i1_OLED_UpdateFromRAMBuffer		CODE           	2816	0000	123
		i1_OLED_PutChar		CODE           	1964	0000	199
		i1_trunc       		CODE           	2030	0000	161
		i1___awmod     		CODE           	297C	0000	115
		i2___awmod     		CODE           	2ACE	0000	113
		i1_EUSART2_Write		CODE           	35CA	0000	73
		i1_frexp       		CODE           	26A2	0000	127
		i2_EUSART2_Write		CODE           	372E	0000	71
		i2_frexp       		CODE           	2890	0000	123
		_max_Temp_ADC_Result_address		MEDIUMCONST    	CB95	0000	3
		i1_FLASH_ReadWord		CODE           	383E	0000	67
		_max_Irms_address		MEDIUMCONST    	CB9D	0000	3
		i1_TMR2_Stop   		CODE           	460C	0000	5
		_max_POS12_ADC_Result_address		MEDIUMCONST    	CB97	0000	3
		i1_FLASH_ReadByte		CODE           	4392	0000	27
		i1___flmul     		CODE           	1B5BA	0000	851
		i1_I2C1_MasterWriteTRBBuild		CODE           	36E8	0000	71
		i2___flmul     		CODE           	1B90C	0000	849
		i1_asin        		CODE           	1C926	0000	785
		i1_TMR2_Start  		CODE           	4610	0000	5
		i2_asin        		CODE           	1CC36	0000	785
		i1_OLED_updateCallback		CODE           	1936E	0000	2253
		i1___llmod     		CODE           	2D50	0000	105
		_hexpowers     		MEDIUMCONST    	CB73	0000	33
		i1_memmove     		CODE           	1D9E	0000	175
		i1_sprintf     		CODE           	3418	0000	75
		i2___llmod     		CODE           	2E86	0000	103
		i1_getMajorRevisionID		CODE           	3B2E	0000	61
		i1___xxtofl    		CODE           	1FA12	0000	341
		i2___xxtofl    		CODE           	1FB66	0000	337
		_Total_Energy_address		MEDIUMCONST    	CB9F	0000	3
		i1_getDeviceID 		CODE           	4258	0000	33
		i2_DATAEE_ReadByte		CODE           	43C4	0000	25
		i1_TMR2_StopTimer		CODE           	45EE	0000	7
		i1___flsub     		CODE           	3612	0000	73
		i2___flsub     		CODE           	365A	0000	73
		i1_OLED_WriteString		CODE           	3056	0000	89
		i2_TMR5_StopTimer		CODE           	4614	0000	5
		i1_fabs        		CODE           	3A3C	0000	63
		i2_fabs        		CODE           	3BE2	0000	61
		i1_sqrt        		CODE           	1D50E	0000	713
		i2_sqrt        		CODE           	1D7D6	0000	713
		_max_Power_address		MEDIUMCONST    	CB9B	0000	3
		i1_TMR2_Period8BitSet		CODE           	4598	0000	11
		i1_fround      		CODE           	1DD64	0000	711
		i1_round       		CODE           	1A2A	0000	183
		i2_fround      		CODE           	1E84C	0000	687
		i1_TMR2_WriteTimer		CODE           	453E	0000	15
		i1_TMR2_StartTimer		CODE           	45F4	0000	7
		sin@coeff_a    		MEDIUMCONST    	CEB9	0000	21
		sin@coeff_b    		MEDIUMCONST    	CEE1	0000	17
		_max_POS3P3_ADC_Result_address		MEDIUMCONST    	CB99	0000	3
		i1_I2C1_MasterTRBInsert		CODE           	1EEE	0000	163
		_max_FVR_ADC_Result_address		MEDIUMCONST    	CB93	0000	3

shared estimated size: 40405

mcc_generated_files/mcc.c
		_PMD_Initialize		CODE           	42F0	0000	29
		_OSCILLATOR_Initialize		CODE           	430C	0000	29
		_SYSTEM_Initialize		CODE           	39FE	0000	63

mcc_generated_files/mcc.c estimated size: 121

ring_buffer_interface.c
		_terminal_ringBufferPull		CODE           	1FE02	0000	315
		_terminal_textAttributes		CODE           	1AF00	0000	873
		_terminal_textAttributesReset		CODE           	4432	0000	19
		_terminal_setCursorHome		CODE           	4456	0000	17
		_terminal_printNewline		CODE           	4466	0000	17
		_terminal_clearTerminal		CODE           	4476	0000	17

ring_buffer_interface.c estimated size: 1258

C:\Program Files (x86)\Microchip\xc8\v1.45\sources\common\atan.c
		_atan          		CODE           	1F216	0000	569

C:\Program Files (x86)\Microchip\xc8\v1.45\sources\common\atan.c estimated size: 569

cause_of_reset.c
		_getCauseOfResetStringSmall		CODE           	3DCA	0000	49
		_getCauseOfResetString		CODE           	3DFA	0000	49
		_getCauseOfReset		CODE           	2F4C	0000	91

cause_of_reset.c estimated size: 189

C:\Program Files (x86)\Microchip\xc8\v1.45\sources\common\awdiv.c
		___awdiv       		CODE           	2286	0000	135

C:\Program Files (x86)\Microchip\xc8\v1.45\sources\common\awdiv.c estimated size: 135

C:\Program Files (x86)\Microchip\xc8\v1.45\sources\common\strcat.c
		_strcat        		CODE           	3380	0000	77

C:\Program Files (x86)\Microchip\xc8\v1.45\sources\common\strcat.c estimated size: 77

oled.c
		_OLED_Clear    		CODE           	38C2	0000	65
		_OLED_Command  		CODE           	2CE8	0000	105
		_OLED_WriteString		CODE           	2FFE	0000	89
		_OLED_UpdateFromRAMBuffer		CODE           	279C	0000	123
		_OLED_Init     		CODE           	20D0	0000	155
		_OLED_PutChar  		CODE           	189E	0000	199
		_OLED_YX       		CODE           	3A7A	0000	61

oled.c estimated size: 797

C:\Program Files (x86)\Microchip\xc8\v1.45\sources\common\evalpoly.c
		_eval_poly     		CODE           	0DA6	0000	257

C:\Program Files (x86)\Microchip\xc8\v1.45\sources\common\evalpoly.c estimated size: 257

mcc_generated_files/memory.c
		_FLASH_ReadWord		CODE           	37FC	0000	67
		_FLASH_ReadByte		CODE           	4344	0000	27
		_DATAEE_WriteByte		CODE           	39C0	0000	63
		_DATAEE_ReadByte		CODE           	4378	0000	27

mcc_generated_files/memory.c estimated size: 184

C:\Program Files (x86)\Microchip\xc8\v1.45\sources\common\sin.c
		_sin           		CODE           	1CF46	0000	769

C:\Program Files (x86)\Microchip\xc8\v1.45\sources\common\sin.c estimated size: 769

C:\Program Files (x86)\Microchip\xc8\v1.45\sources\common\abs.c
		_abs           		CODE           	3F48	0000	43

C:\Program Files (x86)\Microchip\xc8\v1.45\sources\common\abs.c estimated size: 43

C:\Program Files (x86)\Microchip\xc8\v1.45\sources\common\lldiv.c
		___lldiv       		CODE           	2392	0000	133

C:\Program Files (x86)\Microchip\xc8\v1.45\sources\common\lldiv.c estimated size: 133

ring_buffer_LUT.c
		_ringBufferLUT 		CODE           	10000	0000	8425
		_terminal_printResetMessage		CODE           	19C3A	0000	1279

ring_buffer_LUT.c estimated size: 9704

C:\Program Files (x86)\Microchip\xc8\v1.45\sources\common\xxtofl.c
		___xxtofl      		CODE           	1F8BE	0000	341

C:\Program Files (x86)\Microchip\xc8\v1.45\sources\common\xxtofl.c estimated size: 341

C:\Program Files (x86)\Microchip\xc8\v1.45\sources\common\trunc.c
		_trunc         		CODE           	1F90	0000	161

C:\Program Files (x86)\Microchip\xc8\v1.45\sources\common\trunc.c estimated size: 161

mcc_generated_files/adcc.c
		_ADCC_StopConversion		CODE           	461C	0000	5
		_ADCC_DefaultInterruptHandler		CODE           	4630	0000	3
		_ADCC_ClearAccumulator		CODE           	45E8	0000	7
		_ADCC_GetFilterValue		CODE           	440A	0000	21
		_ADCC_GetCurrentCountofConversions		CODE           	4620	0000	5
		_ADCC_SetADTIInterruptHandler		CODE           	4514	0000	15
		_ADCC_GetConversionResult		CODE           	441E	0000	21
		_ADCC_ThresholdISR		CODE           	3FEA	0000	41
		_ADCC_StartConversion		CODE           	4522	0000	15
		_ADCC_Initialize		CODE           	2BAE	0000	107
		_ADCC_HasAccumulatorOverflowed		CODE           	4564	0000	13
		_ADCC_DischargeSampleCapacitor		CODE           	45C8	0000	9

mcc_generated_files/adcc.c estimated size: 262

C:\Program Files (x86)\Microchip\xc8\v1.45\sources\common\flneg.c
		___flneg       		CODE           	3E2A	0000	49

C:\Program Files (x86)\Microchip\xc8\v1.45\sources\common\flneg.c estimated size: 49

main.c
		_dimmingOffTimeCallback		CODE           	43DC	0000	25
		_saveSRAMMaxToEEPROM		CODE           	1ED66	0000	615
		_acquisitionTimerCallback		CODE           	4444	0000	19
		_ADC_PostProcessingCallback		CODE           	17F72	0000	2863
		_main          		CODE           	10A6	0000	251
		_heartbeatTimerCallback		CODE           	37B8	0000	69
		_currentMeasuredToPeak		CODE           	2720	0000	125
		_recoverSRAMMaxFromEEPROM		CODE           	1FCB6	0000	333
		_dimmingOnTimeCallback		CODE           	4558	0000	13
		_writeEnergyToEEPROMCallback		CODE           	249A	0000	133
		_OLED_updateCallback		CODE           	18AA0	0000	2255
		_peakToRMS     		CODE           	1EFCC	0000	587

main.c estimated size: 7288

C:\Program Files (x86)\Microchip\xc8\v1.45\sources\common\strlen.c
		_strlen        		CODE           	2FA6	0000	89

C:\Program Files (x86)\Microchip\xc8\v1.45\sources\common\strlen.c estimated size: 89

C:\Program Files (x86)\Microchip\xc8\v1.45\sources\common\lwtoft.c
		___lwtoft      		CODE           	4012	0000	39

C:\Program Files (x86)\Microchip\xc8\v1.45\sources\common\lwtoft.c estimated size: 39

C:\Program Files (x86)\Microchip\xc8\v1.45\sources\common\strcmp.c
		_strcmp        		CODE           	3154	0000	81

C:\Program Files (x86)\Microchip\xc8\v1.45\sources\common\strcmp.c estimated size: 81

C:\Program Files (x86)\Microchip\xc8\v1.45\sources\common\strchr.c
		_strchr        		CODE           	3C58	0000	57

C:\Program Files (x86)\Microchip\xc8\v1.45\sources\common\strchr.c estimated size: 57

C:\Program Files (x86)\Microchip\xc8\v1.45\sources\common\strcpy.c
		_strcpy        		CODE           	3462	0000	73

C:\Program Files (x86)\Microchip\xc8\v1.45\sources\common\strcpy.c estimated size: 73

C:\Program Files (x86)\Microchip\xc8\v1.45\sources\common\strncmp.c
		_strncmp       		CODE           	216A	0000	145

C:\Program Files (x86)\Microchip\xc8\v1.45\sources\common\strncmp.c estimated size: 145

C:\Program Files (x86)\Microchip\xc8\v1.45\sources\common\sprcmul.c
		___flmul       		CODE           	1B268	0000	851

C:\Program Files (x86)\Microchip\xc8\v1.45\sources\common\sprcmul.c estimated size: 851

C:\Program Files (x86)\Microchip\xc8\v1.45\sources\common\strncpy.c
		_strncpy       		CODE           	2C18	0000	105

C:\Program Files (x86)\Microchip\xc8\v1.45\sources\common\strncpy.c estimated size: 105

