Microchip MPLAB XC8 Compiler V1.45 ()

Linker command line:

-W-3 --edf=C:\Program Files (x86)\Microchip\xc8\v1.45\dat\en_msgs.txt -cs \
  -h+dist/default/production\AC_Power_Meter.X.production.sym \
  --cmf=dist/default/production\AC_Power_Meter.X.production.cmf -z \
  -Q18LF67K40 -oC:\Users\DREWMA~1\AppData\Local\Temp\se38.2 \
  -Mdist/default/production/AC_Power_Meter.X.production.map -E1 -ver=XC8 \
  --acfsm=1493 -ASTACK=06D9h-0de9h -pstack=STACK -ACODE=00h-01FFFFh \
  -ACONST=00h-01FFFFh -ASMALLCONST=0E00h-0EFFhx498 \
  -AMEDIUMCONST=0E00h-0FFFFh,010E00h-01FFFFh -ACOMRAM=01h-05Fh \
  -AABS1=00h-0DE9h -ABIGRAM=01h-0DE9h \
  -ARAM=060h-0FFh,0100h-01FFhx12,0D00h-0DE9h -ABANK0=060h-0FFh \
  -ABANK1=0100h-01FFh -ABANK2=0200h-02FFh -ABANK3=0300h-03FFh \
  -ABANK4=0400h-04FFh -ABANK5=0500h-05FFh -ABANK6=0600h-06FFh \
  -ABANK7=0700h-07FFh -ABANK8=0800h-08FFh -ABANK9=0900h-09FFh \
  -ABANK10=0A00h-0AFFh -ABANK11=0B00h-0BFFh -ABANK12=0C00h-0CFFh \
  -ABANK13=0D00h-0DE9h \
  -ASFR=0DEFh-0DFFh,0E00h-0EFFh,0F00h-0F5Fh,0F60h-0FFFh \
  -preset_vec=00h,intcode=08h,intcodelo=018h,powerup,init -pramtop=0E00h \
  -psmallconst=SMALLCONST -pmediumconst=MEDIUMCONST -pconst=CONST \
  -AFARRAM=00h-00h -ACONFIG=0300000h-030000Bh -pconfig=CONFIG \
  -AIDLOC=0200000h-020000Fh -pidloc=IDLOC -AEEDATA=0310000h-03103FFh \
  -peeprom_data=EEDATA \
  -prdata=COMRAM,nvrram=COMRAM,nvbit=COMRAM,rbss=COMRAM,rbit=COMRAM \
  -pfarbss=FARRAM,fardata=FARRAM,nvFARRAM=FARRAM \
  -pintsave_regs=BIGRAM,bigbss=BIGRAM,bigdata=BIGRAM -pbss=RAM \
  -pidata=CODE,irdata=CODE,ibigdata=CODE,ifardata=CODE -prparam=COMRAM \
  C:\Users\DREWMA~1\AppData\Local\Temp\se38.obj \
  dist/default/production\AC_Power_Meter.X.production.obj 

Object code version is 3.11

Machine type is 18LF67K40

Call graph: (short form)




                Name                               Link     Load   Length Selector   Space Scale
C:\Users\DREWMA~1\AppData\Local\Temp\se38.obj
                init                                 EA       EA        4        C       0
                reset_vec                             0        0        4        0       0
                idloc                            200000   200000       10   200000       0
                config                           300000   300000        C   300000       0
dist/default/production\AC_Power_Meter.X.production.obj
                intcodelo                            18       18       D2        C       0
                intcode                               8        8        6        4       0
                temp                                 5F       5F        1        1       1
                mediumconst                        C932     C932     36CE     6499       0
                text269                            4D3E     4D3E       14        C       0
                text268                            4F7A     4F7A        4        C       0
                text267                            4D2A     4D2A       14        C       0
                text266                            4ECA     4ECA        C        C       0
                text265                            4F76     4F76        4        C       0
                text264                           1CB86    1CB86      33E     8000       0
                text263                            12E8     12E8      122        C       0
                text262                            1DB8     1DB8       DC        C       0
                text261                             5CE      5CE      150        C       0
                text260                            30D8     30D8       7A        C       0
                text259                            1522     1522      114        C       0
                text258                           1EE40    1EE40      2B6     8000       0
                text257                            484C     484C       2E        C       0
                text256                            3F54     3F54       48        C       0
                text255                           1C1BA    1C1BA      350     8000       0
                text254                            1836     1836      100        C       0
                text253                           1D7F4    1D7F4      300     8000       0
                text252                            2F68     2F68       7C        C       0
                text251                            4514     4514       3C        C       0
                text250                              EE       EE      238        C       0
                text249                           1E610    1E610      2C4     8000       0
                text248                           1D4E4    1D4E4      310     8000       0
                text247                            3386     3386       70        C       0
                text246                           1F86A    1F86A      24A     8000       0
                text245                           1981E    1981E      972     8000       0
                text244                            4F8C     4F8C        2        C       0
                text243                            48F2     48F2       28        C       0
                text242                            2DEA     2DEA       82        C       0
                text241                            3736     3736       66        C       0
                text240                            4A24     4A24       26        C       0
                text239                             E58      E58      128        C       0
                text238                             AD2      AD2      132        C       0
                text237                            2D66     2D66       84        C       0
                text236                            3316     3316       70        C       0
                text235                           1F0F6    1F0F6      2AE     8000       0
                text234                            4BBC     4BBC       1E        C       0
                text233                            4028     4028       46        C       0
                text232                            4F08     4F08        A        C       0
                text231                           1AFC6    1AFC6      480     8000       0
                text230                           1600E    1600E     1F20     8000       0
                text229                            44D8     44D8       3C        C       0
                text228                            25EC     25EC       A8        C       0
                text227                            45F8     45F8       36        C       0
                text226                            4550     4550       3A        C       0
                text225                            3CC8     3CC8       4C        C       0
                text224                            4238     4238       40        C       0
                text223                            4F50     4F50        6        C       0
                text222                            4CCA     4CCA       1A        C       0
                text221                            41F8     41F8       40        C       0
                text220                           1F60A    1F60A      260     8000       0
                text219                            4F72     4F72        4        C       0
                text218                            4C12     4C12       1C        C       0
                text217                            4CB0     4CB0       1A        C       0
                text216                            4F8A     4F8A        2        C       0
                text215                            4AB6     4AB6       24        C       0
                text214                            4EFE     4EFE        A        C       0
                text213                            4CFC     4CFC       18        C       0
                text212                            3BE2     3BE2       4E        C       0
                text211                            2CE2     2CE2       84        C       0
                text210                            4F88     4F88        2        C       0
                text209                            4A92     4A92       24        C       0
                text208                            49FE     49FE       26        C       0
                text207                            4F6E     4F6E        4        C       0
                text206                            4C96     4C96       1A        C       0
                text205                            4F86     4F86        2        C       0
                text204                            4696     4696       34        C       0
                intcode_body                        F80      F80      124        C       0
                text202                            4F2A     4F2A        8        C       0
                text201                            2736     2736       A2        C       0
                text200                            3FE2     3FE2       46        C       0
                text199                            3B44     3B44       50        C       0
                text198                            253E     253E       AE        C       0
                text197                            20FE     20FE       C6        C       0
                text196                            41B8     41B8       40        C       0
                text195                            3906     3906       58        C       0
                text194                            3668     3668       68        C       0
                text193                            449C     449C       3C        C       0
                text192                            305E     305E       7A        C       0
                text191                            4EF4     4EF4        A        C       0
                text190                            4F6A     4F6A        4        C       0
                text189                            4F4A     4F4A        6        C       0
                text188                            4F66     4F66        4        C       0
                text187                            4F44     4F44        6        C       0
                text186                            4EEA     4EEA        A        C       0
                text185                            4EBC     4EBC        E        C       0
                text184                            23E0     23E0       B0        C       0
                text183                            1B14     1B14       E8        C       0
                text182                            49D8     49D8       26        C       0
                text181                           1EB8A    1EB8A      2B6     8000       0
                text180                            11C6     11C6      122        C       0
                text179                           1C848    1C848      33E     8000       0
                text178                           1BE68    1BE68      352     8000       0
                text177                            1736     1736      100        C       0
                text176                            481C     481C       30        C       0
                text175                            4332     4332       3E        C       0
                text174                           1FCEC    1FCEC      238     8000       0
                text173                           1DDBC    1DDBC      2C8     8000       0
                text172                           1D1D4    1D1D4      310     8000       0
                text171                            32A6     32A6       70        C       0
                text170                            47EC     47EC       30        C       0
                text169                            4C7C     4C7C       1A        C       0
                text168                            4136     4136       42        C       0
                text167                            4B60     4B60       20        C       0
                text166                            4460     4460       3C        C       0
                text165                            49B2     49B2       26        C       0
                text164                            1CDA     1CDA       DE        C       0
                text163                             47A      47A      154        C       0
                text162                            2EEA     2EEA       7E        C       0
                text161                            2878     2878       A0        C       0
                text160                            227A     227A       B6        C       0
                text159                            3F0C     3F0C       48        C       0
                text158                            2C5E     2C5E       84        C       0
                text157                            3600     3600       68        C       0
                text156                            48CA     48CA       28        C       0
                text155                             D2E      D2E      12A        C       0
                text154                             99E      99E      134        C       0
                text153                            2B54     2B54       86        C       0
                text152                            31C4     31C4       72        C       0
                text151                           1E34A    1E34A      2C6     8000       0
                text150                            4B1E     4B1E       22        C       0
                text149                            3EC4     3EC4       48        C       0
                text148                            4EAE     4EAE        E        C       0
                text147                           1AB22    1AB22      4A4     8000       0
                text146                           140D2    140D2     1F3C     8000       0
                text145                            3E7C     3E7C       48        C       0
                text144                            3E34     3E34       48        C       0
                text143                            4424     4424       3C        C       0
                text142                            4DE8     4DE8       10        C       0
                text141                            4DD8     4DD8       10        C       0
                text140                            4DC8     4DC8       10        C       0
                text139                            3C7C     3C7C       4C        C       0
                text138                            3598     3598       68        C       0
                text137                           1B7AE    1B7AE      368     8000       0
                text136                            4D76     4D76       12        C       0
                text135                           18BA8    18BA8      C76     8000       0
                text134                            4F84     4F84        2        C       0
                text133                            4A6E     4A6E       24        C       0
                text132                            498C     498C       26        C       0
                text131                            40F4     40F4       42        C       0
                text130                            4F82     4F82        2        C       0
                text129                            48A2     48A2       28        C       0
                text128                            4966     4966       26        C       0
                text127                            4F3E     4F3E        6        C       0
                text126                            4F22     4F22        8        C       0
                text125                            4EA0     4EA0        E        C       0
                text124                            4D64     4D64       12        C       0
                text123                            4F80     4F80        2        C       0
                text122                            4662     4662       34        C       0
                text120                            4F1A     4F1A        8        C       0
                text119                            2694     2694       A2        C       0
                text118                            3F9C     3F9C       46        C       0
                text117                            3AF4     3AF4       50        C       0
                text116                            3530     3530       68        C       0
                text115                            2918     2918       9A        C       0
                text114                            4E92     4E92        E        C       0
                text113                            33F6     33F6       6A        C       0
                text112                            4E84     4E84        E        C       0
                text111                            4E76     4E76        E        C       0
                text110                            36D0     36D0       66        C       0
                text109                            4E68     4E68        E        C       0
                text108                            4B9E     4B9E       1E        C       0
                text107                            4F12     4F12        8        C       0
                text106                            4DB8     4DB8       10        C       0
                text105                            45C2     45C2       36        C       0
                text104                            4B80     4B80       1E        C       0
                text103                            4BF6     4BF6       1C        C       0
                text102                            1F6C     1F6C       CC        C       0
                text101                            4BDA     4BDA       1C        C       0
                text100                            4E5A     4E5A        E        C       0
                text99                             47BC     47BC       30        C       0
                text98                             4E4C     4E4C        E        C       0
                text97                             478C     478C       30        C       0
                text96                             4E3E     4E3E        E        C       0
                text95                             3AA4     3AA4       50        C       0
                text94                             4E30     4E30        E        C       0
                text93                             46CA     46CA       32        C       0
                text92                             4E22     4E22        E        C       0
                text91                             395E     395E       54        C       0
                text90                             42F4     42F4       3E        C       0
                text89                             37FC     37FC       5A        C       0
                text88                             4C62     4C62       1A        C       0
                text87                             39B2     39B2       52        C       0
                text86                              71E      71E      14C        C       0
                text85                             10A4     10A4      122        C       0
                text84                             42B6     42B6       3E        C       0
                text83                             3A54     3A54       50        C       0
                text82                            1F3A4    1F3A4      266     8000       0
                text81                             462E     462E       34        C       0
                text80                             4D14     4D14       16        C       0
                text79                             475C     475C       30        C       0
                text78                             4C48     4C48       1A        C       0
                text77                             40B2     40B2       42        C       0
                text76                             4B40     4B40       20        C       0
                text75                             379C     379C       60        C       0
                text74                             43E8     43E8       3C        C       0
                text73                             4940     4940       26        C       0
                text72                             406E     406E       44        C       0
                text71                            1E8D4    1E8D4      2B6     8000       0
                text70                             472C     472C       30        C       0
                text69                            1C50A    1C50A      33E     8000       0
                text68                             3DEC     3DEC       48        C       0
                text67                             1BFC     1BFC       DE        C       0
                text66                             2BDA     2BDA       84        C       0
                text65                             34C8     34C8       68        C       0
                text64                             487A     487A       28        C       0
                text63                              326      326      154        C       0
                text62                              C04      C04      12A        C       0
                text61                              86A      86A      134        C       0
                text60                             2ACE     2ACE       86        C       0
                text59                             3152     3152       72        C       0
                text58                            1BB16    1BB16      352     8000       0
                text57                            1E084    1E084      2C6     8000       0
                text56                             4AFC     4AFC       22        C       0
                text55                             3DA4     3DA4       48        C       0
                text54                             4C2E     4C2E       1A        C       0
                text53                            1A67E    1A67E      4A4     8000       0
                text52                            12196    12196     1F3C     8000       0
                text51                             43AC     43AC       3C        C       0
                text50                             4DA8     4DA8       10        C       0
                text49                             3C30     3C30       4C        C       0
                text48                             3460     3460       68        C       0
                text47                            1B446    1B446      368     8000       0
                text46                             4D52     4D52       12        C       0
                text45                            1A190    1A190      4EE     8000       0
                text44                             3B94     3B94       4E        C       0
                text43                             2490     2490       AE        C       0
                text42                             2038     2038       C6        C       0
                text41                             4178     4178       40        C       0
                text40                             38AE     38AE       58        C       0
                text39                             4370     4370       3C        C       0
                text38                             2FE4     2FE4       7A        C       0
                text37                             4EE0     4EE0        A        C       0
                text36                             4F62     4F62        4        C       0
                text35                             4F38     4F38        6        C       0
                text34                             4F5E     4F5E        4        C       0
                text33                             4F32     4F32        6        C       0
                text32                             4ED6     4ED6        A        C       0
                text31                             4E14     4E14        E        C       0
                text30                             2330     2330       B0        C       0
                text29                             1A2C     1A2C       E8        C       0
                text28                             491A     491A       26        C       0
                text27                             1636     1636      100        C       0
                text26                             4278     4278       3E        C       0
                text25                            1FAB4    1FAB4      238     8000       0
                text24                            1DAF4    1DAF4      2C8     8000       0
                text23                            1CEC4    1CEC4      310     8000       0
                text22                             3236     3236       70        C       0
                text21                             46FC     46FC       30        C       0
                text20                             2E6C     2E6C       7E        C       0
                text19                             27D8     27D8       A0        C       0
                text18                             21C4     21C4       B6        C       0
                text17                             3D5C     3D5C       48        C       0
                text16                             3D14     3D14       48        C       0
                text15                             4D98     4D98       10        C       0
                text14                             4D88     4D88       10        C       0
                text13                            17F2E    17F2E      C7A     8000       0
                text12                             4F5A     4F5A        4        C       0
                text11                             1E94     1E94       D8        C       0
                text10                             4ADA     4ADA       22        C       0
                text9                              4E06     4E06        E        C       0
                text8                              3A04     3A04       50        C       0
                text7                              458A     458A       38        C       0
                text6                              3856     3856       58        C       0
                text5                              29B2     29B2       90        C       0
                text4                              2A42     2A42       8C        C       0
                text3                             10000    10000     2196     8000       0
                text2                              140A     140A      118        C       0
                text1                              4CE4     4CE4       18        C       0
                text0                              1936     1936       F6        C       0
                cstackCOMRAM                          1        1       5C        1       1
                cstackBANK0                          60       60       9D       60       1
                cstackBANK1                         100      100       F0      100       1
                cstackBANK2                         200      200       59      200       1
                cstackBANK3                         300      300       EC      300       1
                cstackBANK4                         49F      49F       4A      400       1
                cstackBANK6                         680      680       59      600       1
                bssBANK6                            600      600       80      600       1
                dataBANK5                           5C4      5C4       24      500       1
                bssBANK5                            500      500       C4      500       1
                dataBANK4                           4E9      4E9        E      400       1
                bssBANK4                            400      400       9F      400       1
                dataBANK3                           3EC      3EC        4      300       1
                bssBANK3                            3F1      3F1        1      300       1
                bssBANK2                            259      259       58      200       1
                dataBANK1                           1FF      1FF        1      100       1
                bssBANK1                            1F0      1F0        F      100       1
                dataBANK0                            FD       FD        2       60       1
                bssBANK0                             FF       FF        1       60       1
                bssCOMRAM                            5E       5E        1        1       1
                bitbssCOMRAM                        2E8       5D        3        1       1     8
                cinit                             1FF24    1FF24       DC     8000       0
                nvBANK3                             3F0      3F0        1      300       1
                idataBANK5                         4A4A     4A4A       24        C       0
                idataBANK4                         4DF8     4DF8        E        C       0
                idataBANK3                         4F56     4F56        4        C       0
                idataBANK1                         4F8E     4F8E        1        C       0
                idataBANK0                         4F7E     4F7E        2        C       0

TOTAL           Name                               Link     Load   Length     Space
        CLASS   STACK          

        CLASS   CODE           
                intcodelo                            18       18       D2         0
                intcode                               8        8        6         0
                init                                 EA       EA        4         0
                reset_vec                             0        0        4         0
                text269                            4D3E     4D3E       14         0
                text268                            4F7A     4F7A        4         0
                text267                            4D2A     4D2A       14         0
                text266                            4ECA     4ECA        C         0
                text265                            4F76     4F76        4         0
                text264                           1CB86    1CB86      33E         0
                text263                            12E8     12E8      122         0
                text262                            1DB8     1DB8       DC         0
                text261                             5CE      5CE      150         0
                text260                            30D8     30D8       7A         0
                text259                            1522     1522      114         0
                text258                           1EE40    1EE40      2B6         0
                text257                            484C     484C       2E         0
                text256                            3F54     3F54       48         0
                text255                           1C1BA    1C1BA      350         0
                text254                            1836     1836      100         0
                text253                           1D7F4    1D7F4      300         0
                text252                            2F68     2F68       7C         0
                text251                            4514     4514       3C         0
                text250                              EE       EE      238         0
                text249                           1E610    1E610      2C4         0
                text248                           1D4E4    1D4E4      310         0
                text247                            3386     3386       70         0
                text246                           1F86A    1F86A      24A         0
                text245                           1981E    1981E      972         0
                text244                            4F8C     4F8C        2         0
                text243                            48F2     48F2       28         0
                text242                            2DEA     2DEA       82         0
                text241                            3736     3736       66         0
                text240                            4A24     4A24       26         0
                text239                             E58      E58      128         0
                text238                             AD2      AD2      132         0
                text237                            2D66     2D66       84         0
                text236                            3316     3316       70         0
                text235                           1F0F6    1F0F6      2AE         0
                text234                            4BBC     4BBC       1E         0
                text233                            4028     4028       46         0
                text232                            4F08     4F08        A         0
                text231                           1AFC6    1AFC6      480         0
                text230                           1600E    1600E     1F20         0
                text229                            44D8     44D8       3C         0
                text228                            25EC     25EC       A8         0
                text227                            45F8     45F8       36         0
                text226                            4550     4550       3A         0
                text225                            3CC8     3CC8       4C         0
                text224                            4238     4238       40         0
                text223                            4F50     4F50        6         0
                text222                            4CCA     4CCA       1A         0
                text221                            41F8     41F8       40         0
                text220                           1F60A    1F60A      260         0
                text219                            4F72     4F72        4         0
                text218                            4C12     4C12       1C         0
                text217                            4CB0     4CB0       1A         0
                text216                            4F8A     4F8A        2         0
                text215                            4AB6     4AB6       24         0
                text214                            4EFE     4EFE        A         0
                text213                            4CFC     4CFC       18         0
                text212                            3BE2     3BE2       4E         0
                text211                            2CE2     2CE2       84         0
                text210                            4F88     4F88        2         0
                text209                            4A92     4A92       24         0
                text208                            49FE     49FE       26         0
                text207                            4F6E     4F6E        4         0
                text206                            4C96     4C96       1A         0
                text205                            4F86     4F86        2         0
                text204                            4696     4696       34         0
                intcode_body                        F80      F80      124         0
                text202                            4F2A     4F2A        8         0
                text201                            2736     2736       A2         0
                text200                            3FE2     3FE2       46         0
                text199                            3B44     3B44       50         0
                text198                            253E     253E       AE         0
                text197                            20FE     20FE       C6         0
                text196                            41B8     41B8       40         0
                text195                            3906     3906       58         0
                text194                            3668     3668       68         0
                text193                            449C     449C       3C         0
                text192                            305E     305E       7A         0
                text191                            4EF4     4EF4        A         0
                text190                            4F6A     4F6A        4         0
                text189                            4F4A     4F4A        6         0
                text188                            4F66     4F66        4         0
                text187                            4F44     4F44        6         0
                text186                            4EEA     4EEA        A         0
                text185                            4EBC     4EBC        E         0
                text184                            23E0     23E0       B0         0
                text183                            1B14     1B14       E8         0
                text182                            49D8     49D8       26         0
                text181                           1EB8A    1EB8A      2B6         0
                text180                            11C6     11C6      122         0
                text179                           1C848    1C848      33E         0
                text178                           1BE68    1BE68      352         0
                text177                            1736     1736      100         0
                text176                            481C     481C       30         0
                text175                            4332     4332       3E         0
                text174                           1FCEC    1FCEC      238         0
                text173                           1DDBC    1DDBC      2C8         0
                text172                           1D1D4    1D1D4      310         0
                text171                            32A6     32A6       70         0
                text170                            47EC     47EC       30         0
                text169                            4C7C     4C7C       1A         0
                text168                            4136     4136       42         0
                text167                            4B60     4B60       20         0
                text166                            4460     4460       3C         0
                text165                            49B2     49B2       26         0
                text164                            1CDA     1CDA       DE         0
                text163                             47A      47A      154         0
                text162                            2EEA     2EEA       7E         0
                text161                            2878     2878       A0         0
                text160                            227A     227A       B6         0
                text159                            3F0C     3F0C       48         0
                text158                            2C5E     2C5E       84         0
                text157                            3600     3600       68         0
                text156                            48CA     48CA       28         0
                text155                             D2E      D2E      12A         0
                text154                             99E      99E      134         0
                text153                            2B54     2B54       86         0
                text152                            31C4     31C4       72         0
                text151                           1E34A    1E34A      2C6         0
                text150                            4B1E     4B1E       22         0
                text149                            3EC4     3EC4       48         0
                text148                            4EAE     4EAE        E         0
                text147                           1AB22    1AB22      4A4         0
                text146                           140D2    140D2     1F3C         0
                text145                            3E7C     3E7C       48         0
                text144                            3E34     3E34       48         0
                text143                            4424     4424       3C         0
                text142                            4DE8     4DE8       10         0
                text141                            4DD8     4DD8       10         0
                text140                            4DC8     4DC8       10         0
                text139                            3C7C     3C7C       4C         0
                text138                            3598     3598       68         0
                text137                           1B7AE    1B7AE      368         0
                text136                            4D76     4D76       12         0
                text135                           18BA8    18BA8      C76         0
                text134                            4F84     4F84        2         0
                text133                            4A6E     4A6E       24         0
                text132                            498C     498C       26         0
                text131                            40F4     40F4       42         0
                text130                            4F82     4F82        2         0
                text129                            48A2     48A2       28         0
                text128                            4966     4966       26         0
                text127                            4F3E     4F3E        6         0
                text126                            4F22     4F22        8         0
                text125                            4EA0     4EA0        E         0
                text124                            4D64     4D64       12         0
                text123                            4F80     4F80        2         0
                text122                            4662     4662       34         0
                text120                            4F1A     4F1A        8         0
                text119                            2694     2694       A2         0
                text118                            3F9C     3F9C       46         0
                text117                            3AF4     3AF4       50         0
                text116                            3530     3530       68         0
                text115                            2918     2918       9A         0
                text114                            4E92     4E92        E         0
                text113                            33F6     33F6       6A         0
                text112                            4E84     4E84        E         0
                text111                            4E76     4E76        E         0
                text110                            36D0     36D0       66         0
                text109                            4E68     4E68        E         0
                text108                            4B9E     4B9E       1E         0
                text107                            4F12     4F12        8         0
                text106                            4DB8     4DB8       10         0
                text105                            45C2     45C2       36         0
                text104                            4B80     4B80       1E         0
                text103                            4BF6     4BF6       1C         0
                text102                            1F6C     1F6C       CC         0
                text101                            4BDA     4BDA       1C         0
                text100                            4E5A     4E5A        E         0
                text99                             47BC     47BC       30         0
                text98                             4E4C     4E4C        E         0
                text97                             478C     478C       30         0
                text96                             4E3E     4E3E        E         0
                text95                             3AA4     3AA4       50         0
                text94                             4E30     4E30        E         0
                text93                             46CA     46CA       32         0
                text92                             4E22     4E22        E         0
                text91                             395E     395E       54         0
                text90                             42F4     42F4       3E         0
                text89                             37FC     37FC       5A         0
                text88                             4C62     4C62       1A         0
                text87                             39B2     39B2       52         0
                text86                              71E      71E      14C         0
                text85                             10A4     10A4      122         0
                text84                             42B6     42B6       3E         0
                text83                             3A54     3A54       50         0
                text82                            1F3A4    1F3A4      266         0
                text81                             462E     462E       34         0
                text80                             4D14     4D14       16         0
                text79                             475C     475C       30         0
                text78                             4C48     4C48       1A         0
                text77                             40B2     40B2       42         0
                text76                             4B40     4B40       20         0
                text75                             379C     379C       60         0
                text74                             43E8     43E8       3C         0
                text73                             4940     4940       26         0
                text72                             406E     406E       44         0
                text71                            1E8D4    1E8D4      2B6         0
                text70                             472C     472C       30         0
                text69                            1C50A    1C50A      33E         0
                text68                             3DEC     3DEC       48         0
                text67                             1BFC     1BFC       DE         0
                text66                             2BDA     2BDA       84         0
                text65                             34C8     34C8       68         0
                text64                             487A     487A       28         0
                text63                              326      326      154         0
                text62                              C04      C04      12A         0
                text61                              86A      86A      134         0
                text60                             2ACE     2ACE       86         0
                text59                             3152     3152       72         0
                text58                            1BB16    1BB16      352         0
                text57                            1E084    1E084      2C6         0
                text56                             4AFC     4AFC       22         0
                text55                             3DA4     3DA4       48         0
                text54                             4C2E     4C2E       1A         0
                text53                            1A67E    1A67E      4A4         0
                text52                            12196    12196     1F3C         0
                text51                             43AC     43AC       3C         0
                text50                             4DA8     4DA8       10         0
                text49                             3C30     3C30       4C         0
                text48                             3460     3460       68         0
                text47                            1B446    1B446      368         0
                text46                             4D52     4D52       12         0
                text45                            1A190    1A190      4EE         0
                text44                             3B94     3B94       4E         0
                text43                             2490     2490       AE         0
                text42                             2038     2038       C6         0
                text41                             4178     4178       40         0
                text40                             38AE     38AE       58         0
                text39                             4370     4370       3C         0
                text38                             2FE4     2FE4       7A         0
                text37                             4EE0     4EE0        A         0
                text36                             4F62     4F62        4         0
                text35                             4F38     4F38        6         0
                text34                             4F5E     4F5E        4         0
                text33                             4F32     4F32        6         0
                text32                             4ED6     4ED6        A         0
                text31                             4E14     4E14        E         0
                text30                             2330     2330       B0         0
                text29                             1A2C     1A2C       E8         0
                text28                             491A     491A       26         0
                text27                             1636     1636      100         0
                text26                             4278     4278       3E         0
                text25                            1FAB4    1FAB4      238         0
                text24                            1DAF4    1DAF4      2C8         0
                text23                            1CEC4    1CEC4      310         0
                text22                             3236     3236       70         0
                text21                             46FC     46FC       30         0
                text20                             2E6C     2E6C       7E         0
                text19                             27D8     27D8       A0         0
                text18                             21C4     21C4       B6         0
                text17                             3D5C     3D5C       48         0
                text16                             3D14     3D14       48         0
                text15                             4D98     4D98       10         0
                text14                             4D88     4D88       10         0
                text13                            17F2E    17F2E      C7A         0
                text12                             4F5A     4F5A        4         0
                text11                             1E94     1E94       D8         0
                text10                             4ADA     4ADA       22         0
                text9                              4E06     4E06        E         0
                text8                              3A04     3A04       50         0
                text7                              458A     458A       38         0
                text6                              3856     3856       58         0
                text5                              29B2     29B2       90         0
                text4                              2A42     2A42       8C         0
                text3                             10000    10000     2196         0
                text2                              140A     140A      118         0
                text1                              4CE4     4CE4       18         0
                text0                              1936     1936       F6         0
                cinit                             1FF24    1FF24       DC         0
                idataBANK5                         4A4A     4A4A       24         0
                idataBANK4                         4DF8     4DF8        E         0
                idataBANK3                         4F56     4F56        4         0
                idataBANK1                         4F8E     4F8E        1         0
                idataBANK0                         4F7E     4F7E        2         0

        CLASS   CONST          

        CLASS   SMALLCONST     

        CLASS   MEDIUMCONST    
                mediumconst                        C932     C932     36CE         0

        CLASS   COMRAM         
                temp                                 5F       5F        1         1
                cstackCOMRAM                          1        1       5C         1
                bssCOMRAM                            5E       5E        1         1
                bitbssCOMRAM                        2E8       5D        3         1

        CLASS   ABS1           

        CLASS   BIGRAM         

        CLASS   RAM            

        CLASS   BANK0          
                cstackBANK0                          60       60       9D         1
                dataBANK0                            FD       FD        2         1
                bssBANK0                             FF       FF        1         1

        CLASS   BANK1          
                cstackBANK1                         100      100       F0         1
                dataBANK1                           1FF      1FF        1         1
                bssBANK1                            1F0      1F0        F         1

        CLASS   BANK2          
                cstackBANK2                         200      200       59         1
                bssBANK2                            259      259       58         1

        CLASS   BANK3          
                cstackBANK3                         300      300       EC         1
                dataBANK3                           3EC      3EC        4         1
                bssBANK3                            3F1      3F1        1         1
                nvBANK3                             3F0      3F0        1         1

        CLASS   BANK4          
                cstackBANK4                         49F      49F       4A         1
                dataBANK4                           4E9      4E9        E         1
                bssBANK4                            400      400       9F         1

        CLASS   BANK5          
                dataBANK5                           5C4      5C4       24         1
                bssBANK5                            500      500       C4         1

        CLASS   BANK6          
                cstackBANK6                         680      680       59         1
                bssBANK6                            600      600       80         1

        CLASS   BANK7          

        CLASS   BANK8          

        CLASS   BANK9          

        CLASS   BANK10         

        CLASS   BANK11         

        CLASS   BANK12         

        CLASS   BANK13         

        CLASS   SFR            

        CLASS   FARRAM         

        CLASS   CONFIG         
                config                           300000   300000        C         0

        CLASS   IDLOC          
                idloc                            200000   200000       10         0

        CLASS   EEDATA         



SEGMENTS        Name                           Load    Length   Top    Selector   Space  Class

                reset_vec                      000000  000004  000004         0       0  CODE    
                cstackCOMRAM                   000001  00005F  000060         1       1  COMRAM  
                intcode                        000008  000006  00000E         4       0  CODE    
                intcodelo                      000018  004F77  004F8F         C       0  CODE    
                cstackBANK0                    000060  0000A0  000100        60       1  BANK0   
                cstackBANK1                    000100  000100  000200       100       1  BANK1   
                cstackBANK2                    000200  0000B1  0002B1       200       1  BANK2   
                cstackBANK3                    000300  0000F2  0003F2       300       1  BANK3   
                bssBANK4                       000400  0000F7  0004F7       400       1  BANK4   
                bssBANK5                       000500  0000E8  0005E8       500       1  BANK5   
                bssBANK6                       000600  0000D9  0006D9       600       1  BANK6   
                mediumconst                    00C932  0036CE  010000      6499       0  MEDIUMCO
                text3                          010000  010000  020000      8000       0  CODE    
                idloc                          200000  000010  200010    200000       0  IDLOC   
                config                         300000  00000C  30000C    300000       0  CONFIG  


UNUSED ADDRESS RANGES

        Name                Unused          Largest block    Delta
        BANK10           000A00-000AFF              100
        BANK11           000B00-000BFF              100
        BANK12           000C00-000CFF              100
        BANK13           000D00-000DE9               EA
        BANK2            0002B1-0002FF               4F
        BANK3            0003F2-0003FF                E
        BANK4            0004F7-0004FF                9
        BANK5            0005E8-0005FF               18
        BANK6            0006D9-0006FF               27
        BANK7            000700-0007FF              100
        BANK8            000800-0008FF              100
        BANK9            000900-0009FF              100
        BIGRAM           0002B1-0002FF               4F
                         0003F2-0003FF                E
                         0004F7-0004FF                9
                         0005E8-0005FF               18
                         0006D9-000DE9              711
        CODE             000004-000007                4
                         00000E-000017                A
                         004F8F-00C931             79A3
        CONST            000004-000007                4
                         00000E-000017                A
                         004F8F-00C931             79A3
        EEDATA           310000-3103FF              400
        MEDIUMCONST      004F8F-00C931             79A3
        RAM              0002B1-0002FF               4F
                         0003F2-0003FF                E
                         0004F7-0004FF                9
                         0005E8-0005FF               18
                         0006D9-000DE9              100
        SFR              000DEF-000FFF              100
        SMALLCONST       004F8F-00C931              100
        STACK            0006D9-000DE9              711

                                  Symbol Table

?_ADCC_GetConversionResult                     cstackCOMRAM 000001
?_ADCC_GetFilterValue                          cstackCOMRAM 000001
?_FLASH_ReadWord                               cstackBANK3  000304
?___awdiv                                      cstackBANK3  000306
?___awmod                                      cstackBANK3  000300
?___fladd                                      cstackBANK3  000334
?___fldiv                                      cstackBANK3  000348
?___flmul                                      cstackBANK3  000361
?___flneg                                      cstackBANK3  000330
?___flsub                                      cstackBANK3  000348
?___fltol                                      cstackBANK3  00030E
?___ftdiv                                      cstackBANK3  00030B
?___ftpack                                     cstackBANK3  000300
?___lldiv                                      cstackBANK3  000300
?___llmod                                      cstackBANK3  00030D
?___lwtoft                                     cstackBANK3  000308
?___wmul                                       cstackBANK3  000300
?___xxtofl                                     cstackBANK3  000318
?__div_to_l_                                   cstackBANK3  000300
?__doprnt                                      cstackBANK3  000387
?__tdiv_to_l_                                  cstackBANK3  000300
?_acos                                         cstackBANK3  0003B7
?_asin                                         cstackBANK3  00039F
?_atan                                         cstackBANK3  00038A
?_atoi                                         cstackBANK3  000306
?_currentMeasuredToPeak                        cstackBANK0  0000AC
?_eval_poly                                    cstackBANK3  00037A
?_fabs                                         cstackBANK3  000334
?_floor                                        cstackBANK0  000089
?_fround                                       cstackBANK3  00037A
?_getCauseOfResetString                        cstackBANK3  000300
?_getCauseOfResetStringSmall                   cstackBANK3  000300
?_getDeviceID                                  cstackBANK3  00030B
?_getDeviceIDString                            cstackBANK3  00030D
?_getUserID                                    cstackBANK3  00030B
?_peakToRMS                                    cstackBANK0  0000C2
?_printf                                       cstackBANK3  0003B1
?_readDoubleFromEEPROM                         cstackBANK3  000302
?_round                                        cstackBANK3  0003BF
?_scale                                        cstackBANK3  00037A
?_sin                                          cstackBANK0  00009B
?_sprintf                                      cstackBANK3  0003B1
?_sqrt                                         cstackBANK3  00037A
?_strchr                                       cstackBANK3  000300
?_strcmp                                       cstackBANK3  000300
?_strlen                                       cstackBANK3  000300
?_strncmp                                      cstackBANK3  000306
?_strstr                                       cstackBANK3  00030F
?_trunc                                        cstackBANK3  000326
?i1_FLASH_ReadWord                             cstackBANK1  000104
?i1___awdiv                                    cstackBANK1  000106
?i1___awmod                                    cstackBANK1  000100
?i1___fladd                                    cstackBANK1  000134
?i1___fldiv                                    cstackBANK1  000148
?i1___flmul                                    cstackBANK1  000161
?i1___flneg                                    cstackBANK1  000130
?i1___flsub                                    cstackBANK1  000148
?i1___fltol                                    cstackBANK1  00010E
?i1___ftdiv                                    cstackBANK1  00010B
?i1___ftpack                                   cstackBANK1  000100
?i1___lldiv                                    cstackBANK1  000100
?i1___llmod                                    cstackBANK1  00010D
?i1___lwtoft                                   cstackBANK1  000108
?i1___wmul                                     cstackBANK1  000100
?i1___xxtofl                                   cstackBANK1  000118
?i1__div_to_l_                                 cstackBANK1  000100
?i1__doprnt                                    cstackBANK1  000187
?i1__tdiv_to_l_                                cstackBANK1  000100
?i1_acos                                       cstackBANK1  0001B7
?i1_asin                                       cstackBANK1  00019F
?i1_atan                                       cstackBANK1  00018A
?i1_eval_poly                                  cstackBANK1  00017A
?i1_fabs                                       cstackBANK1  000134
?i1_fround                                     cstackBANK1  00017A
?i1_getCauseOfResetStringSmall                 cstackBANK1  000100
?i1_getDeviceID                                cstackBANK1  00010B
?i1_printf                                     cstackBANK1  0001B1
?i1_round                                      cstackBANK1  0001BF
?i1_scale                                      cstackBANK1  00017A
?i1_sprintf                                    cstackBANK1  0001B1
?i1_sqrt                                       cstackBANK1  00017A
?i1_trunc                                      cstackBANK1  000126
?i2___awdiv                                    cstackCOMRAM 000007
?i2___awmod                                    cstackCOMRAM 000001
?i2___fladd                                    cstackBANK0  00006D
?i2___fldiv                                    cstackCOMRAM 000049
?i2___flmul                                    cstackCOMRAM 00000F
?i2___flneg                                    cstackCOMRAM 000055
?i2___flsub                                    cstackBANK0  000093
?i2___fltol                                    cstackCOMRAM 000031
?i2___lldiv                                    cstackCOMRAM 000001
?i2___llmod                                    cstackCOMRAM 00000E
?i2___wmul                                     cstackCOMRAM 000001
?i2___xxtofl                                   cstackCOMRAM 00003B
?i2__div_to_l_                                 cstackCOMRAM 000001
?i2__doprnt                                    cstackBANK0  00009B
?i2__tdiv_to_l_                                cstackCOMRAM 000001
?i2_acos                                       cstackBANK0  0000BA
?i2_asin                                       cstackBANK0  0000A2
?i2_atan                                       cstackBANK0  00008D
?i2_eval_poly                                  cstackBANK0  00007D
?i2_fabs                                       cstackCOMRAM 000059
?i2_fround                                     cstackCOMRAM 000028
?i2_printf                                     cstackBANK0  0000C5
?i2_readDoubleFromEEPROM                       cstackCOMRAM 000003
?i2_scale                                      cstackCOMRAM 000028
?i2_sqrt                                       cstackCOMRAM 000028
ADCC_SetADTIInterruptHandler@InterruptHandler  cstackBANK3  000300
ADCC_StartConversion@channel                   cstackBANK1  000100
ADC_PostProcessingCallback@current_adc_channel cstackBANK0  0000E6
DATAEE_ReadByte@bAdd                           cstackBANK3  000300
DATAEE_WriteByte@GIEBitValue                   cstackBANK3  000303
DATAEE_WriteByte@bAdd                          cstackBANK3  000300
DATAEE_WriteByte@bData                         cstackBANK3  000302
EUSART2_Read@readValue                         cstackBANK3  000300
EUSART2_SetRxInterruptHandler@interruptHandler cstackBANK3  000300
EUSART2_SetTxInterruptHandler@interruptHandler cstackBANK3  000300
EUSART2_Write@txData                           cstackBANK3  000300
FLASH_ReadByte@flashAddr                       cstackBANK3  000300
FLASH_ReadWord@flashAddr                       cstackBANK3  000304
I2C1_ISR@i2c_10bit_address_restart             bssBANK1     0001FA
I2C1_ISR@i2c_address                           bssBANK1     0001FD
I2C1_ISR@i2c_bytes_left                        bssBANK1     0001FB
I2C1_ISR@pi2c_buf_ptr                          bssBANK2     00029A
I2C1_MasterRead@trBlock                        bssBANK4     000495
I2C1_MasterTRBInsert@count                     cstackBANK3  000305
I2C1_MasterTRBInsert@pflag                     cstackBANK3  000302
I2C1_MasterTRBInsert@ptrb_list                 cstackBANK3  000300
I2C1_MasterWrite@address                       cstackBANK3  00030C
I2C1_MasterWrite@length                        cstackBANK3  00030B
I2C1_MasterWrite@pdata                         cstackBANK3  000309
I2C1_MasterWrite@pflag                         cstackBANK3  00030E
I2C1_MasterWrite@trBlock                       bssBANK4     00049A
I2C1_MasterWriteTRBBuild@address               cstackBANK3  000305
I2C1_MasterWriteTRBBuild@length                cstackBANK3  000304
I2C1_MasterWriteTRBBuild@pdata                 cstackBANK3  000302
I2C1_MasterWriteTRBBuild@ptrb                  cstackBANK3  000300
I2C1_Stop@completion_code                      cstackCOMRAM 000003
INT0_SetInterruptHandler@InterruptHandler      cstackBANK3  000300
OLED_Clear@col                                 cstackBANK3  000323
OLED_Clear@row                                 cstackBANK3  000321
OLED_Command@data_array                        cstackBANK3  000312
OLED_Command@length                            cstackBANK3  000311
OLED_Command@temp                              cstackBANK3  000310
OLED_PutChar@ch                                cstackBANK3  000320
OLED_PutChar@data_array                        cstackBANK3  000314
OLED_PutChar@input_base                        cstackBANK3  00031D
OLED_PutChar@length                            cstackBANK3  00031F
OLED_WriteString@s                             cstackBANK3  000321
OLED_YX@Column                                 cstackBANK3  000314
OLED_YX@Row                                    cstackBANK3  000316
OLED_updateCallback@TRIAC_degrees              cstackBANK6  000684
OLED_updateCallback@angle_degrees              cstackBANK6  00068A
OLED_updateCallback@angle_string               cstackBANK6  0006C8
OLED_updateCallback@dev_id_str                 cstackBANK6  000695
OLED_updateCallback@percentage                 cstackBANK6  000692
OLED_updateCallback@percentage_print           cstackBANK6  000687
OLED_updateCallback@percentage_string          cstackBANK6  0006B7
OLED_updateCallback@rev_id_str                 cstackBANK6  0006A6
TMR2_Counter8BitSet@timerVal                   cstackBANK3  000300
TMR2_Period8BitSet@periodVal                   cstackBANK3  000300
TMR2_SetInterruptHandler@InterruptHandler      cstackBANK3  000300
TMR2_WriteTimer@timerVal                       cstackBANK3  000301
TMR4_ISR@CountCallBack                         bssBANK2     00029C
TMR4_SetInterruptHandler@InterruptHandler      cstackBANK3  000300
TMR5_SetInterruptHandler@InterruptHandler      cstackBANK3  000300
TMR5_WriteTimer@timerVal                       cstackCOMRAM 000001
TMR6_SetInterruptHandler@InterruptHandler      cstackBANK3  000300
TMR7_SetInterruptHandler@InterruptHandler      cstackBANK3  000300
TMR7_WriteTimer@timerVal                       cstackBANK1  000100
_ADACCH                                        (abs)        000F71
_ADACCL                                        (abs)        000F70
_ADACQ                                         (abs)        000F5C
_ADACT                                         (abs)        000F56
_ADCAP                                         (abs)        000F5D
_ADCC_ADTI_InterruptHandler                    bssBANK2     000294
_ADCC_ClearAccumulator                         text127      004F3E
_ADCC_DefaultInterruptHandler                  text244      004F8C
_ADCC_DischargeSampleCapacitor                 text126      004F22
_ADCC_GetConversionResult                      text269      004D3E
_ADCC_GetCurrentCountofConversions             text268      004F7A
_ADCC_GetFilterValue                           text267      004D2A
_ADCC_HasAccumulatorOverflowed                 text266      004ECA
_ADCC_Initialize                               text113      0033F6
_ADCC_SetADTIInterruptHandler                  text114      004E92
_ADCC_StartConversion                          text125      004EA0
_ADCC_StopConversion                           text265      004F76
_ADCC_ThresholdISR                             text243      0048F2
_ADCLK                                         (abs)        000F57
_ADCNT                                         (abs)        000F67
_ADCON0                                        (abs)        000F60
_ADCON0bits                                    (abs)        000F60
_ADCON1                                        (abs)        000F59
_ADCON1bits                                    (abs)        000F59
_ADCON2                                        (abs)        000F5A
_ADCON2bits                                    (abs)        000F5A
_ADCON3                                        (abs)        000F5B
_ADCON3bits                                    (abs)        000F5B
_ADC_PostProcessingCallback                    text245      01981E
_ADC_PostProcessingCallback$6621               cstackBANK0  0000E7
_ADC_PostProcessingCallback$6622               cstackBANK0  0000DA
_ADC_PostProcessingCallback$6623               cstackBANK0  0000DE
_ADC_PostProcessingCallback$6624               cstackBANK0  0000E2
_ADC_Result_Scaling                            bssBANK4     000424
_ADERRH                                        (abs)        000F6F
_ADERRL                                        (abs)        000F6E
_ADFLTRH                                       (abs)        000F73
_ADFLTRL                                       (abs)        000F72
_ADLTHH                                        (abs)        000F6B
_ADLTHL                                        (abs)        000F6A
_ADPCH                                         (abs)        000F5F
_ADPRE                                         (abs)        000F5E
_ADPREVH                                       (abs)        000F62
_ADPREVL                                       (abs)        000F61
_ADREF                                         (abs)        000F58
_ADRESH                                        (abs)        000F64
_ADRESL                                        (abs)        000F63
_ADRPT                                         (abs)        000F66
_ADSTAT                                        (abs)        000F65
_ADSTATbits                                    (abs)        000F65
_ADSTPTH                                       (abs)        000F69
_ADSTPTL                                       (abs)        000F68
_ADUTHH                                        (abs)        000F6D
_ADUTHL                                        (abs)        000F6C
_ANSELA                                        (abs)        000E92
_ANSELB                                        (abs)        000E9A
_ANSELD                                        (abs)        000EA7
_ANSELE                                        (abs)        000EAF
_ANSELF                                        (abs)        000EB4
_ANSELG                                        (abs)        000EBC
_AVSS_ADC_Result                               bssBANK4     000428
_Avg_Power                                     bssBANK2     000275
_BAUD2CON                                      (abs)        000EF7
_CountCallBack                                 bssBANK2     0002A0
_DATAEE_ReadByte                               text88       004C62
_DATAEE_WriteByte                              text84       0042B6
_EUSART2_Initialize                            text110      0036D0
_EUSART2_Read                                  text44       003B94
_EUSART2_Receive_ISR                           text228      0025EC
_EUSART2_RxDefaultInterruptHandler             bssBANK4     000438
_EUSART2_SetRxInterruptHandler                 text112      004E84
_EUSART2_SetTxInterruptHandler                 text111      004E76
_EUSART2_Transmit_ISR                          text227      0045F8
_EUSART2_TxDefaultInterruptHandler             bssBANK4     00043B
_EUSART2_Write                                 text55       003DA4
_EXT_INT_Initialize                            text108      004B9E
_FLASH_ReadByte                                text78       004C48
_FLASH_ReadWord                                text77       0040B2
_FVRCON                                        (abs)        000EC4
_FVRCONbits                                    (abs)        000EC4
_FVR_ADC_Result                                bssBANK2     0002AC
_FVR_Initialize                                text107      004F12
_HLVDCON0                                      (abs)        000EC2
_HLVDCON0bits                                  (abs)        000EC2
_HLVDCON1                                      (abs)        000EC3
_HLVD_ISR                                      text224      004238
_HLVD_Initialize                               text106      004DB8
_I2C1_BusCollisionISR                          text223      004F50
_I2C1_FunctionComplete                         text222      004CCA
_I2C1_ISR                                      text220      01F60A
_I2C1_Initialize                               text105      0045C2
_I2C1_MasterTRBInsert                          text119      002694
_I2C1_MasterWrite                              text117      003AF4
_I2C1_MasterWriteTRBBuild                      text118      003F9C
_I2C1_Stop                                     text221      0041F8
_I2C1_WaitForLastPacketToComplete              text120      004F1A
_INT0PPS                                       (abs)        000DF0
_INT0_CallBack                                 text215      004AB6
_INT0_DefaultInterruptHandler                  text216      004F8A
_INT0_ISR                                      text214      004EFE
_INT0_InterruptHandler                         bssBANK4     000432
_INT0_SetInterruptHandler                      text109      004E68
_INTCONbits                                    (abs)        000FF2
_INTERRUPT_Initialize                          text104      004B80
_INTERRUPT_InterruptManagerHigh                intcode      000008
_INTERRUPT_InterruptManagerLow                 intcodelo    000018
_IPR0bits                                      (abs)        000E1F
_IPR1bits                                      (abs)        000E20
_IPR2bits                                      (abs)        000E21
_IPR3bits                                      (abs)        000E22
_IPR5bits                                      (abs)        000E24
_Imeas                                         bssBANK4     000418
_Ipk                                           bssBANK4     00041C
_Irms                                          bssBANK2     00027D
_Irms_offset                                   bssBANK4     000414
_LATA                                          (abs)        000F79
_LATB                                          (abs)        000F7A
_LATC                                          (abs)        000F7B
_LATD                                          (abs)        000F7C
_LATE                                          (abs)        000F7D
_LATF                                          (abs)        000F7E
_LATFbits                                      (abs)        000F7E
_LATG                                          (abs)        000F7F
_LATGbits                                      (abs)        000F7F
_LATH                                          (abs)        000F80
_NVMADRH                                       (abs)        000F75
_NVMADRL                                       (abs)        000F74
_NVMCON1bits                                   (abs)        000F77
_NVMCON2                                       (abs)        000F78
_NVMDAT                                        (abs)        000F76
_ODCONA                                        (abs)        000E90
_ODCONB                                        (abs)        000E98
_ODCONC                                        (abs)        000EA0
_ODCOND                                        (abs)        000EA5
_ODCONE                                        (abs)        000EAD
_ODCONF                                        (abs)        000EB2
_ODCONG                                        (abs)        000EBA
_ODCONH                                        (abs)        000EBF
_OLED_Clear                                    text41       004178
_OLED_Command                                  text116      003530
_OLED_Frame                                    bssBANK3     0003F1
_OLED_I2C_Status                               bssBANK2     0002B0
_OLED_Init                                     text115      002918
_OLED_PutChar                                  text42       002038
_OLED_RAM_Buffer                               bssBANK4     000440
_OLED_UpdateFromRAMBuffer                      text38       002FE4
_OLED_WriteString                              text40       0038AE
_OLED_YX                                       text39       004370
_OLED_updateCallback                           text13       017F2E
_OLED_updateCallback$5836                      cstackBANK6  00068E
_OLED_updateCallback$5837                      cstackBANK6  000680
_OLED_updateCallback$intlevel0                 text13       017F34
_OSCCON1                                       (abs)        000E43
_OSCCON3                                       (abs)        000E45
_OSCEN                                         (abs)        000E47
_OSCFRQ                                        (abs)        000E49
_OSCILLATOR_Initialize                         text103      004BF6
_OSCTUNE                                       (abs)        000E48
_OledFont                                      mediumconst  00C9F1
_PCON0bits                                     (abs)        000FD7
_PIE0bits                                      (abs)        000E29
_PIE1bits                                      (abs)        000E2A
_PIE2bits                                      (abs)        000E2B
_PIE3bits                                      (abs)        000E2C
_PIE5bits                                      (abs)        000E2E
_PIN_MANAGER_Initialize                        text102      001F6C
_PIR0bits                                      (abs)        000E33
_PIR1bits                                      (abs)        000E34
_PIR2bits                                      (abs)        000E35
_PIR3bits                                      (abs)        000E36
_PIR5bits                                      (abs)        000E38
_PIR8bits                                      (abs)        000E3B
_PLLR                                          (abs)        007230
_PMD0                                          (abs)        000E4C
_PMD1                                          (abs)        000E4D
_PMD2                                          (abs)        000E4E
_PMD3                                          (abs)        000E4F
_PMD4                                          (abs)        000E50
_PMD5                                          (abs)        000E51
_PMD_Initialize                                text101      004BDA
_POS12_ADC_Result                              bssBANK2     000285
_POS3P3_ADC_Result                             bssBANK2     000289
_PR2                                           (abs)        000FBC
_PR4                                           (abs)        000FB6
_PR6                                           (abs)        000FB0
_RC2REG                                        (abs)        000EF1
_RC2STA                                        (abs)        000EF5
_RC2STAbits                                    (abs)        000EF5
_RC6PPS                                        (abs)        000E68
_RC7PPS                                        (abs)        000E69
_RG7PPS                                        (abs)        000E89
_RX2PPS                                        (abs)        000E11
_SBOREN                                        (abs)        00725F
_SLRCONA                                       (abs)        000E8F
_SLRCONB                                       (abs)        000E97
_SLRCONC                                       (abs)        000E9F
_SLRCOND                                       (abs)        000EA4
_SLRCONE                                       (abs)        000EAC
_SLRCONF                                       (abs)        000EB1
_SLRCONG                                       (abs)        000EB9
_SLRCONH                                       (abs)        000EBE
_SP2BRGH                                       (abs)        000EF4
_SP2BRGL                                       (abs)        000EF3
_SSP1ADD                                       (abs)        000F92
_SSP1BUF                                       (abs)        000F91
_SSP1CLKPPS                                    (abs)        000E19
_SSP1CON1                                      (abs)        000F95
_SSP1CON1bits                                  (abs)        000F95
_SSP1CON2bits                                  (abs)        000F96
_SSP1CON3                                      (abs)        000F97
_SSP1DATPPS                                    (abs)        000E1A
_SSP1STAT                                      (abs)        000F94
_SYSTEM_Initialize                             text90       0042F4
_T2CLKCON                                      (abs)        000FBF
_T2CON                                         (abs)        000FBD
_T2CONbits                                     (abs)        000FBD
_T2HLT                                         (abs)        000FBE
_T2HLTbits                                     (abs)        000FBE
_T2PR                                          (abs)        000FBC
_T2RST                                         (abs)        000FC0
_T2RSTbits                                     (abs)        000FC0
_T2TMR                                         (abs)        000FBB
_T4CLKCON                                      (abs)        000FB9
_T4CON                                         (abs)        000FB7
_T4CONbits                                     (abs)        000FB7
_T4HLT                                         (abs)        000FB8
_T4HLTbits                                     (abs)        000FB8
_T4PR                                          (abs)        000FB6
_T4RST                                         (abs)        000FBA
_T4RSTbits                                     (abs)        000FBA
_T4TMR                                         (abs)        000FB5
_T5CLK                                         (abs)        000FC6
_T5CON                                         (abs)        000FC3
_T5CONbits                                     (abs)        000FC3
_T5GATE                                        (abs)        000FC5
_T5GCON                                        (abs)        000FC4
_T5GCONbits                                    (abs)        000FC4
_T6CLKCON                                      (abs)        000FB3
_T6CON                                         (abs)        000FB1
_T6CONbits                                     (abs)        000FB1
_T6HLT                                         (abs)        000FB2
_T6HLTbits                                     (abs)        000FB2
_T6PR                                          (abs)        000FB0
_T6RST                                         (abs)        000FB4
_T6RSTbits                                     (abs)        000FB4
_T6TMR                                         (abs)        000FAF
_T7CLK                                         (abs)        000F33
_T7CON                                         (abs)        000F30
_T7CONbits                                     (abs)        000F30
_T7GATE                                        (abs)        000F32
_T7GCON                                        (abs)        000F31
_T7GCONbits                                    (abs)        000F31
_TABLAT                                        (abs)        000FF5
_TBLPTRH                                       (abs)        000FF7
_TBLPTRL                                       (abs)        000FF6
_TBLPTRU                                       (abs)        000FF8
_TMR2                                          (abs)        000FBB
_TMR2_CallBack                                 text133      004A6E
_TMR2_Counter8BitSet                           text32       004ED6
_TMR2_DefaultInterruptHandler                  text134      004F84
_TMR2_ISR                                      text132      00498C
_TMR2_Initialize                               text99       0047BC
_TMR2_InterruptHandler                         bssBANK4     00042C
_TMR2_Period8BitSet                            text37       004EE0
_TMR2_SetInterruptHandler                      text100      004E5A
_TMR2_Start                                    text36       004F62
_TMR2_StartTimer                               text35       004F38
_TMR2_Stop                                     text34       004F5E
_TMR2_StopTimer                                text33       004F32
_TMR2_WriteTimer                               text31       004E14
_TMR4                                          (abs)        000FB5
_TMR4_CallBack                                 text209      004A92
_TMR4_DefaultInterruptHandler                  text210      004F88
_TMR4_ISR                                      text208      0049FE
_TMR4_Initialize                               text97       00478C
_TMR4_InterruptHandler                         bssBANK4     00042F
_TMR4_SetInterruptHandler                      text98       004E4C
_TMR5H                                         (abs)        000FC2
_TMR5L                                         (abs)        000FC1
_TMR5_DefaultInterruptHandler                  text205      004F86
_TMR5_ISR                                      text204      004696
_TMR5_Initialize                               text95       003AA4
_TMR5_InterruptHandler                         bssBANK4     000435
_TMR5_SetInterruptHandler                      text96       004E3E
_TMR5_StartTimer                               text219      004F72
_TMR5_StopTimer                                text12       004F5A
_TMR5_WriteTimer                               text218      004C12
_TMR6                                          (abs)        000FAF
_TMR6_DefaultInterruptHandler                  text130      004F82
_TMR6_ISR                                      text129      0048A2
_TMR6_Initialize                               text93       0046CA
_TMR6_InterruptHandler                         bssBANK2     000297
_TMR6_SetInterruptHandler                      text94       004E30
_TMR7H                                         (abs)        000F2F
_TMR7L                                         (abs)        000F2E
_TMR7_DefaultInterruptHandler                  text123      004F80
_TMR7_ISR                                      text122      004662
_TMR7_Initialize                               text91       00395E
_TMR7_InterruptHandler                         bssBANK2     000291
_TMR7_SetInterruptHandler                      text92       004E22
_TMR7_WriteTimer                               text128      004966
_TRIAC_Firing_Angle                            dataBANK3    0003EC
_TRISA                                         (abs)        000F81
_TRISB                                         (abs)        000F82
_TRISC                                         (abs)        000F83
_TRISD                                         (abs)        000F84
_TRISE                                         (abs)        000F85
_TRISF                                         (abs)        000F86
_TRISG                                         (abs)        000F87
_TRISH                                         (abs)        000F88
_TX2REG                                        (abs)        000EF2
_TX2STA                                        (abs)        000EF6
_TX2STAbits                                    (abs)        000EF6
_Temp_ADC_Offset                               dataBANK4    0004F3
_Temp_ADC_Result                               bssBANK2     000281
_Total_Energy                                  bssBANK2     00028D
_Total_Energy_address                          mediumconst  00C9EF
_USB_live_update_flag                          bitbssCOMRAM 0002E8
_Vpk                                           bssBANK4     000420
_Vpk_const                                     dataBANK4    0004EF
_Vrms                                          bssBANK2     000279
_WPUA                                          (abs)        000E91
_WPUB                                          (abs)        000E99
_WPUC                                          (abs)        000EA1
_WPUD                                          (abs)        000EA6
_WPUE                                          (abs)        000EAE
_WPUF                                          (abs)        000EB3
_WPUG                                          (abs)        000EBB
_WPUH                                          (abs)        000EC0
__CFG_BOREN$ON                                 (abs)        000000
__CFG_BORV$VBOR_190                            (abs)        000000
__CFG_CLKOUTEN$OFF                             (abs)        000000
__CFG_CP$OFF                                   (abs)        000000
__CFG_CPD$OFF                                  (abs)        000000
__CFG_CSWEN$OFF                                (abs)        000000
__CFG_DEBUG$OFF                                (abs)        000000
__CFG_EBTR0$OFF                                (abs)        000000
__CFG_EBTR1$OFF                                (abs)        000000
__CFG_EBTR2$OFF                                (abs)        000000
__CFG_EBTR3$OFF                                (abs)        000000
__CFG_EBTR4$OFF                                (abs)        000000
__CFG_EBTR5$OFF                                (abs)        000000
__CFG_EBTR6$OFF                                (abs)        000000
__CFG_EBTR7$OFF                                (abs)        000000
__CFG_EBTRB$OFF                                (abs)        000000
__CFG_FCMEN$ON                                 (abs)        000000
__CFG_FEXTOSC$ECH                              (abs)        000000
__CFG_IDLOC0$                                  (abs)        00000D
__CFG_IDLOC1$                                  (abs)        00000E
__CFG_IDLOC2$                                  (abs)        00000A
__CFG_IDLOC3$                                  (abs)        00000D
__CFG_IDLOC4$                                  (abs)        00000B
__CFG_IDLOC5$                                  (abs)        00000E
__CFG_IDLOC6$                                  (abs)        00000E
__CFG_IDLOC7$                                  (abs)        00000F
__CFG_LPBOREN$OFF                              (abs)        000000
__CFG_LVP$ON                                   (abs)        000000
__CFG_MCLRE$EXTMCLR                            (abs)        000000
__CFG_PPS1WAY$ON                               (abs)        000000
__CFG_PWRTE$ON                                 (abs)        000000
__CFG_RSTOSC$EXTOSC_4PLL                       (abs)        000000
__CFG_SCANE$OFF                                (abs)        000000
__CFG_STVREN$ON                                (abs)        000000
__CFG_WDTCCS$LFINTOSC                          (abs)        000000
__CFG_WDTCPS$WDTCPS_11                         (abs)        000000
__CFG_WDTCWS$WDTCWS_7                          (abs)        000000
__CFG_WDTE$NSLEEP                              (abs)        000000
__CFG_WRT0$ON                                  (abs)        000000
__CFG_WRT1$ON                                  (abs)        000000
__CFG_WRT2$ON                                  (abs)        000000
__CFG_WRT3$ON                                  (abs)        000000
__CFG_WRT4$ON                                  (abs)        000000
__CFG_WRT5$ON                                  (abs)        000000
__CFG_WRT6$ON                                  (abs)        000000
__CFG_WRT7$ON                                  (abs)        000000
__CFG_WRTB$ON                                  (abs)        000000
__CFG_WRTC$ON                                  (abs)        000000
__CFG_WRTD$OFF                                 (abs)        000000
__CFG_XINST$OFF                                (abs)        000000
__CFG_ZCD$OFF                                  (abs)        000000
__HRAM                                         (abs)        000000
__Habs1                                        abs1         000000
__Hbank0                                       bank0        000000
__Hbank1                                       bank1        000000
__Hbank10                                      bank10       000000
__Hbank11                                      bank11       000000
__Hbank12                                      bank12       000000
__Hbank13                                      bank13       000000
__Hbank2                                       bank2        000000
__Hbank3                                       bank3        000000
__Hbank4                                       bank4        000000
__Hbank5                                       bank5        000000
__Hbank6                                       bank6        000000
__Hbank7                                       bank7        000000
__Hbank8                                       bank8        000000
__Hbank9                                       bank9        000000
__Hbigbss                                      bigbss       000000
__Hbigdata                                     bigdata      000000
__Hbigram                                      bigram       000000
__HbitbssCOMRAM                                bitbssCOMRAM 000000
__Hbss                                         bss          000000
__HbssBANK0                                    bssBANK0     000000
__HbssBANK1                                    bssBANK1     000000
__HbssBANK2                                    bssBANK2     000000
__HbssBANK3                                    bssBANK3     000000
__HbssBANK4                                    bssBANK4     000000
__HbssBANK5                                    bssBANK5     000000
__HbssBANK6                                    bssBANK6     000000
__HbssCOMRAM                                   bssCOMRAM    000000
__Hcinit                                       cinit        000000
__Hclrtext                                     clrtext      000000
__Hcomram                                      comram       000000
__Hconfig                                      config       30000C
__Hconst                                       const        000000
__HcstackBANK0                                 cstackBANK0  000000
__HcstackBANK1                                 cstackBANK1  000000
__HcstackBANK2                                 cstackBANK2  000000
__HcstackBANK3                                 cstackBANK3  000000
__HcstackBANK4                                 cstackBANK4  000000
__HcstackBANK6                                 cstackBANK6  000000
__HcstackCOMRAM                                cstackCOMRAM 000000
__Hdata                                        data         000000
__HdataBANK0                                   dataBANK0    000000
__HdataBANK1                                   dataBANK1    000000
__HdataBANK3                                   dataBANK3    000000
__HdataBANK4                                   dataBANK4    000000
__HdataBANK5                                   dataBANK5    000000
__Heeprom_data                                 eeprom_data  000000
__Hfarbss                                      farbss       000000
__Hfardata                                     fardata      000000
__Hibigdata                                    ibigdata     000000
__Hidata                                       idata        000000
__HidataBANK0                                  idataBANK0   000000
__HidataBANK1                                  idataBANK1   000000
__HidataBANK3                                  idataBANK3   000000
__HidataBANK4                                  idataBANK4   000000
__HidataBANK5                                  idataBANK5   000000
__Hidloc                                       idloc        200010
__Hifardata                                    ifardata     000000
__Hinit                                        init         0000EE
__Hintcode                                     intcode      00000E
__Hintcode_body                                intcode_body 000000
__Hintcodelo                                   intcodelo    0000EA
__Hintentry                                    intentry     000000
__Hintret                                      intret       000000
__Hintsave_regs                                intsave_regs 000000
__Hirdata                                      irdata       000000
__Hmediumconst                                 mediumconst  010000
__HnvBANK3                                     nvBANK3      000000
__HnvFARRAM                                    nvFARRAM     000000
__Hnvbit                                       nvbit        000000
__Hnvrram                                      nvrram       000000
__Hparam                                       rparam       000000
__Hpowerup                                     powerup      0000EA
__Hram                                         ram          000000
__Hramtop                                      ramtop       000E00
__Hrbit                                        rbit         000000
__Hrbss                                        rbss         000000
__Hrdata                                       rdata        000000
__Hreset_vec                                   reset_vec    000004
__Hrparam                                      rparam       000000
__Hsfr                                         sfr          000000
__Hsmallconst                                  smallconst   000000
__Hspace_0                                     (abs)        30000C
__Hspace_1                                     (abs)        0006D9
__Hspace_2                                     (abs)        000000
__Hstack                                       stack        000000
__Hstruct                                      struct       000000
__Htemp                                        temp         000060
__Htext                                        text         000000
__Htext0                                       text0        000000
__Htext1                                       text1        000000
__Htext10                                      text10       000000
__Htext100                                     text100      000000
__Htext101                                     text101      000000
__Htext102                                     text102      000000
__Htext103                                     text103      000000
__Htext104                                     text104      000000
__Htext105                                     text105      000000
__Htext106                                     text106      000000
__Htext107                                     text107      000000
__Htext108                                     text108      000000
__Htext109                                     text109      000000
__Htext11                                      text11       000000
__Htext110                                     text110      000000
__Htext111                                     text111      000000
__Htext112                                     text112      000000
__Htext113                                     text113      000000
__Htext114                                     text114      000000
__Htext115                                     text115      000000
__Htext116                                     text116      000000
__Htext117                                     text117      000000
__Htext118                                     text118      000000
__Htext119                                     text119      000000
__Htext12                                      text12       000000
__Htext120                                     text120      000000
__Htext122                                     text122      000000
__Htext123                                     text123      000000
__Htext124                                     text124      000000
__Htext125                                     text125      000000
__Htext126                                     text126      000000
__Htext127                                     text127      000000
__Htext128                                     text128      000000
__Htext129                                     text129      000000
__Htext13                                      text13       000000
__Htext130                                     text130      000000
__Htext131                                     text131      000000
__Htext132                                     text132      000000
__Htext133                                     text133      000000
__Htext134                                     text134      000000
__Htext135                                     text135      000000
__Htext136                                     text136      000000
__Htext137                                     text137      000000
__Htext138                                     text138      000000
__Htext139                                     text139      000000
__Htext14                                      text14       000000
__Htext140                                     text140      000000
__Htext141                                     text141      000000
__Htext142                                     text142      000000
__Htext143                                     text143      000000
__Htext144                                     text144      000000
__Htext145                                     text145      000000
__Htext146                                     text146      000000
__Htext147                                     text147      000000
__Htext148                                     text148      000000
__Htext149                                     text149      000000
__Htext15                                      text15       000000
__Htext150                                     text150      000000
__Htext151                                     text151      000000
__Htext152                                     text152      000000
__Htext153                                     text153      000000
__Htext154                                     text154      000000
__Htext155                                     text155      000000
__Htext156                                     text156      000000
__Htext157                                     text157      000000
__Htext158                                     text158      000000
__Htext159                                     text159      000000
__Htext16                                      text16       000000
__Htext160                                     text160      000000
__Htext161                                     text161      000000
__Htext162                                     text162      000000
__Htext163                                     text163      000000
__Htext164                                     text164      000000
__Htext165                                     text165      000000
__Htext166                                     text166      000000
__Htext167                                     text167      000000
__Htext168                                     text168      000000
__Htext169                                     text169      000000
__Htext17                                      text17       000000
__Htext170                                     text170      000000
__Htext171                                     text171      000000
__Htext172                                     text172      000000
__Htext173                                     text173      000000
__Htext174                                     text174      000000
__Htext175                                     text175      000000
__Htext176                                     text176      000000
__Htext177                                     text177      000000
__Htext178                                     text178      000000
__Htext179                                     text179      000000
__Htext18                                      text18       000000
__Htext180                                     text180      000000
__Htext181                                     text181      000000
__Htext182                                     text182      000000
__Htext183                                     text183      000000
__Htext184                                     text184      000000
__Htext185                                     text185      000000
__Htext186                                     text186      000000
__Htext187                                     text187      000000
__Htext188                                     text188      000000
__Htext189                                     text189      000000
__Htext19                                      text19       000000
__Htext190                                     text190      000000
__Htext191                                     text191      000000
__Htext192                                     text192      000000
__Htext193                                     text193      000000
__Htext194                                     text194      000000
__Htext195                                     text195      000000
__Htext196                                     text196      000000
__Htext197                                     text197      000000
__Htext198                                     text198      000000
__Htext199                                     text199      000000
__Htext2                                       text2        000000
__Htext20                                      text20       000000
__Htext200                                     text200      000000
__Htext201                                     text201      000000
__Htext202                                     text202      000000
__Htext204                                     text204      000000
__Htext205                                     text205      000000
__Htext206                                     text206      000000
__Htext207                                     text207      000000
__Htext208                                     text208      000000
__Htext209                                     text209      000000
__Htext21                                      text21       000000
__Htext210                                     text210      000000
__Htext211                                     text211      000000
__Htext212                                     text212      000000
__Htext213                                     text213      000000
__Htext214                                     text214      000000
__Htext215                                     text215      000000
__Htext216                                     text216      000000
__Htext217                                     text217      000000
__Htext218                                     text218      000000
__Htext219                                     text219      000000
__Htext22                                      text22       000000
__Htext220                                     text220      000000
__Htext221                                     text221      000000
__Htext222                                     text222      000000
__Htext223                                     text223      000000
__Htext224                                     text224      000000
__Htext225                                     text225      000000
__Htext226                                     text226      000000
__Htext227                                     text227      000000
__Htext228                                     text228      000000
__Htext229                                     text229      000000
__Htext23                                      text23       000000
__Htext230                                     text230      000000
__Htext231                                     text231      000000
__Htext232                                     text232      000000
__Htext233                                     text233      000000
__Htext234                                     text234      000000
__Htext235                                     text235      000000
__Htext236                                     text236      000000
__Htext237                                     text237      000000
__Htext238                                     text238      000000
__Htext239                                     text239      000000
__Htext24                                      text24       000000
__Htext240                                     text240      000000
__Htext241                                     text241      000000
__Htext242                                     text242      000000
__Htext243                                     text243      000000
__Htext244                                     text244      000000
__Htext245                                     text245      000000
__Htext246                                     text246      000000
__Htext247                                     text247      000000
__Htext248                                     text248      000000
__Htext249                                     text249      000000
__Htext25                                      text25       000000
__Htext250                                     text250      000000
__Htext251                                     text251      000000
__Htext252                                     text252      000000
__Htext253                                     text253      000000
__Htext254                                     text254      000000
__Htext255                                     text255      000000
__Htext256                                     text256      000000
__Htext257                                     text257      000000
__Htext258                                     text258      000000
__Htext259                                     text259      000000
__Htext26                                      text26       000000
__Htext260                                     text260      000000
__Htext261                                     text261      000000
__Htext262                                     text262      000000
__Htext263                                     text263      000000
__Htext264                                     text264      000000
__Htext265                                     text265      000000
__Htext266                                     text266      000000
__Htext267                                     text267      000000
__Htext268                                     text268      000000
__Htext269                                     text269      000000
__Htext27                                      text27       000000
__Htext270                                     text270      000000
__Htext28                                      text28       000000
__Htext29                                      text29       000000
__Htext3                                       text3        000000
__Htext30                                      text30       000000
__Htext31                                      text31       000000
__Htext32                                      text32       000000
__Htext33                                      text33       000000
__Htext34                                      text34       000000
__Htext35                                      text35       000000
__Htext36                                      text36       000000
__Htext37                                      text37       000000
__Htext38                                      text38       000000
__Htext39                                      text39       000000
__Htext4                                       text4        000000
__Htext40                                      text40       000000
__Htext41                                      text41       000000
__Htext42                                      text42       000000
__Htext43                                      text43       000000
__Htext44                                      text44       000000
__Htext45                                      text45       000000
__Htext46                                      text46       000000
__Htext47                                      text47       000000
__Htext48                                      text48       000000
__Htext49                                      text49       000000
__Htext5                                       text5        000000
__Htext50                                      text50       000000
__Htext51                                      text51       000000
__Htext52                                      text52       000000
__Htext53                                      text53       000000
__Htext54                                      text54       000000
__Htext55                                      text55       000000
__Htext56                                      text56       000000
__Htext57                                      text57       000000
__Htext58                                      text58       000000
__Htext59                                      text59       000000
__Htext6                                       text6        000000
__Htext60                                      text60       000000
__Htext61                                      text61       000000
__Htext62                                      text62       000000
__Htext63                                      text63       000000
__Htext64                                      text64       000000
__Htext65                                      text65       000000
__Htext66                                      text66       000000
__Htext67                                      text67       000000
__Htext68                                      text68       000000
__Htext69                                      text69       000000
__Htext7                                       text7        000000
__Htext70                                      text70       000000
__Htext71                                      text71       000000
__Htext72                                      text72       000000
__Htext73                                      text73       000000
__Htext74                                      text74       000000
__Htext75                                      text75       000000
__Htext76                                      text76       000000
__Htext77                                      text77       000000
__Htext78                                      text78       000000
__Htext79                                      text79       000000
__Htext8                                       text8        000000
__Htext80                                      text80       000000
__Htext81                                      text81       000000
__Htext82                                      text82       000000
__Htext83                                      text83       000000
__Htext84                                      text84       000000
__Htext85                                      text85       000000
__Htext86                                      text86       000000
__Htext87                                      text87       000000
__Htext88                                      text88       000000
__Htext89                                      text89       000000
__Htext9                                       text9        000000
__Htext90                                      text90       000000
__Htext91                                      text91       000000
__Htext92                                      text92       000000
__Htext93                                      text93       000000
__Htext94                                      text94       000000
__Htext95                                      text95       000000
__Htext96                                      text96       000000
__Htext97                                      text97       000000
__Htext98                                      text98       000000
__Htext99                                      text99       000000
__LRAM                                         (abs)        000001
__Labs1                                        abs1         000000
__Lbank0                                       bank0        000000
__Lbank1                                       bank1        000000
__Lbank10                                      bank10       000000
__Lbank11                                      bank11       000000
__Lbank12                                      bank12       000000
__Lbank13                                      bank13       000000
__Lbank2                                       bank2        000000
__Lbank3                                       bank3        000000
__Lbank4                                       bank4        000000
__Lbank5                                       bank5        000000
__Lbank6                                       bank6        000000
__Lbank7                                       bank7        000000
__Lbank8                                       bank8        000000
__Lbank9                                       bank9        000000
__Lbigbss                                      bigbss       000000
__Lbigdata                                     bigdata      000000
__Lbigram                                      bigram       000000
__LbitbssCOMRAM                                bitbssCOMRAM 000000
__Lbss                                         bss          000000
__LbssBANK0                                    bssBANK0     000000
__LbssBANK1                                    bssBANK1     000000
__LbssBANK2                                    bssBANK2     000000
__LbssBANK3                                    bssBANK3     000000
__LbssBANK4                                    bssBANK4     000000
__LbssBANK5                                    bssBANK5     000000
__LbssBANK6                                    bssBANK6     000000
__LbssCOMRAM                                   bssCOMRAM    000000
__Lcinit                                       cinit        000000
__Lclrtext                                     clrtext      000000
__Lcomram                                      comram       000000
__Lconfig                                      config       300000
__Lconst                                       const        000000
__LcstackBANK0                                 cstackBANK0  000000
__LcstackBANK1                                 cstackBANK1  000000
__LcstackBANK2                                 cstackBANK2  000000
__LcstackBANK3                                 cstackBANK3  000000
__LcstackBANK4                                 cstackBANK4  000000
__LcstackBANK6                                 cstackBANK6  000000
__LcstackCOMRAM                                cstackCOMRAM 000000
__Ldata                                        data         000000
__LdataBANK0                                   dataBANK0    000000
__LdataBANK1                                   dataBANK1    000000
__LdataBANK3                                   dataBANK3    000000
__LdataBANK4                                   dataBANK4    000000
__LdataBANK5                                   dataBANK5    000000
__Leeprom_data                                 eeprom_data  000000
__Lfarbss                                      farbss       000000
__Lfardata                                     fardata      000000
__Libigdata                                    ibigdata     000000
__Lidata                                       idata        000000
__LidataBANK0                                  idataBANK0   000000
__LidataBANK1                                  idataBANK1   000000
__LidataBANK3                                  idataBANK3   000000
__LidataBANK4                                  idataBANK4   000000
__LidataBANK5                                  idataBANK5   000000
__Lidloc                                       idloc        200000
__Lifardata                                    ifardata     000000
__Linit                                        init         0000EA
__Lintcode                                     intcode      000008
__Lintcode_body                                intcode_body 000000
__Lintcodelo                                   intcodelo    000018
__Lintentry                                    intentry     000000
__Lintret                                      intret       000000
__Lintsave_regs                                intsave_regs 000000
__Lirdata                                      irdata       000000
__Lmediumconst                                 mediumconst  00C932
__LnvBANK3                                     nvBANK3      000000
__LnvFARRAM                                    nvFARRAM     000000
__Lnvbit                                       nvbit        000000
__Lnvrram                                      nvrram       000000
__Lparam                                       rparam       000000
__Lpowerup                                     powerup      0000EA
__Lram                                         ram          000000
__Lramtop                                      ramtop       000E00
__Lrbit                                        rbit         000000
__Lrbss                                        rbss         000000
__Lrdata                                       rdata        000000
__Lreset_vec                                   reset_vec    000000
__Lrparam                                      rparam       000000
__Lsfr                                         sfr          000000
__Lsmallconst                                  smallconst   000000
__Lspace_0                                     (abs)        000000
__Lspace_1                                     (abs)        000000
__Lspace_2                                     (abs)        000000
__Lstack                                       stack        000000
__Lstruct                                      struct       000000
__Ltemp                                        temp         00005F
__Ltext                                        text         000000
__Ltext0                                       text0        000000
__Ltext1                                       text1        000000
__Ltext10                                      text10       000000
__Ltext100                                     text100      000000
__Ltext101                                     text101      000000
__Ltext102                                     text102      000000
__Ltext103                                     text103      000000
__Ltext104                                     text104      000000
__Ltext105                                     text105      000000
__Ltext106                                     text106      000000
__Ltext107                                     text107      000000
__Ltext108                                     text108      000000
__Ltext109                                     text109      000000
__Ltext11                                      text11       000000
__Ltext110                                     text110      000000
__Ltext111                                     text111      000000
__Ltext112                                     text112      000000
__Ltext113                                     text113      000000
__Ltext114                                     text114      000000
__Ltext115                                     text115      000000
__Ltext116                                     text116      000000
__Ltext117                                     text117      000000
__Ltext118                                     text118      000000
__Ltext119                                     text119      000000
__Ltext12                                      text12       000000
__Ltext120                                     text120      000000
__Ltext122                                     text122      000000
__Ltext123                                     text123      000000
__Ltext124                                     text124      000000
__Ltext125                                     text125      000000
__Ltext126                                     text126      000000
__Ltext127                                     text127      000000
__Ltext128                                     text128      000000
__Ltext129                                     text129      000000
__Ltext13                                      text13       000000
__Ltext130                                     text130      000000
__Ltext131                                     text131      000000
__Ltext132                                     text132      000000
__Ltext133                                     text133      000000
__Ltext134                                     text134      000000
__Ltext135                                     text135      000000
__Ltext136                                     text136      000000
__Ltext137                                     text137      000000
__Ltext138                                     text138      000000
__Ltext139                                     text139      000000
__Ltext14                                      text14       000000
__Ltext140                                     text140      000000
__Ltext141                                     text141      000000
__Ltext142                                     text142      000000
__Ltext143                                     text143      000000
__Ltext144                                     text144      000000
__Ltext145                                     text145      000000
__Ltext146                                     text146      000000
__Ltext147                                     text147      000000
__Ltext148                                     text148      000000
__Ltext149                                     text149      000000
__Ltext15                                      text15       000000
__Ltext150                                     text150      000000
__Ltext151                                     text151      000000
__Ltext152                                     text152      000000
__Ltext153                                     text153      000000
__Ltext154                                     text154      000000
__Ltext155                                     text155      000000
__Ltext156                                     text156      000000
__Ltext157                                     text157      000000
__Ltext158                                     text158      000000
__Ltext159                                     text159      000000
__Ltext16                                      text16       000000
__Ltext160                                     text160      000000
__Ltext161                                     text161      000000
__Ltext162                                     text162      000000
__Ltext163                                     text163      000000
__Ltext164                                     text164      000000
__Ltext165                                     text165      000000
__Ltext166                                     text166      000000
__Ltext167                                     text167      000000
__Ltext168                                     text168      000000
__Ltext169                                     text169      000000
__Ltext17                                      text17       000000
__Ltext170                                     text170      000000
__Ltext171                                     text171      000000
__Ltext172                                     text172      000000
__Ltext173                                     text173      000000
__Ltext174                                     text174      000000
__Ltext175                                     text175      000000
__Ltext176                                     text176      000000
__Ltext177                                     text177      000000
__Ltext178                                     text178      000000
__Ltext179                                     text179      000000
__Ltext18                                      text18       000000
__Ltext180                                     text180      000000
__Ltext181                                     text181      000000
__Ltext182                                     text182      000000
__Ltext183                                     text183      000000
__Ltext184                                     text184      000000
__Ltext185                                     text185      000000
__Ltext186                                     text186      000000
__Ltext187                                     text187      000000
__Ltext188                                     text188      000000
__Ltext189                                     text189      000000
__Ltext19                                      text19       000000
__Ltext190                                     text190      000000
__Ltext191                                     text191      000000
__Ltext192                                     text192      000000
__Ltext193                                     text193      000000
__Ltext194                                     text194      000000
__Ltext195                                     text195      000000
__Ltext196                                     text196      000000
__Ltext197                                     text197      000000
__Ltext198                                     text198      000000
__Ltext199                                     text199      000000
__Ltext2                                       text2        000000
__Ltext20                                      text20       000000
__Ltext200                                     text200      000000
__Ltext201                                     text201      000000
__Ltext202                                     text202      000000
__Ltext204                                     text204      000000
__Ltext205                                     text205      000000
__Ltext206                                     text206      000000
__Ltext207                                     text207      000000
__Ltext208                                     text208      000000
__Ltext209                                     text209      000000
__Ltext21                                      text21       000000
__Ltext210                                     text210      000000
__Ltext211                                     text211      000000
__Ltext212                                     text212      000000
__Ltext213                                     text213      000000
__Ltext214                                     text214      000000
__Ltext215                                     text215      000000
__Ltext216                                     text216      000000
__Ltext217                                     text217      000000
__Ltext218                                     text218      000000
__Ltext219                                     text219      000000
__Ltext22                                      text22       000000
__Ltext220                                     text220      000000
__Ltext221                                     text221      000000
__Ltext222                                     text222      000000
__Ltext223                                     text223      000000
__Ltext224                                     text224      000000
__Ltext225                                     text225      000000
__Ltext226                                     text226      000000
__Ltext227                                     text227      000000
__Ltext228                                     text228      000000
__Ltext229                                     text229      000000
__Ltext23                                      text23       000000
__Ltext230                                     text230      000000
__Ltext231                                     text231      000000
__Ltext232                                     text232      000000
__Ltext233                                     text233      000000
__Ltext234                                     text234      000000
__Ltext235                                     text235      000000
__Ltext236                                     text236      000000
__Ltext237                                     text237      000000
__Ltext238                                     text238      000000
__Ltext239                                     text239      000000
__Ltext24                                      text24       000000
__Ltext240                                     text240      000000
__Ltext241                                     text241      000000
__Ltext242                                     text242      000000
__Ltext243                                     text243      000000
__Ltext244                                     text244      000000
__Ltext245                                     text245      000000
__Ltext246                                     text246      000000
__Ltext247                                     text247      000000
__Ltext248                                     text248      000000
__Ltext249                                     text249      000000
__Ltext25                                      text25       000000
__Ltext250                                     text250      000000
__Ltext251                                     text251      000000
__Ltext252                                     text252      000000
__Ltext253                                     text253      000000
__Ltext254                                     text254      000000
__Ltext255                                     text255      000000
__Ltext256                                     text256      000000
__Ltext257                                     text257      000000
__Ltext258                                     text258      000000
__Ltext259                                     text259      000000
__Ltext26                                      text26       000000
__Ltext260                                     text260      000000
__Ltext261                                     text261      000000
__Ltext262                                     text262      000000
__Ltext263                                     text263      000000
__Ltext264                                     text264      000000
__Ltext265                                     text265      000000
__Ltext266                                     text266      000000
__Ltext267                                     text267      000000
__Ltext268                                     text268      000000
__Ltext269                                     text269      000000
__Ltext27                                      text27       000000
__Ltext270                                     text270      000000
__Ltext28                                      text28       000000
__Ltext29                                      text29       000000
__Ltext3                                       text3        000000
__Ltext30                                      text30       000000
__Ltext31                                      text31       000000
__Ltext32                                      text32       000000
__Ltext33                                      text33       000000
__Ltext34                                      text34       000000
__Ltext35                                      text35       000000
__Ltext36                                      text36       000000
__Ltext37                                      text37       000000
__Ltext38                                      text38       000000
__Ltext39                                      text39       000000
__Ltext4                                       text4        000000
__Ltext40                                      text40       000000
__Ltext41                                      text41       000000
__Ltext42                                      text42       000000
__Ltext43                                      text43       000000
__Ltext44                                      text44       000000
__Ltext45                                      text45       000000
__Ltext46                                      text46       000000
__Ltext47                                      text47       000000
__Ltext48                                      text48       000000
__Ltext49                                      text49       000000
__Ltext5                                       text5        000000
__Ltext50                                      text50       000000
__Ltext51                                      text51       000000
__Ltext52                                      text52       000000
__Ltext53                                      text53       000000
__Ltext54                                      text54       000000
__Ltext55                                      text55       000000
__Ltext56                                      text56       000000
__Ltext57                                      text57       000000
__Ltext58                                      text58       000000
__Ltext59                                      text59       000000
__Ltext6                                       text6        000000
__Ltext60                                      text60       000000
__Ltext61                                      text61       000000
__Ltext62                                      text62       000000
__Ltext63                                      text63       000000
__Ltext64                                      text64       000000
__Ltext65                                      text65       000000
__Ltext66                                      text66       000000
__Ltext67                                      text67       000000
__Ltext68                                      text68       000000
__Ltext69                                      text69       000000
__Ltext7                                       text7        000000
__Ltext70                                      text70       000000
__Ltext71                                      text71       000000
__Ltext72                                      text72       000000
__Ltext73                                      text73       000000
__Ltext74                                      text74       000000
__Ltext75                                      text75       000000
__Ltext76                                      text76       000000
__Ltext77                                      text77       000000
__Ltext78                                      text78       000000
__Ltext79                                      text79       000000
__Ltext8                                       text8        000000
__Ltext80                                      text80       000000
__Ltext81                                      text81       000000
__Ltext82                                      text82       000000
__Ltext83                                      text83       000000
__Ltext84                                      text84       000000
__Ltext85                                      text85       000000
__Ltext86                                      text86       000000
__Ltext87                                      text87       000000
__Ltext88                                      text88       000000
__Ltext89                                      text89       000000
__Ltext9                                       text9        000000
__Ltext90                                      text90       000000
__Ltext91                                      text91       000000
__Ltext92                                      text92       000000
__Ltext93                                      text93       000000
__Ltext94                                      text94       000000
__Ltext95                                      text95       000000
__Ltext96                                      text96       000000
__Ltext97                                      text97       000000
__Ltext98                                      text98       000000
__Ltext99                                      text99       000000
__S0                                           (abs)        30000C
__S1                                           (abs)        0006D9
__S2                                           (abs)        000000
___awdiv                                       text60       002ACE
___awdiv@counter                               cstackBANK3  00030A
___awdiv@dividend                              cstackBANK3  000306
___awdiv@divisor                               cstackBANK3  000308
___awdiv@quotient                              cstackBANK3  00030C
___awdiv@sign                                  cstackBANK3  00030B
___awmod                                       text59       003152
___awmod@counter                               cstackBANK3  000304
___awmod@dividend                              cstackBANK3  000300
___awmod@divisor                               cstackBANK3  000302
___awmod@sign                                  cstackBANK3  000305
___fladd                                       text69       01C50A
___fladd@a                                     cstackBANK3  000338
___fladd@aexp                                  cstackBANK3  000345
___fladd@b                                     cstackBANK3  000334
___fladd@bexp                                  cstackBANK3  000346
___fladd@grs                                   cstackBANK3  000347
___fladd@signs                                 cstackBANK3  000344
___fldiv                                       text71       01E8D4
___fldiv@a                                     cstackBANK3  00034C
___fldiv@aexp                                  cstackBANK3  000360
___fldiv@b                                     cstackBANK3  000348
___fldiv@bexp                                  cstackBANK3  00035F
___fldiv@grs                                   cstackBANK3  00035B
___fldiv@new_exp                               cstackBANK3  000359
___fldiv@rem                                   cstackBANK3  000355
___fldiv@sign                                  cstackBANK3  000354
___flge                                        text85       0010A4
___flge@ff1                                    cstackBANK3  000348
___flge@ff2                                    cstackBANK3  00034C
___flmul                                       text58       01BB16
___flmul@a                                     cstackBANK3  000365
___flmul@aexp                                  cstackBANK3  00036E
___flmul@b                                     cstackBANK3  000361
___flmul@bexp                                  cstackBANK3  000373
___flmul@grs                                   cstackBANK3  00036F
___flmul@prod                                  cstackBANK3  000374
___flmul@sign                                  cstackBANK3  00036D
___flmul@temp                                  cstackBANK3  000378
___flneg                                       text70       00472C
___flneg@f1                                    cstackBANK3  000330
___flsub                                       text68       003DEC
___flsub@a                                     cstackBANK3  00034C
___flsub@b                                     cstackBANK3  000348
___fltol                                       text67       001BFC
___fltol@exp1                                  cstackBANK3  000317
___fltol@f1                                    cstackBANK3  00030E
___fltol@sign1                                 cstackBANK3  000316
___ftdiv                                       text29       001A2C
___ftdiv@cntr                                  cstackBANK3  000314
___ftdiv@exp                                   cstackBANK3  000318
___ftdiv@f1                                    cstackBANK3  00030B
___ftdiv@f2                                    cstackBANK3  00030E
___ftdiv@f3                                    cstackBANK3  000315
___ftdiv@sign                                  cstackBANK3  000319
___ftpack                                      text30       002330
___ftpack@arg                                  cstackBANK3  000300
___ftpack@exp                                  cstackBANK3  000303
___ftpack@sign                                 cstackBANK3  000304
___inthi_sp                                    stack        000000
___intlo_sp                                    stack        000000
___lldiv                                       text66       002BDA
___lldiv@counter                               cstackBANK3  00030C
___lldiv@dividend                              cstackBANK3  000300
___lldiv@divisor                               cstackBANK3  000304
___lldiv@quotient                              cstackBANK3  000308
___llmod                                       text65       0034C8
___llmod@counter                               cstackBANK3  000315
___llmod@dividend                              cstackBANK3  00030D
___llmod@divisor                               cstackBANK3  000311
___lwtoft                                      text28       00491A
___lwtoft@c                                    cstackBANK3  000308
___param_bank                                  (abs)        000000
___rparam_used                                 (abs)        000001
___sp                                          stack        000000
___wmul                                        text64       00487A
___wmul@multiplicand                           cstackBANK3  000302
___wmul@multiplier                             cstackBANK3  000300
___wmul@product                                cstackBANK3  000304
___xxtofl                                      text63       000326
___xxtofl@arg                                  cstackBANK3  000322
___xxtofl@exp                                  cstackBANK3  000321
___xxtofl@sign                                 cstackBANK3  000320
___xxtofl@val                                  cstackBANK3  000318
__accesstop                                    (abs)        000060
__activetblptr                                 (abs)        000003
__div_to_l_                                    text62       000C04
__div_to_l_@cntr                               cstackBANK3  00030C
__div_to_l_@exp1                               cstackBANK3  00030D
__div_to_l_@f1                                 cstackBANK3  000300
__div_to_l_@f2                                 cstackBANK3  000304
__div_to_l_@quot                               cstackBANK3  000308
__doprnt                                       text52       012196
__doprnt$5842                                  cstackBANK3  000393
__doprnt@ap                                    cstackBANK3  00038B
__doprnt@c                                     cstackBANK3  0003B0
__doprnt@cp                                    cstackBANK3  000398
__doprnt@exp                                   cstackBANK3  0003A6
__doprnt@f                                     cstackBANK3  000389
__doprnt@flag                                  cstackBANK3  0003A8
__doprnt@fval                                  cstackBANK3  0003AA
__doprnt@idx                                   cstackBANK3  000397
__doprnt@len                                   cstackBANK3  00039A
__doprnt@pb                                    cstackBANK3  000387
__doprnt@prec                                  cstackBANK3  0003AE
__doprnt@tmpval                                cstackBANK3  00039C
__doprnt@val                                   cstackBANK3  0003A2
__doprnt@width                                 cstackBANK3  0003A0
__end_of_ADCC_ClearAccumulator                 text127      004F44
__end_of_ADCC_DefaultInterruptHandler          text244      004F8E
__end_of_ADCC_DischargeSampleCapacitor         text126      004F2A
__end_of_ADCC_GetConversionResult              text269      004D52
__end_of_ADCC_GetCurrentCountofConversions     text268      004F7E
__end_of_ADCC_GetFilterValue                   text267      004D3E
__end_of_ADCC_HasAccumulatorOverflowed         text266      004ED6
__end_of_ADCC_Initialize                       text113      003460
__end_of_ADCC_SetADTIInterruptHandler          text114      004EA0
__end_of_ADCC_StartConversion                  text125      004EAE
__end_of_ADCC_StopConversion                   text265      004F7A
__end_of_ADCC_ThresholdISR                     text243      00491A
__end_of_ADC_PostProcessingCallback            text245      01A190
__end_of_DATAEE_ReadByte                       text88       004C7C
__end_of_DATAEE_WriteByte                      text84       0042F4
__end_of_EUSART2_Initialize                    text110      003736
__end_of_EUSART2_Read                          text44       003BE2
__end_of_EUSART2_Receive_ISR                   text228      002694
__end_of_EUSART2_SetRxInterruptHandler         text112      004E92
__end_of_EUSART2_SetTxInterruptHandler         text111      004E84
__end_of_EUSART2_Transmit_ISR                  text227      00462E
__end_of_EUSART2_Write                         text55       003DEC
__end_of_EXT_INT_Initialize                    text108      004BBC
__end_of_FLASH_ReadByte                        text78       004C62
__end_of_FLASH_ReadWord                        text77       0040F4
__end_of_FVR_Initialize                        text107      004F1A
__end_of_HLVD_ISR                              text224      004278
__end_of_HLVD_Initialize                       text106      004DC8
__end_of_I2C1_BusCollisionISR                  text223      004F56
__end_of_I2C1_FunctionComplete                 text222      004CE4
__end_of_I2C1_ISR                              text220      01F86A
__end_of_I2C1_Initialize                       text105      0045F8
__end_of_I2C1_MasterTRBInsert                  text119      002736
__end_of_I2C1_MasterWrite                      text117      003B44
__end_of_I2C1_MasterWriteTRBBuild              text118      003FE2
__end_of_I2C1_Stop                             text221      004238
__end_of_I2C1_WaitForLastPacketToComplete      text120      004F22
__end_of_INT0_CallBack                         text215      004ADA
__end_of_INT0_DefaultInterruptHandler          text216      004F8C
__end_of_INT0_ISR                              text214      004F08
__end_of_INT0_SetInterruptHandler              text109      004E76
__end_of_INTERRUPT_Initialize                  text104      004B9E
__end_of_INTERRUPT_InterruptManagerHigh        intcode_body 0010A4
__end_of_INTERRUPT_InterruptManagerLow         intcodelo    0000EA
__end_of_OLED_Clear                            text41       0041B8
__end_of_OLED_Command                          text116      003598
__end_of_OLED_Init                             text115      0029B2
__end_of_OLED_PutChar                          text42       0020FE
__end_of_OLED_UpdateFromRAMBuffer              text38       00305E
__end_of_OLED_WriteString                      text40       003906
__end_of_OLED_YX                               text39       0043AC
__end_of_OLED_updateCallback                   text13       018BA8
__end_of_OSCILLATOR_Initialize                 text103      004C12
__end_of_OledFont                              mediumconst  00CCF1
__end_of_PIN_MANAGER_Initialize                text102      002038
__end_of_PMD_Initialize                        text101      004BF6
__end_of_SYSTEM_Initialize                     text90       004332
__end_of_TMR2_CallBack                         text133      004A92
__end_of_TMR2_Counter8BitSet                   text32       004EE0
__end_of_TMR2_DefaultInterruptHandler          text134      004F86
__end_of_TMR2_ISR                              text132      0049B2
__end_of_TMR2_Initialize                       text99       0047EC
__end_of_TMR2_Period8BitSet                    text37       004EEA
__end_of_TMR2_SetInterruptHandler              text100      004E68
__end_of_TMR2_Start                            text36       004F66
__end_of_TMR2_StartTimer                       text35       004F3E
__end_of_TMR2_Stop                             text34       004F62
__end_of_TMR2_StopTimer                        text33       004F38
__end_of_TMR2_WriteTimer                       text31       004E22
__end_of_TMR4_CallBack                         text209      004AB6
__end_of_TMR4_DefaultInterruptHandler          text210      004F8A
__end_of_TMR4_ISR                              text208      004A24
__end_of_TMR4_Initialize                       text97       0047BC
__end_of_TMR4_SetInterruptHandler              text98       004E5A
__end_of_TMR5_DefaultInterruptHandler          text205      004F88
__end_of_TMR5_ISR                              text204      0046CA
__end_of_TMR5_Initialize                       text95       003AF4
__end_of_TMR5_SetInterruptHandler              text96       004E4C
__end_of_TMR5_StartTimer                       text219      004F76
__end_of_TMR5_StopTimer                        text12       004F5E
__end_of_TMR5_WriteTimer                       text218      004C2E
__end_of_TMR6_DefaultInterruptHandler          text130      004F84
__end_of_TMR6_ISR                              text129      0048CA
__end_of_TMR6_Initialize                       text93       0046FC
__end_of_TMR6_SetInterruptHandler              text94       004E3E
__end_of_TMR7_DefaultInterruptHandler          text123      004F82
__end_of_TMR7_ISR                              text122      004696
__end_of_TMR7_Initialize                       text91       0039B2
__end_of_TMR7_SetInterruptHandler              text92       004E30
__end_of_TMR7_WriteTimer                       text128      00498C
__end_of_Total_Energy_address                  mediumconst  00C9F1
__end_of___awdiv                               text60       002B54
__end_of___awmod                               text59       0031C4
__end_of___fladd                               text69       01C848
__end_of___fldiv                               text71       01EB8A
__end_of___flge                                text85       0011C6
__end_of___flmul                               text58       01BE68
__end_of___flneg                               text70       00475C
__end_of___flsub                               text68       003E34
__end_of___fltol                               text67       001CDA
__end_of___ftdiv                               text29       001B14
__end_of___ftpack                              text30       0023E0
__end_of___lldiv                               text66       002C5E
__end_of___llmod                               text65       003530
__end_of___lwtoft                              text28       004940
__end_of___wmul                                text64       0048A2
__end_of___xxtofl                              text63       00047A
__end_of__div_to_l_                            text62       000D2E
__end_of__doprnt                               text52       0140D2
__end_of__initialization                       cinit        01FFF6
__end_of__npowers_                             mediumconst  00C99B
__end_of__powers_                              mediumconst  00C967
__end_of__tdiv_to_l_                           text61       00099E
__end_of_acos                                  text22       0032A6
__end_of_acquisitionTimerCallback              text124      004D76
__end_of_asin                                  text23       01D1D4
__end_of_atan                                  text25       01FCEC
__end_of_atoi                                  text11       001F6C
__end_of_clearADCErrors                        text10       004AFC
__end_of_clearCOMMErrors                       text9        004E14
__end_of_currentMeasuredToPeak                 text252      002FE4
__end_of_dimmingOffTimeCallback                text217      004CCA
__end_of_dimmingOnTimeCallback                 text206      004CB0
__end_of_dpowers                               mediumconst  00C9C3
__end_of_eval_poly                             text27       001736
__end_of_fabs                                  text26       0042B6
__end_of_floor                                 text259      001636
__end_of_frexp                                 text20       002EEA
__end_of_fround                                text57       01E34A
__end_of_getADCError                           text81       004662
__end_of_getCOMMError                          text80       004D2A
__end_of_getCauseOfReset                       text89       003856
__end_of_getCauseOfResetString                 text79       00478C
__end_of_getCauseOfResetStringSmall            text21       00472C
__end_of_getDeviceID                           text76       004B60
__end_of_getDeviceIDString                     text75       0037FC
__end_of_getMajorRevisionID                    text74       004424
__end_of_getMinorRevisionID                    text73       004966
__end_of_getUserID                             text72       0040B2
__end_of_heartbeatTimerCallback                text131      004136
__end_of_hexpowers                             mediumconst  00C9E3
__end_of_isdigit                               text56       004B1E
__end_of_main                                  text0        001A2C
__end_of_max_FVR_ADC_Result_address            mediumconst  00C9E5
__end_of_max_Irms_address                      mediumconst  00C9EF
__end_of_max_POS12_ADC_Result_address          mediumconst  00C9E9
__end_of_max_POS3P3_ADC_Result_address         mediumconst  00C9EB
__end_of_max_Power_address                     mediumconst  00C9ED
__end_of_max_Temp_ADC_Result_address           mediumconst  00C9E7
__end_of_memmove                               text43       00253E
__end_of_peakToRMS                             text246      01FAB4
__end_of_printf                                text51       0043E8
__end_of_putch                                 text54       004C48
__end_of_readDoubleFromEEPROM                  text87       003A04
__end_of_recoverSRAMMaxFromEEPROM              text86       00086A
__end_of_ringBufferLUT                         text3        012196
__end_of_round                                 text18       00227A
__end_of_saveSRAMMaxToEEPROM                   text82       01F60A
__end_of_scale                                 text53       01AB22
__end_of_sin                                   text253      01DAF4
__end_of_sprintf                               text17       003DA4
__end_of_sqrt                                  text24       01DDBC
__end_of_strcat                                text49       003C7C
__end_of_strchr                                text7        0045C2
__end_of_strcmp                                text8        003A54
__end_of_strcpy                                text16       003D5C
__end_of_strlen                                text6        0038AE
__end_of_strncmp                               text5        002A42
__end_of_strncpy                               text48       0034C8
__end_of_strstr                                text4        002ACE
__end_of_terminal_clearTerminal                text15       004DA8
__end_of_terminal_printNewline                 text50       004DB8
__end_of_terminal_printResetMessage            text45       01A67E
__end_of_terminal_ringBufferPull               text2        001522
__end_of_terminal_setCursorHome                text14       004D98
__end_of_terminal_textAttributes               text47       01B7AE
__end_of_terminal_textAttributesReset          text46       004D64
__end_of_trunc                                 text19       002878
__end_of_updateErrorLEDs                       text1        004CFC
__end_of_writeDoubleToEEPROM                   text83       003AA4
__end_of_writeEnergyToEEPROMCallback           text211      002D66
__end_ofatan@coeff_a                           mediumconst  00CD09
__end_ofatan@coeff_b                           mediumconst  00CD31
__end_ofi1_EUSART2_Write                       text149      003F0C
__end_ofi1_FLASH_ReadByte                      text169      004C96
__end_ofi1_FLASH_ReadWord                      text168      004178
__end_ofi1_I2C1_MasterTRBInsert                text201      0027D8
__end_ofi1_I2C1_MasterWrite                    text199      003B94
__end_ofi1_I2C1_MasterWriteTRBBuild            text200      004028
__end_ofi1_I2C1_WaitForLastPacketToComplete    text202      004F32
__end_ofi1_OLED_Clear                          text196      0041F8
__end_ofi1_OLED_Command                        text194      0036D0
__end_ofi1_OLED_PutChar                        text197      0021C4
__end_ofi1_OLED_UpdateFromRAMBuffer            text192      0030D8
__end_ofi1_OLED_WriteString                    text195      00395E
__end_ofi1_OLED_YX                             text193      0044D8
__end_ofi1_OLED_updateCallback                 text135      01981E
__end_ofi1_TMR2_Counter8BitSet                 text186      004EF4
__end_ofi1_TMR2_Period8BitSet                  text191      004EFE
__end_ofi1_TMR2_Start                          text190      004F6E
__end_ofi1_TMR2_StartTimer                     text189      004F50
__end_ofi1_TMR2_Stop                           text188      004F6A
__end_ofi1_TMR2_StopTimer                      text187      004F4A
__end_ofi1_TMR2_WriteTimer                     text185      004ECA
__end_ofi1___awdiv                             text153      002BDA
__end_ofi1___awmod                             text152      003236
__end_ofi1___fladd                             text179      01CB86
__end_ofi1___fldiv                             text181      01EE40
__end_ofi1___flge                              text180      0012E8
__end_ofi1___flmul                             text178      01C1BA
__end_ofi1___flneg                             text176      00484C
__end_ofi1___flsub                             text159      003F54
__end_ofi1___fltol                             text164      001DB8
__end_ofi1___ftdiv                             text183      001BFC
__end_ofi1___ftpack                            text184      002490
__end_ofi1___lldiv                             text158      002CE2
__end_ofi1___llmod                             text157      003668
__end_ofi1___lwtoft                            text182      0049FE
__end_ofi1___wmul                              text156      0048F2
__end_ofi1___xxtofl                            text163      0005CE
__end_ofi1__div_to_l_                          text155      000E58
__end_ofi1__doprnt                             text146      01600E
__end_ofi1__tdiv_to_l_                         text154      000AD2
__end_ofi1_acos                                text171      003316
__end_ofi1_asin                                text172      01D4E4
__end_ofi1_atan                                text174      01FF24
__end_ofi1_eval_poly                           text177      001836
__end_ofi1_fabs                                text175      004370
__end_ofi1_frexp                               text162      002F68
__end_ofi1_fround                              text151      01E610
__end_ofi1_getCauseOfResetStringSmall          text170      00481C
__end_ofi1_getDeviceID                         text167      004B80
__end_ofi1_getMajorRevisionID                  text166      00449C
__end_ofi1_getMinorRevisionID                  text165      0049D8
__end_ofi1_isdigit                             text150      004B40
__end_ofi1_memmove                             text198      0025EC
__end_ofi1_printf                              text143      004460
__end_ofi1_putch                               text148      004EBC
__end_ofi1_round                               text160      002330
__end_ofi1_scale                               text147      01AFC6
__end_ofi1_sprintf                             text145      003EC4
__end_ofi1_sqrt                                text173      01E084
__end_ofi1_strcat                              text139      003CC8
__end_ofi1_strcpy                              text144      003E7C
__end_ofi1_strncpy                             text138      003600
__end_ofi1_terminal_clearTerminal              text142      004DF8
__end_ofi1_terminal_printNewline               text141      004DE8
__end_ofi1_terminal_setCursorHome              text140      004DD8
__end_ofi1_terminal_textAttributes             text137      01BB16
__end_ofi1_terminal_textAttributesReset        text136      004D88
__end_ofi1_trunc                               text161      002918
__end_ofi2_DATAEE_ReadByte                     text213      004D14
__end_ofi2_DATAEE_WriteByte                    text226      00458A
__end_ofi2_EUSART2_Write                       text233      00406E
__end_ofi2_TMR5_StopTimer                      text207      004F72
__end_ofi2___awdiv                             text237      002DEA
__end_ofi2___awmod                             text236      003386
__end_ofi2___fladd                             text264      01CEC4
__end_ofi2___fldiv                             text258      01F0F6
__end_ofi2___flge                              text263      00140A
__end_ofi2___flmul                             text255      01C50A
__end_ofi2___flneg                             text257      00487A
__end_ofi2___flsub                             text256      003F9C
__end_ofi2___fltol                             text262      001E94
__end_ofi2___lldiv                             text242      002E6C
__end_ofi2___llmod                             text241      00379C
__end_ofi2___wmul                              text240      004A4A
__end_ofi2___xxtofl                            text261      00071E
__end_ofi2__div_to_l_                          text239      000F80
__end_ofi2__doprnt                             text230      017F2E
__end_ofi2__tdiv_to_l_                         text238      000C04
__end_ofi2_acos                                text247      0033F6
__end_ofi2_asin                                text248      01D7F4
__end_ofi2_atan                                text250      000326
__end_ofi2_eval_poly                           text254      001936
__end_ofi2_fabs                                text251      004550
__end_ofi2_frexp                               text260      003152
__end_ofi2_fround                              text235      01F3A4
__end_ofi2_isdigit                             text234      004BDA
__end_ofi2_printf                              text229      004514
__end_ofi2_putch                               text232      004F12
__end_ofi2_readDoubleFromEEPROM                text212      003C30
__end_ofi2_scale                               text231      01B446
__end_ofi2_sqrt                                text249      01E8D4
__end_ofi2_writeDoubleToEEPROM                 text225      003D14
__end_ofsin@coeff_a                            mediumconst  00CD1D
__end_ofsin@coeff_b                            mediumconst  00CD41
__initialization                               cinit        01FF24
__mediumconst                                  mediumconst  00C932
__npowers_                                     mediumconst  00C967
__pbitbssCOMRAM                                bitbssCOMRAM 0002E8
__pbssBANK0                                    bssBANK0     0000FF
__pbssBANK1                                    bssBANK1     0001F0
__pbssBANK2                                    bssBANK2     000259
__pbssBANK3                                    bssBANK3     0003F1
__pbssBANK4                                    bssBANK4     000400
__pbssBANK5                                    bssBANK5     000500
__pbssBANK6                                    bssBANK6     000600
__pbssCOMRAM                                   bssCOMRAM    00005E
__pcinit                                       cinit        01FF24
__pcstackBANK0                                 cstackBANK0  000060
__pcstackBANK1                                 cstackBANK1  000100
__pcstackBANK2                                 cstackBANK2  000200
__pcstackBANK3                                 cstackBANK3  000300
__pcstackBANK4                                 cstackBANK4  00049F
__pcstackBANK6                                 cstackBANK6  000680
__pcstackCOMRAM                                cstackCOMRAM 000001
__pdataBANK0                                   dataBANK0    0000FD
__pdataBANK1                                   dataBANK1    0001FF
__pdataBANK3                                   dataBANK3    0003EC
__pdataBANK4                                   dataBANK4    0004E9
__pdataBANK5                                   dataBANK5    0005C4
__pidataBANK0                                  idataBANK0   004F7E
__pidataBANK1                                  idataBANK1   004F8E
__pidataBANK3                                  idataBANK3   004F56
__pidataBANK4                                  idataBANK4   004DF8
__pidataBANK5                                  idataBANK5   004A4A
__pintcode                                     intcode      000008
__pintcode_body                                intcode_body 000F80
__pintcodelo                                   intcodelo    000018
__pmediumconst                                 mediumconst  00C932
__pnvBANK3                                     nvBANK3      0003F0
__powers_                                      mediumconst  00C933
__ptext0                                       text0        001936
__ptext1                                       text1        004CE4
__ptext10                                      text10       004ADA
__ptext100                                     text100      004E5A
__ptext101                                     text101      004BDA
__ptext102                                     text102      001F6C
__ptext103                                     text103      004BF6
__ptext104                                     text104      004B80
__ptext105                                     text105      0045C2
__ptext106                                     text106      004DB8
__ptext107                                     text107      004F12
__ptext108                                     text108      004B9E
__ptext109                                     text109      004E68
__ptext11                                      text11       001E94
__ptext110                                     text110      0036D0
__ptext111                                     text111      004E76
__ptext112                                     text112      004E84
__ptext113                                     text113      0033F6
__ptext114                                     text114      004E92
__ptext115                                     text115      002918
__ptext116                                     text116      003530
__ptext117                                     text117      003AF4
__ptext118                                     text118      003F9C
__ptext119                                     text119      002694
__ptext12                                      text12       004F5A
__ptext120                                     text120      004F1A
__ptext122                                     text122      004662
__ptext123                                     text123      004F80
__ptext124                                     text124      004D64
__ptext125                                     text125      004EA0
__ptext126                                     text126      004F22
__ptext127                                     text127      004F3E
__ptext128                                     text128      004966
__ptext129                                     text129      0048A2
__ptext13                                      text13       017F2E
__ptext130                                     text130      004F82
__ptext131                                     text131      0040F4
__ptext132                                     text132      00498C
__ptext133                                     text133      004A6E
__ptext134                                     text134      004F84
__ptext135                                     text135      018BA8
__ptext136                                     text136      004D76
__ptext137                                     text137      01B7AE
__ptext138                                     text138      003598
__ptext139                                     text139      003C7C
__ptext14                                      text14       004D88
__ptext140                                     text140      004DC8
__ptext141                                     text141      004DD8
__ptext142                                     text142      004DE8
__ptext143                                     text143      004424
__ptext144                                     text144      003E34
__ptext145                                     text145      003E7C
__ptext146                                     text146      0140D2
__ptext147                                     text147      01AB22
__ptext148                                     text148      004EAE
__ptext149                                     text149      003EC4
__ptext15                                      text15       004D98
__ptext150                                     text150      004B1E
__ptext151                                     text151      01E34A
__ptext152                                     text152      0031C4
__ptext153                                     text153      002B54
__ptext154                                     text154      00099E
__ptext155                                     text155      000D2E
__ptext156                                     text156      0048CA
__ptext157                                     text157      003600
__ptext158                                     text158      002C5E
__ptext159                                     text159      003F0C
__ptext16                                      text16       003D14
__ptext160                                     text160      00227A
__ptext161                                     text161      002878
__ptext162                                     text162      002EEA
__ptext163                                     text163      00047A
__ptext164                                     text164      001CDA
__ptext165                                     text165      0049B2
__ptext166                                     text166      004460
__ptext167                                     text167      004B60
__ptext168                                     text168      004136
__ptext169                                     text169      004C7C
__ptext17                                      text17       003D5C
__ptext170                                     text170      0047EC
__ptext171                                     text171      0032A6
__ptext172                                     text172      01D1D4
__ptext173                                     text173      01DDBC
__ptext174                                     text174      01FCEC
__ptext175                                     text175      004332
__ptext176                                     text176      00481C
__ptext177                                     text177      001736
__ptext178                                     text178      01BE68
__ptext179                                     text179      01C848
__ptext18                                      text18       0021C4
__ptext180                                     text180      0011C6
__ptext181                                     text181      01EB8A
__ptext182                                     text182      0049D8
__ptext183                                     text183      001B14
__ptext184                                     text184      0023E0
__ptext185                                     text185      004EBC
__ptext186                                     text186      004EEA
__ptext187                                     text187      004F44
__ptext188                                     text188      004F66
__ptext189                                     text189      004F4A
__ptext19                                      text19       0027D8
__ptext190                                     text190      004F6A
__ptext191                                     text191      004EF4
__ptext192                                     text192      00305E
__ptext193                                     text193      00449C
__ptext194                                     text194      003668
__ptext195                                     text195      003906
__ptext196                                     text196      0041B8
__ptext197                                     text197      0020FE
__ptext198                                     text198      00253E
__ptext199                                     text199      003B44
__ptext2                                       text2        00140A
__ptext20                                      text20       002E6C
__ptext200                                     text200      003FE2
__ptext201                                     text201      002736
__ptext202                                     text202      004F2A
__ptext204                                     text204      004696
__ptext205                                     text205      004F86
__ptext206                                     text206      004C96
__ptext207                                     text207      004F6E
__ptext208                                     text208      0049FE
__ptext209                                     text209      004A92
__ptext21                                      text21       0046FC
__ptext210                                     text210      004F88
__ptext211                                     text211      002CE2
__ptext212                                     text212      003BE2
__ptext213                                     text213      004CFC
__ptext214                                     text214      004EFE
__ptext215                                     text215      004AB6
__ptext216                                     text216      004F8A
__ptext217                                     text217      004CB0
__ptext218                                     text218      004C12
__ptext219                                     text219      004F72
__ptext22                                      text22       003236
__ptext220                                     text220      01F60A
__ptext221                                     text221      0041F8
__ptext222                                     text222      004CCA
__ptext223                                     text223      004F50
__ptext224                                     text224      004238
__ptext225                                     text225      003CC8
__ptext226                                     text226      004550
__ptext227                                     text227      0045F8
__ptext228                                     text228      0025EC
__ptext229                                     text229      0044D8
__ptext23                                      text23       01CEC4
__ptext230                                     text230      01600E
__ptext231                                     text231      01AFC6
__ptext232                                     text232      004F08
__ptext233                                     text233      004028
__ptext234                                     text234      004BBC
__ptext235                                     text235      01F0F6
__ptext236                                     text236      003316
__ptext237                                     text237      002D66
__ptext238                                     text238      000AD2
__ptext239                                     text239      000E58
__ptext24                                      text24       01DAF4
__ptext240                                     text240      004A24
__ptext241                                     text241      003736
__ptext242                                     text242      002DEA
__ptext243                                     text243      0048F2
__ptext244                                     text244      004F8C
__ptext245                                     text245      01981E
__ptext246                                     text246      01F86A
__ptext247                                     text247      003386
__ptext248                                     text248      01D4E4
__ptext249                                     text249      01E610
__ptext25                                      text25       01FAB4
__ptext250                                     text250      0000EE
__ptext251                                     text251      004514
__ptext252                                     text252      002F68
__ptext253                                     text253      01D7F4
__ptext254                                     text254      001836
__ptext255                                     text255      01C1BA
__ptext256                                     text256      003F54
__ptext257                                     text257      00484C
__ptext258                                     text258      01EE40
__ptext259                                     text259      001522
__ptext26                                      text26       004278
__ptext260                                     text260      0030D8
__ptext261                                     text261      0005CE
__ptext262                                     text262      001DB8
__ptext263                                     text263      0012E8
__ptext264                                     text264      01CB86
__ptext265                                     text265      004F76
__ptext266                                     text266      004ECA
__ptext267                                     text267      004D2A
__ptext268                                     text268      004F7A
__ptext269                                     text269      004D3E
__ptext27                                      text27       001636
__ptext270                                     text270      000000
__ptext28                                      text28       00491A
__ptext29                                      text29       001A2C
__ptext3                                       text3        010000
__ptext30                                      text30       002330
__ptext31                                      text31       004E14
__ptext32                                      text32       004ED6
__ptext33                                      text33       004F32
__ptext34                                      text34       004F5E
__ptext35                                      text35       004F38
__ptext36                                      text36       004F62
__ptext37                                      text37       004EE0
__ptext38                                      text38       002FE4
__ptext39                                      text39       004370
__ptext4                                       text4        002A42
__ptext40                                      text40       0038AE
__ptext41                                      text41       004178
__ptext42                                      text42       002038
__ptext43                                      text43       002490
__ptext44                                      text44       003B94
__ptext45                                      text45       01A190
__ptext46                                      text46       004D52
__ptext47                                      text47       01B446
__ptext48                                      text48       003460
__ptext49                                      text49       003C30
__ptext5                                       text5        0029B2
__ptext50                                      text50       004DA8
__ptext51                                      text51       0043AC
__ptext52                                      text52       012196
__ptext53                                      text53       01A67E
__ptext54                                      text54       004C2E
__ptext55                                      text55       003DA4
__ptext56                                      text56       004AFC
__ptext57                                      text57       01E084
__ptext58                                      text58       01BB16
__ptext59                                      text59       003152
__ptext6                                       text6        003856
__ptext60                                      text60       002ACE
__ptext61                                      text61       00086A
__ptext62                                      text62       000C04
__ptext63                                      text63       000326
__ptext64                                      text64       00487A
__ptext65                                      text65       0034C8
__ptext66                                      text66       002BDA
__ptext67                                      text67       001BFC
__ptext68                                      text68       003DEC
__ptext69                                      text69       01C50A
__ptext7                                       text7        00458A
__ptext70                                      text70       00472C
__ptext71                                      text71       01E8D4
__ptext72                                      text72       00406E
__ptext73                                      text73       004940
__ptext74                                      text74       0043E8
__ptext75                                      text75       00379C
__ptext76                                      text76       004B40
__ptext77                                      text77       0040B2
__ptext78                                      text78       004C48
__ptext79                                      text79       00475C
__ptext8                                       text8        003A04
__ptext80                                      text80       004D14
__ptext81                                      text81       00462E
__ptext82                                      text82       01F3A4
__ptext83                                      text83       003A54
__ptext84                                      text84       0042B6
__ptext85                                      text85       0010A4
__ptext86                                      text86       00071E
__ptext87                                      text87       0039B2
__ptext88                                      text88       004C62
__ptext89                                      text89       0037FC
__ptext9                                       text9        004E06
__ptext90                                      text90       0042F4
__ptext91                                      text91       00395E
__ptext92                                      text92       004E22
__ptext93                                      text93       0046CA
__ptext94                                      text94       004E30
__ptext95                                      text95       003AA4
__ptext96                                      text96       004E3E
__ptext97                                      text97       00478C
__ptext98                                      text98       004E4C
__ptext99                                      text99       0047BC
__ramtop                                       ramtop       000E00
__size_of_ADCC_ClearAccumulator                (abs)        000000
__size_of_ADCC_DefaultInterruptHandler         (abs)        000000
__size_of_ADCC_DischargeSampleCapacitor        (abs)        000000
__size_of_ADCC_GetConversionResult             (abs)        000000
__size_of_ADCC_GetCurrentCountofConversions    (abs)        000000
__size_of_ADCC_GetFilterValue                  (abs)        000000
__size_of_ADCC_HasAccumulatorOverflowed        (abs)        000000
__size_of_ADCC_Initialize                      (abs)        000000
__size_of_ADCC_SetADTIInterruptHandler         (abs)        000000
__size_of_ADCC_StartConversion                 (abs)        000000
__size_of_ADCC_StopConversion                  (abs)        000000
__size_of_ADCC_ThresholdISR                    (abs)        000000
__size_of_ADC_PostProcessingCallback           (abs)        000000
__size_of_DATAEE_ReadByte                      (abs)        000000
__size_of_DATAEE_WriteByte                     (abs)        000000
__size_of_EUSART2_Initialize                   (abs)        000000
__size_of_EUSART2_Read                         (abs)        000000
__size_of_EUSART2_Receive_ISR                  (abs)        000000
__size_of_EUSART2_SetRxInterruptHandler        (abs)        000000
__size_of_EUSART2_SetTxInterruptHandler        (abs)        000000
__size_of_EUSART2_Transmit_ISR                 (abs)        000000
__size_of_EUSART2_Write                        (abs)        000000
__size_of_EXT_INT_Initialize                   (abs)        000000
__size_of_FLASH_ReadByte                       (abs)        000000
__size_of_FLASH_ReadWord                       (abs)        000000
__size_of_FVR_Initialize                       (abs)        000000
__size_of_HLVD_ISR                             (abs)        000000
__size_of_HLVD_Initialize                      (abs)        000000
__size_of_I2C1_BusCollisionISR                 (abs)        000000
__size_of_I2C1_FunctionComplete                (abs)        000000
__size_of_I2C1_ISR                             (abs)        000000
__size_of_I2C1_Initialize                      (abs)        000000
__size_of_I2C1_MasterTRBInsert                 (abs)        000000
__size_of_I2C1_MasterWrite                     (abs)        000000
__size_of_I2C1_MasterWriteTRBBuild             (abs)        000000
__size_of_I2C1_Stop                            (abs)        000000
__size_of_I2C1_WaitForLastPacketToComplete     (abs)        000000
__size_of_INT0_CallBack                        (abs)        000000
__size_of_INT0_DefaultInterruptHandler         (abs)        000000
__size_of_INT0_ISR                             (abs)        000000
__size_of_INT0_SetInterruptHandler             (abs)        000000
__size_of_INTERRUPT_Initialize                 (abs)        000000
__size_of_INTERRUPT_InterruptManagerHigh       (abs)        000000
__size_of_INTERRUPT_InterruptManagerLow        (abs)        000000
__size_of_OLED_Clear                           (abs)        000000
__size_of_OLED_Command                         (abs)        000000
__size_of_OLED_Init                            (abs)        000000
__size_of_OLED_PutChar                         (abs)        000000
__size_of_OLED_UpdateFromRAMBuffer             (abs)        000000
__size_of_OLED_WriteString                     (abs)        000000
__size_of_OLED_YX                              (abs)        000000
__size_of_OLED_updateCallback                  (abs)        000000
__size_of_OSCILLATOR_Initialize                (abs)        000000
__size_of_PIN_MANAGER_Initialize               (abs)        000000
__size_of_PMD_Initialize                       (abs)        000000
__size_of_SYSTEM_Initialize                    (abs)        000000
__size_of_TMR2_CallBack                        (abs)        000000
__size_of_TMR2_Counter8BitSet                  (abs)        000000
__size_of_TMR2_DefaultInterruptHandler         (abs)        000000
__size_of_TMR2_ISR                             (abs)        000000
__size_of_TMR2_Initialize                      (abs)        000000
__size_of_TMR2_Period8BitSet                   (abs)        000000
__size_of_TMR2_SetInterruptHandler             (abs)        000000
__size_of_TMR2_Start                           (abs)        000000
__size_of_TMR2_StartTimer                      (abs)        000000
__size_of_TMR2_Stop                            (abs)        000000
__size_of_TMR2_StopTimer                       (abs)        000000
__size_of_TMR2_WriteTimer                      (abs)        000000
__size_of_TMR4_CallBack                        (abs)        000000
__size_of_TMR4_DefaultInterruptHandler         (abs)        000000
__size_of_TMR4_ISR                             (abs)        000000
__size_of_TMR4_Initialize                      (abs)        000000
__size_of_TMR4_SetInterruptHandler             (abs)        000000
__size_of_TMR5_DefaultInterruptHandler         (abs)        000000
__size_of_TMR5_ISR                             (abs)        000000
__size_of_TMR5_Initialize                      (abs)        000000
__size_of_TMR5_SetInterruptHandler             (abs)        000000
__size_of_TMR5_StartTimer                      (abs)        000000
__size_of_TMR5_StopTimer                       (abs)        000000
__size_of_TMR5_WriteTimer                      (abs)        000000
__size_of_TMR6_DefaultInterruptHandler         (abs)        000000
__size_of_TMR6_ISR                             (abs)        000000
__size_of_TMR6_Initialize                      (abs)        000000
__size_of_TMR6_SetInterruptHandler             (abs)        000000
__size_of_TMR7_DefaultInterruptHandler         (abs)        000000
__size_of_TMR7_ISR                             (abs)        000000
__size_of_TMR7_Initialize                      (abs)        000000
__size_of_TMR7_SetInterruptHandler             (abs)        000000
__size_of_TMR7_WriteTimer                      (abs)        000000
__size_of___awdiv                              (abs)        000000
__size_of___awmod                              (abs)        000000
__size_of___fladd                              (abs)        000000
__size_of___fldiv                              (abs)        000000
__size_of___flge                               (abs)        000000
__size_of___flmul                              (abs)        000000
__size_of___flneg                              (abs)        000000
__size_of___flsub                              (abs)        000000
__size_of___fltol                              (abs)        000000
__size_of___ftdiv                              (abs)        000000
__size_of___ftpack                             (abs)        000000
__size_of___lldiv                              (abs)        000000
__size_of___llmod                              (abs)        000000
__size_of___lwtoft                             (abs)        000000
__size_of___wmul                               (abs)        000000
__size_of___xxtofl                             (abs)        000000
__size_of__div_to_l_                           (abs)        000000
__size_of__doprnt                              (abs)        000000
__size_of__tdiv_to_l_                          (abs)        000000
__size_of_acos                                 (abs)        000000
__size_of_acquisitionTimerCallback             (abs)        000000
__size_of_asin                                 (abs)        000000
__size_of_atan                                 (abs)        000000
__size_of_atoi                                 (abs)        000000
__size_of_clearADCErrors                       (abs)        000000
__size_of_clearCOMMErrors                      (abs)        000000
__size_of_currentMeasuredToPeak                (abs)        000000
__size_of_dimmingOffTimeCallback               (abs)        000000
__size_of_dimmingOnTimeCallback                (abs)        000000
__size_of_eval_poly                            (abs)        000000
__size_of_fabs                                 (abs)        000000
__size_of_floor                                (abs)        000000
__size_of_frexp                                (abs)        000000
__size_of_fround                               (abs)        000000
__size_of_getADCError                          (abs)        000000
__size_of_getCOMMError                         (abs)        000000
__size_of_getCauseOfReset                      (abs)        000000
__size_of_getCauseOfResetString                (abs)        000000
__size_of_getCauseOfResetStringSmall           (abs)        000000
__size_of_getDeviceID                          (abs)        000000
__size_of_getDeviceIDString                    (abs)        000000
__size_of_getMajorRevisionID                   (abs)        000000
__size_of_getMinorRevisionID                   (abs)        000000
__size_of_getUserID                            (abs)        000000
__size_of_heartbeatTimerCallback               (abs)        000000
__size_of_isdigit                              (abs)        000000
__size_of_main                                 (abs)        000000
__size_of_memmove                              (abs)        000000
__size_of_peakToRMS                            (abs)        000000
__size_of_printf                               (abs)        000000
__size_of_putch                                (abs)        000000
__size_of_readDoubleFromEEPROM                 (abs)        000000
__size_of_recoverSRAMMaxFromEEPROM             (abs)        000000
__size_of_ringBufferLUT                        (abs)        000000
__size_of_round                                (abs)        000000
__size_of_saveSRAMMaxToEEPROM                  (abs)        000000
__size_of_scale                                (abs)        000000
__size_of_sin                                  (abs)        000000
__size_of_sprintf                              (abs)        000000
__size_of_sqrt                                 (abs)        000000
__size_of_strcat                               (abs)        000000
__size_of_strchr                               (abs)        000000
__size_of_strcmp                               (abs)        000000
__size_of_strcpy                               (abs)        000000
__size_of_strlen                               (abs)        000000
__size_of_strncmp                              (abs)        000000
__size_of_strncpy                              (abs)        000000
__size_of_strstr                               (abs)        000000
__size_of_terminal_clearTerminal               (abs)        000000
__size_of_terminal_printNewline                (abs)        000000
__size_of_terminal_printResetMessage           (abs)        000000
__size_of_terminal_ringBufferPull              (abs)        000000
__size_of_terminal_setCursorHome               (abs)        000000
__size_of_terminal_textAttributes              (abs)        000000
__size_of_terminal_textAttributesReset         (abs)        000000
__size_of_trunc                                (abs)        000000
__size_of_updateErrorLEDs                      (abs)        000000
__size_of_writeDoubleToEEPROM                  (abs)        000000
__size_of_writeEnergyToEEPROMCallback          (abs)        000000
__size_ofi1_EUSART2_Write                      (abs)        000000
__size_ofi1_FLASH_ReadByte                     (abs)        000000
__size_ofi1_FLASH_ReadWord                     (abs)        000000
__size_ofi1_I2C1_MasterTRBInsert               (abs)        000000
__size_ofi1_I2C1_MasterWrite                   (abs)        000000
__size_ofi1_I2C1_MasterWriteTRBBuild           (abs)        000000
__size_ofi1_I2C1_WaitForLastPacketToComplete   (abs)        000000
__size_ofi1_OLED_Clear                         (abs)        000000
__size_ofi1_OLED_Command                       (abs)        000000
__size_ofi1_OLED_PutChar                       (abs)        000000
__size_ofi1_OLED_UpdateFromRAMBuffer           (abs)        000000
__size_ofi1_OLED_WriteString                   (abs)        000000
__size_ofi1_OLED_YX                            (abs)        000000
__size_ofi1_OLED_updateCallback                (abs)        000000
__size_ofi1_TMR2_Counter8BitSet                (abs)        000000
__size_ofi1_TMR2_Period8BitSet                 (abs)        000000
__size_ofi1_TMR2_Start                         (abs)        000000
__size_ofi1_TMR2_StartTimer                    (abs)        000000
__size_ofi1_TMR2_Stop                          (abs)        000000
__size_ofi1_TMR2_StopTimer                     (abs)        000000
__size_ofi1_TMR2_WriteTimer                    (abs)        000000
__size_ofi1___awdiv                            (abs)        000000
__size_ofi1___awmod                            (abs)        000000
__size_ofi1___fladd                            (abs)        000000
__size_ofi1___fldiv                            (abs)        000000
__size_ofi1___flge                             (abs)        000000
__size_ofi1___flmul                            (abs)        000000
__size_ofi1___flneg                            (abs)        000000
__size_ofi1___flsub                            (abs)        000000
__size_ofi1___fltol                            (abs)        000000
__size_ofi1___ftdiv                            (abs)        000000
__size_ofi1___ftpack                           (abs)        000000
__size_ofi1___lldiv                            (abs)        000000
__size_ofi1___llmod                            (abs)        000000
__size_ofi1___lwtoft                           (abs)        000000
__size_ofi1___wmul                             (abs)        000000
__size_ofi1___xxtofl                           (abs)        000000
__size_ofi1__div_to_l_                         (abs)        000000
__size_ofi1__doprnt                            (abs)        000000
__size_ofi1__tdiv_to_l_                        (abs)        000000
__size_ofi1_acos                               (abs)        000000
__size_ofi1_asin                               (abs)        000000
__size_ofi1_atan                               (abs)        000000
__size_ofi1_eval_poly                          (abs)        000000
__size_ofi1_fabs                               (abs)        000000
__size_ofi1_frexp                              (abs)        000000
__size_ofi1_fround                             (abs)        000000
__size_ofi1_getCauseOfResetStringSmall         (abs)        000000
__size_ofi1_getDeviceID                        (abs)        000000
__size_ofi1_getMajorRevisionID                 (abs)        000000
__size_ofi1_getMinorRevisionID                 (abs)        000000
__size_ofi1_isdigit                            (abs)        000000
__size_ofi1_memmove                            (abs)        000000
__size_ofi1_printf                             (abs)        000000
__size_ofi1_putch                              (abs)        000000
__size_ofi1_round                              (abs)        000000
__size_ofi1_scale                              (abs)        000000
__size_ofi1_sprintf                            (abs)        000000
__size_ofi1_sqrt                               (abs)        000000
__size_ofi1_strcat                             (abs)        000000
__size_ofi1_strcpy                             (abs)        000000
__size_ofi1_strncpy                            (abs)        000000
__size_ofi1_terminal_clearTerminal             (abs)        000000
__size_ofi1_terminal_printNewline              (abs)        000000
__size_ofi1_terminal_setCursorHome             (abs)        000000
__size_ofi1_terminal_textAttributes            (abs)        000000
__size_ofi1_terminal_textAttributesReset       (abs)        000000
__size_ofi1_trunc                              (abs)        000000
__size_ofi2_DATAEE_ReadByte                    (abs)        000000
__size_ofi2_DATAEE_WriteByte                   (abs)        000000
__size_ofi2_EUSART2_Write                      (abs)        000000
__size_ofi2_TMR5_StopTimer                     (abs)        000000
__size_ofi2___awdiv                            (abs)        000000
__size_ofi2___awmod                            (abs)        000000
__size_ofi2___fladd                            (abs)        000000
__size_ofi2___fldiv                            (abs)        000000
__size_ofi2___flge                             (abs)        000000
__size_ofi2___flmul                            (abs)        000000
__size_ofi2___flneg                            (abs)        000000
__size_ofi2___flsub                            (abs)        000000
__size_ofi2___fltol                            (abs)        000000
__size_ofi2___lldiv                            (abs)        000000
__size_ofi2___llmod                            (abs)        000000
__size_ofi2___wmul                             (abs)        000000
__size_ofi2___xxtofl                           (abs)        000000
__size_ofi2__div_to_l_                         (abs)        000000
__size_ofi2__doprnt                            (abs)        000000
__size_ofi2__tdiv_to_l_                        (abs)        000000
__size_ofi2_acos                               (abs)        000000
__size_ofi2_asin                               (abs)        000000
__size_ofi2_atan                               (abs)        000000
__size_ofi2_eval_poly                          (abs)        000000
__size_ofi2_fabs                               (abs)        000000
__size_ofi2_frexp                              (abs)        000000
__size_ofi2_fround                             (abs)        000000
__size_ofi2_isdigit                            (abs)        000000
__size_ofi2_printf                             (abs)        000000
__size_ofi2_putch                              (abs)        000000
__size_ofi2_readDoubleFromEEPROM               (abs)        000000
__size_ofi2_scale                              (abs)        000000
__size_ofi2_sqrt                               (abs)        000000
__size_ofi2_writeDoubleToEEPROM                (abs)        000000
__smallconst                                   smallconst   000000
__tdiv_to_l_                                   text61       00086A
__tdiv_to_l_@cntr                              cstackBANK3  00030D
__tdiv_to_l_@exp1                              cstackBANK3  00030E
__tdiv_to_l_@f1                                cstackBANK3  000300
__tdiv_to_l_@f2                                cstackBANK3  000303
__tdiv_to_l_@quot                              cstackBANK3  000309
_acos                                          text22       003236
_acos$5843                                     cstackBANK3  0003BB
_acquisitionTimerCallback                      text124      004D64
_asin                                          text23       01CEC4
_asin$5844                                     cstackBANK3  0003B3
_asin$5845                                     cstackBANK3  0003AB
_asin$5846                                     cstackBANK3  0003A7
_atan                                          text25       01FAB4
_atoi                                          text11       001E94
_attribute                                     bssBANK1     0001F9
_background_color                              bssBANK1     0001F7
_clearADCErrors                                text10       004ADA
_clearCOMMErrors                               text9        004E06
_currentMeasuredToPeak                         text252      002F68
_current_adc_channel                           bssBANK1     0001F6
_dev_on_time                                   bssBANK4     000410
_dimmingOffTimeCallback                        text217      004CB0
_dimmingOnTimeCallback                         text206      004C96
_dimming_period                                dataBANK0    0000FD
_dpowers                                       mediumconst  00C99B
_errno                                         bssBANK4     00043E
_error_handler                                 bssBANK2     000259
_eusart2RxBuffer                               bssBANK5     000500
_eusart2RxCount                                bssBANK2     0002A2
_eusart2RxHead                                 bssBANK0     0000FF
_eusart2RxStringReady                          bitbssCOMRAM 0002EA
_eusart2RxTail                                 bssBANK2     0002A3
_eusart2TxBuffer                               bssBANK6     000600
_eusart2TxBufferRemaining                      bssBANK2     0002A4
_eusart2TxHead                                 bssBANK2     0002A6
_eusart2TxTail                                 bssBANK2     0002A5
_eval_poly                                     text27       001636
_fabs                                          text26       004278
_floor                                         text259      001522
_foreground_color                              bssBANK1     0001F8
_frexp                                         text20       002E6C
_fround                                        text57       01E084
_fround$5839                                   cstackBANK3  000382
_fround$5840                                   cstackBANK3  00037E
_getADCError                                   text81       00462E
_getCOMMError                                  text80       004D14
_getCauseOfReset                               text89       0037FC
_getCauseOfResetString                         text79       00475C
_getCauseOfResetStringSmall                    text21       0046FC
_getDeviceID                                   text76       004B40
_getDeviceIDString                             text75       00379C
_getMajorRevisionID                            text74       0043E8
_getMinorRevisionID                            text73       004940
_getUserID                                     text72       00406E
_heartbeatTimerCallback                        text131      0040F4
_hexpowers                                     mediumconst  00C9C3
_i2c1_object                                   bssBANK2     000262
_i2c1_state                                    bssCOMRAM    00005E
_i2c1_tr_queue                                 bssBANK2     0002A7
_i2c1_trb_count                                bssBANK1     0001FC
_isdigit                                       text56       004AFC
_isdigit$4943                                  cstackBANK3  000301
_line                                          bssBANK5     000540
_load_enable                                   bitbssCOMRAM 0002E9
_load_on_time                                  bssBANK2     000271
_main                                          text0        001936
_max_FVR_ADC_Result                            bssBANK4     000400
_max_FVR_ADC_Result_address                    mediumconst  00C9E3
_max_Irms                                      bssBANK2     00026D
_max_Irms_address                              mediumconst  00C9ED
_max_POS12_ADC_Result                          bssBANK4     000408
_max_POS12_ADC_Result_address                  mediumconst  00C9E7
_max_POS3P3_ADC_Result                         bssBANK4     00040C
_max_POS3P3_ADC_Result_address                 mediumconst  00C9E9
_max_Power                                     bssBANK2     000269
_max_Power_address                             mediumconst  00C9EB
_max_Temp_ADC_Result                           bssBANK4     000404
_max_Temp_ADC_Result_address                   mediumconst  00C9E5
_memmove                                       text43       002490
_next_channel                                  dataBANK1    0001FF
_p_i2c1_current                                bssBANK1     0001F0
_p_i2c1_trb_current                            bssBANK1     0001F2
_peakToRMS                                     text246      01F86A
_peakToRMS$6618                                cstackBANK0  0000D2
_peakToRMS$6619                                cstackBANK0  0000CA
_peakToRMS$6620                                cstackBANK0  0000CE
_print_Energy_str                              bssBANK4     000484
_print_Irms_str                                bssBANK5     0005B3
_print_Power_str                               bssBANK5     0005A2
_print_Vrms_str                                bssBANK5     000591
_printf                                        text51       0043AC
_putch                                         text54       004C2E
_putch$intlevel0                               text54       004C3A
_putch$intlevel1                               text54       004C34
_readDoubleFromEEPROM                          text87       0039B2
_recoverSRAMMaxFromEEPROM                      text86       00071E
_reset_cause                                   nvBANK3      0003F0
_ringBufferLUT                                 text3        010000
_ringBufferLUT$5838                            cstackBANK4  0004DA
_round                                         text18       0021C4
_saveSRAMMaxToEEPROM                           text82       01F3A4
_scale                                         text53       01A67E
_scale$5841                                    cstackBANK3  00037E
_sin                                           text253      01D7F4
_sin$6625                                      cstackBANK0  0000A3
_sprintf                                       text17       003D5C
_sqrt                                          text24       01DAF4
_strcat                                        text49       003C30
_strchr                                        text7        00458A
_strcmp                                        text8        003A04
_strcpy                                        text16       003D14
_strlen                                        text6        003856
_strncmp                                       text5        0029B2
_strncpy                                       text48       003460
_strstr                                        text4        002A42
_terminal_clearTerminal                        text15       004D98
_terminal_printNewline                         text50       004DA8
_terminal_printResetMessage                    text45       01A190
_terminal_ringBufferPull                       text2        00140A
_terminal_setCursorHome                        text14       004D88
_terminal_textAttributes                       text47       01B446
_terminal_textAttributesReset                  text46       004D52
_timer5ReloadVal                               bssBANK2     00029E
_timer7ReloadVal                               bssBANK1     0001F4
_trunc                                         text19       0027D8
_updateErrorLEDs                               text1        004CE4
_writeDoubleToEEPROM                           text83       003A54
_writeEnergyToEEPROMCallback                   text211      002CE2
acos@x                                         cstackBANK3  0003B7
asin@sgn                                       cstackBANK3  0003A3
asin@x                                         cstackBANK3  00039F
asin@y                                         cstackBANK3  0003AF
atan@coeff_a                                   mediumconst  00CCF1
atan@coeff_b                                   mediumconst  00CD1D
atan@f                                         cstackBANK3  00038A
atan@recip                                     cstackBANK3  000396
atan@val                                       cstackBANK3  00039B
atan@val_squared                               cstackBANK3  000397
atan@x                                         cstackBANK3  000392
atan@y                                         cstackBANK3  00038E
atoi@a                                         cstackBANK3  00030B
atoi@s                                         cstackBANK3  000306
atoi@sign                                      cstackBANK3  00030A
btemp                                          temp         00005F
currentMeasuredToPeak@Angle                    cstackBANK0  0000B0
currentMeasuredToPeak@Measured                 cstackBANK0  0000AC
currentMeasuredToPeak@Peak                     cstackBANK0  0000B4
end_of_initialization                          cinit        01FFF6
eval_poly@d                                    cstackBANK3  00037E
eval_poly@n                                    cstackBANK3  000380
eval_poly@res                                  cstackBANK3  000386
eval_poly@x                                    cstackBANK3  00037A
fabs@d                                         cstackBANK3  000334
floor@expon                                    cstackBANK0  000091
floor@i                                        cstackBANK0  00008D
floor@x                                        cstackBANK0  000089
frexp@eptr                                     cstackBANK3  000304
frexp@value                                    cstackBANK3  000300
fround@prec                                    cstackBANK3  000386
ftoa@buf                                       bssBANK5     000580
getCauseOfReset@return_reset_cause             cstackBANK3  000300
getCauseOfResetString@r                        cstackBANK3  000302
getCauseOfResetString@strings                  dataBANK5    0005D6
getCauseOfResetStringSmall@r                   cstackBANK3  000302
getCauseOfResetStringSmall@strings             dataBANK5    0005C4
getDeviceIDString@F17550                       dataBANK4    0004E9
getDeviceIDString@inputDevID                   cstackBANK3  00030D
getDeviceIDString@strings                      cstackBANK3  000311
getMajorRevisionID@REVID_RAW                   cstackBANK3  00030E
getMinorRevisionID@REVID_RAW                   cstackBANK3  00030B
getUserID@IDOffset                             cstackBANK3  000312
getUserID@initialOffset                        cstackBANK3  00030D
getUserID@inputUserID                          cstackBANK3  000311
i1EUSART2_Write@txData                         cstackBANK1  000100
i1FLASH_ReadByte@flashAddr                     cstackBANK1  000100
i1FLASH_ReadWord@flashAddr                     cstackBANK1  000104
i1I2C1_MasterTRBInsert@count                   cstackBANK1  000105
i1I2C1_MasterTRBInsert@pflag                   cstackBANK1  000102
i1I2C1_MasterTRBInsert@ptrb_list               cstackBANK1  000100
i1I2C1_MasterWrite@address                     cstackBANK1  00010C
i1I2C1_MasterWrite@length                      cstackBANK1  00010B
i1I2C1_MasterWrite@pdata                       cstackBANK1  000109
i1I2C1_MasterWrite@pflag                       cstackBANK1  00010E
i1I2C1_MasterWriteTRBBuild@address             cstackBANK1  000105
i1I2C1_MasterWriteTRBBuild@length              cstackBANK1  000104
i1I2C1_MasterWriteTRBBuild@pdata               cstackBANK1  000102
i1I2C1_MasterWriteTRBBuild@ptrb                cstackBANK1  000100
i1OLED_Clear@col                               cstackBANK1  000123
i1OLED_Clear@row                               cstackBANK1  000121
i1OLED_Command@data_array                      cstackBANK1  000110
i1OLED_Command@length                          cstackBANK1  000113
i1OLED_Command@temp                            cstackBANK1  000112
i1OLED_PutChar@ch                              cstackBANK1  000120
i1OLED_PutChar@data_array                      cstackBANK1  000114
i1OLED_PutChar@input_base                      cstackBANK1  00011D
i1OLED_PutChar@length                          cstackBANK1  00011F
i1OLED_WriteString@s                           cstackBANK1  000121
i1OLED_YX@Column                               cstackBANK1  000114
i1OLED_YX@Row                                  cstackBANK1  000116
i1OLED_updateCallback@TRIAC_degrees            cstackBANK2  000248
i1OLED_updateCallback@angle_degrees            cstackBANK2  00024E
i1OLED_updateCallback@angle_string             cstackBANK2  000233
i1OLED_updateCallback@dev_id_str               cstackBANK2  000200
i1OLED_updateCallback@percentage               cstackBANK2  000256
i1OLED_updateCallback@percentage_print         cstackBANK2  00024B
i1OLED_updateCallback@percentage_string        cstackBANK2  000222
i1OLED_updateCallback@rev_id_str               cstackBANK2  000211
i1TMR2_Counter8BitSet@timerVal                 cstackBANK1  000100
i1TMR2_Period8BitSet@periodVal                 cstackBANK1  000100
i1TMR2_WriteTimer@timerVal                     cstackBANK1  000101
i1_EUSART2_Write                               text149      003EC4
i1_FLASH_ReadByte                              text169      004C7C
i1_FLASH_ReadWord                              text168      004136
i1_I2C1_MasterTRBInsert                        text201      002736
i1_I2C1_MasterWrite                            text199      003B44
i1_I2C1_MasterWriteTRBBuild                    text200      003FE2
i1_I2C1_WaitForLastPacketToComplete            text202      004F2A
i1_OLED_Clear                                  text196      0041B8
i1_OLED_Command                                text194      003668
i1_OLED_PutChar                                text197      0020FE
i1_OLED_UpdateFromRAMBuffer                    text192      00305E
i1_OLED_WriteString                            text195      003906
i1_OLED_YX                                     text193      00449C
i1_OLED_updateCallback                         text135      018BA8
i1_OLED_updateCallback$6626                    cstackBANK2  000252
i1_OLED_updateCallback$6627                    cstackBANK2  000244
i1_TMR2_Counter8BitSet                         text186      004EEA
i1_TMR2_Period8BitSet                          text191      004EF4
i1_TMR2_Start                                  text190      004F6A
i1_TMR2_StartTimer                             text189      004F4A
i1_TMR2_Stop                                   text188      004F66
i1_TMR2_StopTimer                              text187      004F44
i1_TMR2_WriteTimer                             text185      004EBC
i1___awdiv                                     text153      002B54
i1___awdiv@counter                             cstackBANK1  00010A
i1___awdiv@dividend                            cstackBANK1  000106
i1___awdiv@divisor                             cstackBANK1  000108
i1___awdiv@quotient                            cstackBANK1  00010C
i1___awdiv@sign                                cstackBANK1  00010B
i1___awmod                                     text152      0031C4
i1___awmod@counter                             cstackBANK1  000104
i1___awmod@dividend                            cstackBANK1  000100
i1___awmod@divisor                             cstackBANK1  000102
i1___awmod@sign                                cstackBANK1  000105
i1___fladd                                     text179      01C848
i1___fladd@a                                   cstackBANK1  000138
i1___fladd@aexp                                cstackBANK1  000145
i1___fladd@b                                   cstackBANK1  000134
i1___fladd@bexp                                cstackBANK1  000146
i1___fladd@grs                                 cstackBANK1  000147
i1___fladd@signs                               cstackBANK1  000144
i1___fldiv                                     text181      01EB8A
i1___fldiv@a                                   cstackBANK1  00014C
i1___fldiv@aexp                                cstackBANK1  000160
i1___fldiv@b                                   cstackBANK1  000148
i1___fldiv@bexp                                cstackBANK1  00015F
i1___fldiv@grs                                 cstackBANK1  00015B
i1___fldiv@new_exp                             cstackBANK1  000159
i1___fldiv@rem                                 cstackBANK1  000155
i1___fldiv@sign                                cstackBANK1  000154
i1___flge                                      text180      0011C6
i1___flge@ff1                                  cstackBANK1  000148
i1___flge@ff2                                  cstackBANK1  00014C
i1___flmul                                     text178      01BE68
i1___flmul@a                                   cstackBANK1  000165
i1___flmul@aexp                                cstackBANK1  00016E
i1___flmul@b                                   cstackBANK1  000161
i1___flmul@bexp                                cstackBANK1  000173
i1___flmul@grs                                 cstackBANK1  00016F
i1___flmul@prod                                cstackBANK1  000174
i1___flmul@sign                                cstackBANK1  00016D
i1___flmul@temp                                cstackBANK1  000178
i1___flneg                                     text176      00481C
i1___flneg@f1                                  cstackBANK1  000130
i1___flsub                                     text159      003F0C
i1___flsub@a                                   cstackBANK1  00014C
i1___flsub@b                                   cstackBANK1  000148
i1___fltol                                     text164      001CDA
i1___fltol@exp1                                cstackBANK1  000117
i1___fltol@f1                                  cstackBANK1  00010E
i1___fltol@sign1                               cstackBANK1  000116
i1___ftdiv                                     text183      001B14
i1___ftdiv@cntr                                cstackBANK1  000114
i1___ftdiv@exp                                 cstackBANK1  000118
i1___ftdiv@f1                                  cstackBANK1  00010B
i1___ftdiv@f2                                  cstackBANK1  00010E
i1___ftdiv@f3                                  cstackBANK1  000115
i1___ftdiv@sign                                cstackBANK1  000119
i1___ftpack                                    text184      0023E0
i1___ftpack@arg                                cstackBANK1  000100
i1___ftpack@exp                                cstackBANK1  000103
i1___ftpack@sign                               cstackBANK1  000104
i1___lldiv                                     text158      002C5E
i1___lldiv@counter                             cstackBANK1  00010C
i1___lldiv@dividend                            cstackBANK1  000100
i1___lldiv@divisor                             cstackBANK1  000104
i1___lldiv@quotient                            cstackBANK1  000108
i1___llmod                                     text157      003600
i1___llmod@counter                             cstackBANK1  000115
i1___llmod@dividend                            cstackBANK1  00010D
i1___llmod@divisor                             cstackBANK1  000111
i1___lwtoft                                    text182      0049D8
i1___lwtoft@c                                  cstackBANK1  000108
i1___wmul                                      text156      0048CA
i1___wmul@multiplicand                         cstackBANK1  000102
i1___wmul@multiplier                           cstackBANK1  000100
i1___wmul@product                              cstackBANK1  000104
i1___xxtofl                                    text163      00047A
i1___xxtofl@arg                                cstackBANK1  000122
i1___xxtofl@exp                                cstackBANK1  000121
i1___xxtofl@sign                               cstackBANK1  000120
i1___xxtofl@val                                cstackBANK1  000118
i1__div_to_l_                                  text155      000D2E
i1__div_to_l_@cntr                             cstackBANK1  00010C
i1__div_to_l_@exp1                             cstackBANK1  00010D
i1__div_to_l_@f1                               cstackBANK1  000100
i1__div_to_l_@f2                               cstackBANK1  000104
i1__div_to_l_@quot                             cstackBANK1  000108
i1__doprnt                                     text146      0140D2
i1__doprnt$6634                                cstackBANK1  000193
i1__doprnt@ap                                  cstackBANK1  00018B
i1__doprnt@c                                   cstackBANK1  0001B0
i1__doprnt@cp                                  cstackBANK1  000198
i1__doprnt@exp                                 cstackBANK1  0001A6
i1__doprnt@f                                   cstackBANK1  000189
i1__doprnt@flag                                cstackBANK1  0001A8
i1__doprnt@fval                                cstackBANK1  0001AA
i1__doprnt@idx                                 cstackBANK1  000197
i1__doprnt@len                                 cstackBANK1  00019A
i1__doprnt@pb                                  cstackBANK1  000187
i1__doprnt@prec                                cstackBANK1  0001AE
i1__doprnt@tmpval                              cstackBANK1  00019C
i1__doprnt@val                                 cstackBANK1  0001A2
i1__doprnt@width                               cstackBANK1  0001A0
i1__tdiv_to_l_                                 text154      00099E
i1__tdiv_to_l_@cntr                            cstackBANK1  00010D
i1__tdiv_to_l_@exp1                            cstackBANK1  00010E
i1__tdiv_to_l_@f1                              cstackBANK1  000100
i1__tdiv_to_l_@f2                              cstackBANK1  000103
i1__tdiv_to_l_@quot                            cstackBANK1  000109
i1_acos                                        text171      0032A6
i1_acos$6636                                   cstackBANK1  0001BB
i1_asin                                        text172      01D1D4
i1_asin$6638                                   cstackBANK1  0001B3
i1_asin$6639                                   cstackBANK1  0001AB
i1_asin$6640                                   cstackBANK1  0001A7
i1_atan                                        text174      01FCEC
i1_eval_poly                                   text177      001736
i1_fabs                                        text175      004332
i1_frexp                                       text162      002EEA
i1_fround                                      text151      01E34A
i1_fround$6628                                 cstackBANK1  000182
i1_fround$6629                                 cstackBANK1  00017E
i1_getCauseOfResetStringSmall                  text170      0047EC
i1_getDeviceID                                 text167      004B60
i1_getMajorRevisionID                          text166      004460
i1_getMinorRevisionID                          text165      0049B2
i1_isdigit                                     text150      004B1E
i1_isdigit$4943                                cstackBANK1  000101
i1_memmove                                     text198      00253E
i1_printf                                      text143      004424
i1_putch                                       text148      004EAE
i1_round                                       text160      00227A
i1_scale                                       text147      01AB22
i1_scale$6632                                  cstackBANK1  00017E
i1_sprintf                                     text145      003E7C
i1_sqrt                                        text173      01DDBC
i1_strcat                                      text139      003C7C
i1_strcpy                                      text144      003E34
i1_strncpy                                     text138      003598
i1_terminal_clearTerminal                      text142      004DE8
i1_terminal_printNewline                       text141      004DD8
i1_terminal_setCursorHome                      text140      004DC8
i1_terminal_textAttributes                     text137      01B7AE
i1_terminal_textAttributesReset                text136      004D76
i1_trunc                                       text161      002878
i1acos@x                                       cstackBANK1  0001B7
i1asin@sgn                                     cstackBANK1  0001A3
i1asin@x                                       cstackBANK1  00019F
i1asin@y                                       cstackBANK1  0001AF
i1atan@f                                       cstackBANK1  00018A
i1atan@recip                                   cstackBANK1  000196
i1atan@val                                     cstackBANK1  00019B
i1atan@val_squared                             cstackBANK1  000197
i1atan@x                                       cstackBANK1  000192
i1atan@y                                       cstackBANK1  00018E
i1eval_poly@d                                  cstackBANK1  00017E
i1eval_poly@n                                  cstackBANK1  000180
i1eval_poly@res                                cstackBANK1  000186
i1eval_poly@x                                  cstackBANK1  00017A
i1fabs@d                                       cstackBANK1  000134
i1frexp@eptr                                   cstackBANK1  000104
i1frexp@value                                  cstackBANK1  000100
i1fround@prec                                  cstackBANK1  000186
i1getCauseOfResetStringSmall@r                 cstackBANK1  000102
i1getMajorRevisionID@REVID_RAW                 cstackBANK1  00010E
i1getMinorRevisionID@REVID_RAW                 cstackBANK1  00010B
i1isdigit@c                                    cstackBANK1  000102
i1memmove@d                                    cstackBANK1  000108
i1memmove@d1                                   cstackBANK1  000100
i1memmove@n                                    cstackBANK1  000104
i1memmove@s                                    cstackBANK1  00010A
i1memmove@s1                                   cstackBANK1  000102
i1printf@ap                                    cstackBANK1  0001BB
i1printf@f                                     cstackBANK1  0001B1
i1printf@pb                                    cstackBANK1  0001BD
i1putch@txData                                 cstackBANK1  000101
i1round@f                                      cstackBANK1  0001C3
i1round@x                                      cstackBANK1  0001BF
i1scale@scl                                    cstackBANK1  000182
i1sprintf@ap                                   cstackBANK1  0001B9
i1sprintf@f                                    cstackBANK1  0001B3
i1sprintf@pb                                   cstackBANK1  0001BB
i1sprintf@wh                                   cstackBANK1  0001B1
i1sqrt@a                                       cstackBANK1  00017A
i1sqrt@exp                                     cstackBANK1  00018D
i1sqrt@frac                                    cstackBANK1  000193
i1sqrt@grs                                     cstackBANK1  000189
i1sqrt@i                                       cstackBANK1  000183
i1sqrt@p                                       cstackBANK1  000188
i1sqrt@root                                    cstackBANK1  00018F
i1sqrt@sign                                    cstackBANK1  000182
i1sqrt@tfrac                                   cstackBANK1  000184
i1strcat@cp                                    cstackBANK1  000104
i1strcat@from                                  cstackBANK1  000102
i1strcat@to                                    cstackBANK1  000100
i1strcpy@cp                                    cstackBANK1  000107
i1strcpy@from                                  cstackBANK1  000105
i1strcpy@to                                    cstackBANK1  000103
i1strncpy@cp                                   cstackBANK1  000106
i1strncpy@from                                 cstackBANK1  000102
i1strncpy@size                                 cstackBANK1  000104
i1strncpy@to                                   cstackBANK1  000100
i1terminal_textAttributes@background_color     cstackBANK1  0001C2
i1terminal_textAttributes@foreground_color     cstackBANK1  0001C4
i1terminal_textAttributes@input_attribute      cstackBANK1  0001C3
i1terminal_textAttributes@output_buff          cstackBANK1  0001C5
i1trunc@expon                                  cstackBANK1  00012E
i1trunc@i                                      cstackBANK1  00012A
i1trunc@x                                      cstackBANK1  000126
i2DATAEE_ReadByte@bAdd                         cstackCOMRAM 000001
i2DATAEE_WriteByte@GIEBitValue                 cstackCOMRAM 000004
i2DATAEE_WriteByte@bAdd                        cstackCOMRAM 000001
i2DATAEE_WriteByte@bData                       cstackCOMRAM 000003
i2EUSART2_Write@txData                         cstackCOMRAM 000001
i2_DATAEE_ReadByte                             text213      004CFC
i2_DATAEE_WriteByte                            text226      004550
i2_EUSART2_Write                               text233      004028
i2_TMR5_StopTimer                              text207      004F6E
i2___awdiv                                     text237      002D66
i2___awdiv@counter                             cstackCOMRAM 00000B
i2___awdiv@dividend                            cstackCOMRAM 000007
i2___awdiv@divisor                             cstackCOMRAM 000009
i2___awdiv@quotient                            cstackCOMRAM 00000D
i2___awdiv@sign                                cstackCOMRAM 00000C
i2___awmod                                     text236      003316
i2___awmod@counter                             cstackCOMRAM 000005
i2___awmod@dividend                            cstackCOMRAM 000001
i2___awmod@divisor                             cstackCOMRAM 000003
i2___awmod@sign                                cstackCOMRAM 000006
i2___fladd                                     text264      01CB86
i2___fladd@a                                   cstackBANK0  000071
i2___fladd@aexp                                cstackCOMRAM 00005A
i2___fladd@b                                   cstackBANK0  00006D
i2___fladd@bexp                                cstackCOMRAM 00005B
i2___fladd@grs                                 cstackCOMRAM 00005C
i2___fladd@signs                               cstackCOMRAM 000059
i2___fldiv                                     text258      01EE40
i2___fldiv@a                                   cstackCOMRAM 00004D
i2___fldiv@aexp                                cstackBANK0  00006C
i2___fldiv@b                                   cstackCOMRAM 000049
i2___fldiv@bexp                                cstackBANK0  00006B
i2___fldiv@grs                                 cstackBANK0  000067
i2___fldiv@new_exp                             cstackBANK0  000065
i2___fldiv@rem                                 cstackBANK0  000061
i2___fldiv@sign                                cstackBANK0  000060
i2___flge                                      text263      0012E8
i2___flge@ff1                                  cstackBANK0  00007D
i2___flge@ff2                                  cstackBANK0  000081
i2___flmul                                     text255      01C1BA
i2___flmul@a                                   cstackCOMRAM 000013
i2___flmul@aexp                                cstackCOMRAM 00001C
i2___flmul@b                                   cstackCOMRAM 00000F
i2___flmul@bexp                                cstackCOMRAM 000021
i2___flmul@grs                                 cstackCOMRAM 00001D
i2___flmul@prod                                cstackCOMRAM 000022
i2___flmul@sign                                cstackCOMRAM 00001B
i2___flmul@temp                                cstackCOMRAM 000026
i2___flneg                                     text257      00484C
i2___flneg@f1                                  cstackCOMRAM 000055
i2___flsub                                     text256      003F54
i2___flsub@a                                   cstackBANK0  000097
i2___flsub@b                                   cstackBANK0  000093
i2___fltol                                     text262      001DB8
i2___fltol@exp1                                cstackCOMRAM 00003A
i2___fltol@f1                                  cstackCOMRAM 000031
i2___fltol@sign1                               cstackCOMRAM 000039
i2___lldiv                                     text242      002DEA
i2___lldiv@counter                             cstackCOMRAM 00000D
i2___lldiv@dividend                            cstackCOMRAM 000001
i2___lldiv@divisor                             cstackCOMRAM 000005
i2___lldiv@quotient                            cstackCOMRAM 000009
i2___llmod                                     text241      003736
i2___llmod@counter                             cstackCOMRAM 000016
i2___llmod@dividend                            cstackCOMRAM 00000E
i2___llmod@divisor                             cstackCOMRAM 000012
i2___wmul                                      text240      004A24
i2___wmul@multiplicand                         cstackCOMRAM 000003
i2___wmul@multiplier                           cstackCOMRAM 000001
i2___wmul@product                              cstackCOMRAM 000005
i2___xxtofl                                    text261      0005CE
i2___xxtofl@arg                                cstackCOMRAM 000045
i2___xxtofl@exp                                cstackCOMRAM 000044
i2___xxtofl@sign                               cstackCOMRAM 000043
i2___xxtofl@val                                cstackCOMRAM 00003B
i2__div_to_l_                                  text239      000E58
i2__div_to_l_@cntr                             cstackCOMRAM 00000D
i2__div_to_l_@exp1                             cstackCOMRAM 00000E
i2__div_to_l_@f1                               cstackCOMRAM 000001
i2__div_to_l_@f2                               cstackCOMRAM 000005
i2__div_to_l_@quot                             cstackCOMRAM 000009
i2__doprnt                                     text230      01600E
i2__doprnt$6635                                cstackBANK0  0000A7
i2__doprnt@ap                                  cstackBANK0  00009F
i2__doprnt@c                                   cstackBANK0  0000C4
i2__doprnt@cp                                  cstackBANK0  0000AC
i2__doprnt@exp                                 cstackBANK0  0000BA
i2__doprnt@f                                   cstackBANK0  00009D
i2__doprnt@flag                                cstackBANK0  0000BC
i2__doprnt@fval                                cstackBANK0  0000BE
i2__doprnt@idx                                 cstackBANK0  0000AB
i2__doprnt@len                                 cstackBANK0  0000AE
i2__doprnt@pb                                  cstackBANK0  00009B
i2__doprnt@prec                                cstackBANK0  0000C2
i2__doprnt@tmpval                              cstackBANK0  0000B0
i2__doprnt@val                                 cstackBANK0  0000B6
i2__doprnt@width                               cstackBANK0  0000B4
i2__tdiv_to_l_                                 text238      000AD2
i2__tdiv_to_l_@cntr                            cstackCOMRAM 00000E
i2__tdiv_to_l_@exp1                            cstackCOMRAM 00000F
i2__tdiv_to_l_@f1                              cstackCOMRAM 000001
i2__tdiv_to_l_@f2                              cstackCOMRAM 000004
i2__tdiv_to_l_@quot                            cstackCOMRAM 00000A
i2_acos                                        text247      003386
i2_acos$6637                                   cstackBANK0  0000BE
i2_asin                                        text248      01D4E4
i2_asin$6641                                   cstackBANK0  0000B6
i2_asin$6642                                   cstackBANK0  0000AE
i2_asin$6643                                   cstackBANK0  0000AA
i2_atan                                        text250      0000EE
i2_eval_poly                                   text254      001836
i2_fabs                                        text251      004514
i2_frexp                                       text260      0030D8
i2_fround                                      text235      01F0F6
i2_fround$6630                                 cstackCOMRAM 000030
i2_fround$6631                                 cstackCOMRAM 00002C
i2_isdigit                                     text234      004BBC
i2_isdigit$4943                                cstackCOMRAM 000002
i2_printf                                      text229      0044D8
i2_putch                                       text232      004F08
i2_readDoubleFromEEPROM                        text212      003BE2
i2_scale                                       text231      01AFC6
i2_scale$6633                                  cstackCOMRAM 00002C
i2_sqrt                                        text249      01E610
i2_writeDoubleToEEPROM                         text225      003CC8
i2acos@x                                       cstackBANK0  0000BA
i2asin@sgn                                     cstackBANK0  0000A6
i2asin@x                                       cstackBANK0  0000A2
i2asin@y                                       cstackBANK0  0000B2
i2atan@f                                       cstackBANK0  00008D
i2atan@recip                                   cstackBANK0  000099
i2atan@val                                     cstackBANK0  00009E
i2atan@val_squared                             cstackBANK0  00009A
i2atan@x                                       cstackBANK0  000095
i2atan@y                                       cstackBANK0  000091
i2eval_poly@d                                  cstackBANK0  000081
i2eval_poly@n                                  cstackBANK0  000083
i2eval_poly@res                                cstackBANK0  000089
i2eval_poly@x                                  cstackBANK0  00007D
i2fabs@d                                       cstackCOMRAM 000059
i2frexp@eptr                                   cstackCOMRAM 000005
i2frexp@value                                  cstackCOMRAM 000001
i2fround@prec                                  cstackCOMRAM 000034
i2isdigit@c                                    cstackCOMRAM 000003
i2printf@ap                                    cstackBANK0  0000C7
i2printf@f                                     cstackBANK0  0000C5
i2printf@pb                                    cstackBANK0  0000C9
i2putch@txData                                 cstackCOMRAM 000002
i2readDoubleFromEEPROM@byte_index              cstackCOMRAM 00000B
i2readDoubleFromEEPROM@output_data             cstackCOMRAM 000007
i2readDoubleFromEEPROM@starting_address        cstackCOMRAM 000003
i2scale@scl                                    cstackCOMRAM 000030
i2sqrt@a                                       cstackCOMRAM 000028
i2sqrt@exp                                     cstackCOMRAM 00003B
i2sqrt@frac                                    cstackCOMRAM 000041
i2sqrt@grs                                     cstackCOMRAM 000037
i2sqrt@i                                       cstackCOMRAM 000031
i2sqrt@p                                       cstackCOMRAM 000036
i2sqrt@root                                    cstackCOMRAM 00003D
i2sqrt@sign                                    cstackCOMRAM 000030
i2sqrt@tfrac                                   cstackCOMRAM 000032
i2writeDoubleToEEPROM@byte_index               cstackCOMRAM 00000F
i2writeDoubleToEEPROM@input_data               cstackCOMRAM 00000B
i2writeDoubleToEEPROM@input_double             cstackCOMRAM 000005
i2writeDoubleToEEPROM@starting_address         cstackCOMRAM 000009
int$flags                                      temp         00005F
int_func                                       intcode_body 000F80
intlevel0                                      text         000000
intlevel1                                      text         000000
intlevel2                                      text         000000
intlevel3                                      text         000000
isdigit@c                                      cstackBANK3  000302
memmove@d                                      cstackBANK3  000308
memmove@d1                                     cstackBANK3  000300
memmove@n                                      cstackBANK3  000304
memmove@s                                      cstackBANK3  00030A
memmove@s1                                     cstackBANK3  000302
peakToRMS@Angle                                cstackBANK0  0000C6
peakToRMS@Peak                                 cstackBANK0  0000C2
peakToRMS@RMS                                  cstackBANK0  0000D6
printf@ap                                      cstackBANK3  0003BB
printf@f                                       cstackBANK3  0003B1
printf@pb                                      cstackBANK3  0003BD
putch@txData                                   cstackBANK3  000301
readDoubleFromEEPROM@byte_index                cstackBANK3  00030A
readDoubleFromEEPROM@output_data               cstackBANK3  000306
readDoubleFromEEPROM@starting_address          cstackBANK3  000302
ringBufferLUT@angle_degrees                    cstackBANK4  0004A2
ringBufferLUT@angle_degrees_4198               cstackBANK4  0004CE
ringBufferLUT@arg_buff                         cstackBANK4  00049F
ringBufferLUT@index                            cstackBANK4  0004E1
ringBufferLUT@line                             cstackBANK3  0003DB
ringBufferLUT@max_FVR_print                    cstackBANK4  0004CA
ringBufferLUT@max_POS12_print                  cstackBANK4  0004C2
ringBufferLUT@max_POS3P3_print                 cstackBANK4  0004BE
ringBufferLUT@max_Power_print                  cstackBANK4  0004AA
ringBufferLUT@max_Power_print_4212             cstackBANK4  0004D6
ringBufferLUT@max_current_print                cstackBANK4  0004A6
ringBufferLUT@max_current_print_4210           cstackBANK4  0004D2
ringBufferLUT@max_temp_print                   cstackBANK4  0004B6
ringBufferLUT@max_temp_print_4192              cstackBANK4  0004C6
ringBufferLUT@max_voltage_print                cstackBANK4  0004AE
ringBufferLUT@max_voltage_print_4149           cstackBANK4  0004B2
ringBufferLUT@max_voltage_print_4155           cstackBANK4  0004BA
ringBufferLUT@percentage                       cstackBANK4  0004E3
ringBufferLUT@percentage_print                 cstackBANK4  0004DE
ringBufferLUT@userID                           cstackBANK4  0004E5
ringBufferLUT@userID_4164                      cstackBANK4  0004E7
round@f                                        cstackBANK3  0003C3
round@x                                        cstackBANK3  0003BF
scale@scl                                      cstackBANK3  000382
sin@coeff_a                                    mediumconst  00CD09
sin@coeff_b                                    mediumconst  00CD31
sin@f                                          cstackBANK0  00009B
sin@sgn                                        cstackBANK0  0000AB
sin@x2                                         cstackBANK0  0000A7
sin@y                                          cstackBANK0  00009F
sprintf@ap                                     cstackBANK3  0003BD
sprintf@f                                      cstackBANK3  0003B3
sprintf@pb                                     cstackBANK3  0003BF
sprintf@wh                                     cstackBANK3  0003B1
sqrt@a                                         cstackBANK3  00037A
sqrt@exp                                       cstackBANK3  00038D
sqrt@frac                                      cstackBANK3  00038F
sqrt@grs                                       cstackBANK3  000389
sqrt@i                                         cstackBANK3  000383
sqrt@p                                         cstackBANK3  000388
sqrt@root                                      cstackBANK3  000393
sqrt@sign                                      cstackBANK3  000382
sqrt@tfrac                                     cstackBANK3  000384
stackhi                                        (abs)        000DE9
stacklo                                        (abs)        0006D9
start                                          init         0000EA
start_initialization                           cinit        01FF24
strcat@cp                                      cstackBANK3  000304
strcat@from                                    cstackBANK3  000302
strcat@to                                      cstackBANK3  000300
strchr@chr                                     cstackBANK3  000302
strchr@ptr                                     cstackBANK3  000300
strcmp@r                                       cstackBANK3  000305
strcmp@s1                                      cstackBANK3  000300
strcmp@s2                                      cstackBANK3  000302
strcpy@cp                                      cstackBANK3  000307
strcpy@from                                    cstackBANK3  000305
strcpy@to                                      cstackBANK3  000303
strlen@cp                                      cstackBANK3  000304
strlen@s                                       cstackBANK3  000300
strncmp@len                                    cstackBANK3  00030A
strncmp@s1                                     cstackBANK3  000306
strncmp@s2                                     cstackBANK3  000308
strncpy@cp                                     cstackBANK3  000306
strncpy@from                                   cstackBANK3  000302
strncpy@size                                   cstackBANK3  000304
strncpy@to                                     cstackBANK3  000300
strstr@s1                                      cstackBANK3  00030F
strstr@s2                                      cstackBANK3  000311
terminal_printResetMessage@userID              cstackBANK3  0003D6
terminal_ringBufferPull@charNumber             cstackBANK3  0003E4
terminal_ringBufferPull@index                  cstackBANK3  0003E8
terminal_ringBufferPull@index_3780             cstackBANK3  0003E6
terminal_textAttributes@background_color       cstackBANK3  0003C2
terminal_textAttributes@foreground_color       cstackBANK3  0003C4
terminal_textAttributes@input_attribute        cstackBANK3  0003C3
terminal_textAttributes@output_buff            cstackBANK3  0003C5
trunc@expon                                    cstackBANK3  00032E
trunc@i                                        cstackBANK3  00032A
trunc@x                                        cstackBANK3  000326
writeDoubleToEEPROM@byte_index                 cstackBANK3  00030E
writeDoubleToEEPROM@input_data                 cstackBANK3  00030A
writeDoubleToEEPROM@input_double               cstackBANK3  000304
writeDoubleToEEPROM@starting_address           cstackBANK3  000308
writeEnergyToEEPROMCallback@current_value      cstackBANK0  000089
wtemp6                                         temp         000060


FUNCTION INFORMATION:

 *************** function _main *****************
 Defined at:
		line 840 in file "main.c"
 Parameters:    Size  Location     Type
		None
 Auto vars:     Size  Location     Type
		None
 Return value:  Size  Location     Type
                  1    wreg      void 
 Registers used:
		wreg, fsr0l, fsr0h, fsr1l, fsr1h, fsr2l, fsr2h, status,2, status,0, pclath, tosl, tblptrl, tblptrh, tblptru, prodl, prodh, cstack
 Tracked objects:
		On entry : 
		On exit  : 
		Unchanged: 
 Data sizes:     COMRAM   BANK0   BANK1   BANK2   BANK3   BANK4   BANK5   BANK6   BANK7   BANK8   BANK9  BANK10  BANK11  BANK12  BANK13
      Params:         0       0       0       0       0       0       0       0       0       0       0       0       0       0       0
      Locals:         0       0       0       0       0       0       0       0       0       0       0       0       0       0       0
      Temps:          0       0       0       0       2       0       0       0       0       0       0       0       0       0       0
      Totals:         0       0       0       0       2       0       0       0       0       0       0       0       0       0       0
Total ram usage:        2 bytes
 Hardware stack levels required when called:   28
 This function calls:
		_ADCC_SetADTIInterruptHandler
		_INT0_SetInterruptHandler
		_OLED_Clear
		_OLED_Init
		_OLED_updateCallback
		_SYSTEM_Initialize
		_TMR2_SetInterruptHandler
		_TMR2_StopTimer
		_TMR2_WriteTimer
		_TMR4_SetInterruptHandler
		_TMR5_SetInterruptHandler
		_TMR5_StopTimer
		_TMR6_SetInterruptHandler
		_TMR7_SetInterruptHandler
		_getCauseOfReset
		_recoverSRAMMaxFromEEPROM
		_saveSRAMMaxToEEPROM
		_terminal_clearTerminal
		_terminal_printResetMessage
		_terminal_ringBufferPull
		_terminal_setCursorHome
		_terminal_textAttributesReset
		_updateErrorLEDs
 This function is called by:
		Startup code after reset
 This function uses a non-reentrant model


 *************** function _updateErrorLEDs *****************
 Defined at:
		line 54 in file "error_handling.c"
 Parameters:    Size  Location     Type
		None
 Auto vars:     Size  Location     Type
		None
 Return value:  Size  Location     Type
                  1    wreg      void 
 Registers used:
		wreg, status,2, cstack
 Tracked objects:
		On entry : 
		On exit  : 
		Unchanged: 
 Data sizes:     COMRAM   BANK0   BANK1   BANK2   BANK3   BANK4   BANK5   BANK6   BANK7   BANK8   BANK9  BANK10  BANK11  BANK12  BANK13
      Params:         0       0       0       0       0       0       0       0       0       0       0       0       0       0       0
      Locals:         0       0       0       0       0       0       0       0       0       0       0       0       0       0       0
      Temps:          0       0       0       0       0       0       0       0       0       0       0       0       0       0       0
      Totals:         0       0       0       0       0       0       0       0       0       0       0       0       0       0       0
Total ram usage:        0 bytes
 Hardware stack levels used:    1
 Hardware stack levels required when called:   20
 This function calls:
		_getADCError
		_getCOMMError
 This function is called by:
		_main
 This function uses a non-reentrant model


 *************** function _terminal_ringBufferPull *****************
 Defined at:
		line 12 in file "ring_buffer_interface.c"
 Parameters:    Size  Location     Type
		None
 Auto vars:     Size  Location     Type
  index           2  230[BANK3 ] int 
  index           2  232[BANK3 ] int 
  charNumber      2  228[BANK3 ] int 
 Return value:  Size  Location     Type
                  1    wreg      void 
 Registers used:
		wreg, fsr0l, fsr0h, fsr1l, fsr1h, fsr2l, fsr2h, status,2, status,0, pclath, tosl, tblptrl, tblptrh, tblptru, prodl, prodh, cstack
 Tracked objects:
		On entry : 
		On exit  : 
		Unchanged: 
 Data sizes:     COMRAM   BANK0   BANK1   BANK2   BANK3   BANK4   BANK5   BANK6   BANK7   BANK8   BANK9  BANK10  BANK11  BANK12  BANK13
      Params:         0       0       0       0       0       0       0       0       0       0       0       0       0       0       0
      Locals:         0       0       0       0       6       0       0       0       0       0       0       0       0       0       0
      Temps:          0       0       0       0       3       0       0       0       0       0       0       0       0       0       0
      Totals:         0       0       0       0       9       0       0       0       0       0       0       0       0       0       0
Total ram usage:        9 bytes
 Hardware stack levels used:    1
 Hardware stack levels required when called:   27
 This function calls:
		_EUSART2_Read
		_ringBufferLUT
		_strlen
 This function is called by:
		_main
 This function uses a non-reentrant model


 *************** function _ringBufferLUT *****************
 Defined at:
		line 67 in file "ring_buffer_LUT.c"
 Parameters:    Size  Location     Type
  line            2  219[BANK3 ] PTR unsigned char 
		 -> line(64), 
 Auto vars:     Size  Location     Type
  angle_degree    4   47[BANK4 ] PTR unsigned char 
  percentage_p    3   63[BANK4 ] float 
  userID          2   72[BANK4 ] int 
  angle_degree    4    3[BANK4 ] int 
  index           2   66[BANK4 ] int 
  userID          2   70[BANK4 ] int 
  max_Power_pr    4   55[BANK4 ] int 
  max_current_    4   51[BANK4 ] int 
  max_FVR_prin    4   43[BANK4 ] int 
  max_temp_pri    4   39[BANK4 ] int 
  max_POS12_pr    4   35[BANK4 ] int 
  max_POS3P3_p    4   31[BANK4 ] int 
  max_voltage_    4   27[BANK4 ] int 
  max_temp_pri    4   23[BANK4 ] int 
  max_voltage_    4   19[BANK4 ] int 
  max_voltage_    4   15[BANK4 ] int 
  max_Power_pr    4   11[BANK4 ] int 
  max_current_    4    7[BANK4 ] int 
  arg_buff        3    0[BANK4 ] unsigned char [3]
  percentage      2   68[BANK4 ] int 
 Return value:  Size  Location     Type
                  1    wreg      void 
 Registers used:
		wreg, fsr0l, fsr0h, fsr1l, fsr1h, fsr2l, fsr2h, status,2, status,0, pclath, tosl, tblptrl, tblptrh, tblptru, prodl, prodh, cstack
 Tracked objects:
		On entry : 
		On exit  : 
		Unchanged: 
 Data sizes:     COMRAM   BANK0   BANK1   BANK2   BANK3   BANK4   BANK5   BANK6   BANK7   BANK8   BANK9  BANK10  BANK11  BANK12  BANK13
      Params:         0       0       0       0       2       0       0       0       0       0       0       0       0       0       0
      Locals:         0       0       0       0       0      74       0       0       0       0       0       0       0       0       0
      Temps:          0       0       0       0       4       0       0       0       0       0       0       0       0       0       0
      Totals:         0       0       0       0       6      74       0       0       0       0       0       0       0       0       0
Total ram usage:       80 bytes
 Hardware stack levels used:    1
 Hardware stack levels required when called:   26
 This function calls:
		_OLED_updateCallback
		_TMR2_StopTimer
		_TMR5_StopTimer
		___fladd
		___fldiv
		___flge
		___flmul
		___flneg
		___wmul
		___xxtofl
		_atoi
		_clearADCErrors
		_clearCOMMErrors
		_getADCError
		_getCOMMError
		_getCauseOfResetString
		_getDeviceID
		_getDeviceIDString
		_getMajorRevisionID
		_getMinorRevisionID
		_getUserID
		_printf
		_readDoubleFromEEPROM
		_round
		_strcmp
		_strlen
		_strstr
		_terminal_printNewline
		_terminal_textAttributes
		_terminal_textAttributesReset
		_writeDoubleToEEPROM
 This function is called by:
		_terminal_ringBufferPull
 This function uses a non-reentrant model


 *************** function _strstr *****************
 Defined at:
		line 4 in file "C:\Program Files (x86)\Microchip\xc8\v1.45\sources\common\strstr.c"
 Parameters:    Size  Location     Type
  s1              2   15[BANK3 ] PTR const unsigned char 
		 -> line(64), NULL(0), 
  s2              2   17[BANK3 ] PTR const unsigned char 
		 -> STR_180(25), 
 Auto vars:     Size  Location     Type
		None
 Return value:  Size  Location     Type
                  2   15[BANK3 ] PTR unsigned char 
 Registers used:
		wreg, fsr0l, fsr0h, fsr2l, fsr2h, status,2, status,0, tblptrl, tblptrh, tblptru, cstack
 Tracked objects:
		On entry : 
		On exit  : 
		Unchanged: 
 Data sizes:     COMRAM   BANK0   BANK1   BANK2   BANK3   BANK4   BANK5   BANK6   BANK7   BANK8   BANK9  BANK10  BANK11  BANK12  BANK13
      Params:         0       0       0       0       4       0       0       0       0       0       0       0       0       0       0
      Locals:         0       0       0       0       0       0       0       0       0       0       0       0       0       0       0
      Temps:          0       0       0       0       0       0       0       0       0       0       0       0       0       0       0
      Totals:         0       0       0       0       4       0       0       0       0       0       0       0       0       0       0
Total ram usage:        4 bytes
 Hardware stack levels used:    1
 Hardware stack levels required when called:   20
 This function calls:
		_strchr
		_strlen
		_strncmp
 This function is called by:
		_ringBufferLUT
 This function uses a non-reentrant model


 *************** function _strncmp *****************
 Defined at:
		line 4 in file "C:\Program Files (x86)\Microchip\xc8\v1.45\sources\common\strncmp.c"
 Parameters:    Size  Location     Type
  s1              2    6[BANK3 ] PTR const unsigned char 
		 -> line(64), NULL(0), 
  s2              2    8[BANK3 ] PTR const unsigned char 
		 -> STR_180(25), 
  len             2   10[BANK3 ] unsigned int 
 Auto vars:     Size  Location     Type
		None
 Return value:  Size  Location     Type
                  2    6[BANK3 ] int 
 Registers used:
		wreg, fsr2l, fsr2h, status,2, status,0, tblptrl, tblptrh, tblptru
 Tracked objects:
		On entry : 
		On exit  : 
		Unchanged: 
 Data sizes:     COMRAM   BANK0   BANK1   BANK2   BANK3   BANK4   BANK5   BANK6   BANK7   BANK8   BANK9  BANK10  BANK11  BANK12  BANK13
      Params:         0       0       0       0       6       0       0       0       0       0       0       0       0       0       0
      Locals:         0       0       0       0       0       0       0       0       0       0       0       0       0       0       0
      Temps:          0       0       0       0       3       0       0       0       0       0       0       0       0       0       0
      Totals:         0       0       0       0       9       0       0       0       0       0       0       0       0       0       0
Total ram usage:        9 bytes
 Hardware stack levels used:    1
 Hardware stack levels required when called:   19
 This function calls:
		Nothing
 This function is called by:
		_strstr
 This function uses a non-reentrant model


 *************** function _strlen *****************
 Defined at:
		line 4 in file "C:\Program Files (x86)\Microchip\xc8\v1.45\sources\common\strlen.c"
 Parameters:    Size  Location     Type
  s               2    0[BANK3 ] PTR const unsigned char 
		 -> STR_180(25), line(64), 
 Auto vars:     Size  Location     Type
  cp              2    4[BANK3 ] PTR const unsigned char 
		 -> STR_180(25), line(64), 
 Return value:  Size  Location     Type
                  2    0[BANK3 ] unsigned int 
 Registers used:
		wreg, fsr0l, fsr0h, status,2, status,0, tblptrl, tblptrh, tblptru
 Tracked objects:
		On entry : 
		On exit  : 
		Unchanged: 
 Data sizes:     COMRAM   BANK0   BANK1   BANK2   BANK3   BANK4   BANK5   BANK6   BANK7   BANK8   BANK9  BANK10  BANK11  BANK12  BANK13
      Params:         0       0       0       0       2       0       0       0       0       0       0       0       0       0       0
      Locals:         0       0       0       0       2       0       0       0       0       0       0       0       0       0       0
      Temps:          0       0       0       0       2       0       0       0       0       0       0       0       0       0       0
      Totals:         0       0       0       0       6       0       0       0       0       0       0       0       0       0       0
Total ram usage:        6 bytes
 Hardware stack levels used:    1
 Hardware stack levels required when called:   19
 This function calls:
		Nothing
 This function is called by:
		_terminal_ringBufferPull
		_ringBufferLUT
		_strstr
 This function uses a non-reentrant model


 *************** function _strchr *****************
 Defined at:
		line 4 in file "C:\Program Files (x86)\Microchip\xc8\v1.45\sources\common\strchr.c"
 Parameters:    Size  Location     Type
  ptr             2    0[BANK3 ] PTR const unsigned char 
		 -> line(64), NULL(0), 
  chr             2    2[BANK3 ] int 
 Auto vars:     Size  Location     Type
		None
 Return value:  Size  Location     Type
                  2    0[BANK3 ] PTR unsigned char 
 Registers used:
		wreg, fsr2l, fsr2h, status,2, status,0
 Tracked objects:
		On entry : 
		On exit  : 
		Unchanged: 
 Data sizes:     COMRAM   BANK0   BANK1   BANK2   BANK3   BANK4   BANK5   BANK6   BANK7   BANK8   BANK9  BANK10  BANK11  BANK12  BANK13
      Params:         0       0       0       0       4       0       0       0       0       0       0       0       0       0       0
      Locals:         0       0       0       0       0       0       0       0       0       0       0       0       0       0       0
      Temps:          0       0       0       0       1       0       0       0       0       0       0       0       0       0       0
      Totals:         0       0       0       0       5       0       0       0       0       0       0       0       0       0       0
Total ram usage:        5 bytes
 Hardware stack levels used:    1
 Hardware stack levels required when called:   19
 This function calls:
		Nothing
 This function is called by:
		_strstr
 This function uses a non-reentrant model


 *************** function _strcmp *****************
 Defined at:
		line 33 in file "C:\Program Files (x86)\Microchip\xc8\v1.45\sources\common\strcmp.c"
 Parameters:    Size  Location     Type
  s1              2    0[BANK3 ] PTR const unsigned char 
		 -> line(64), 
  s2              2    2[BANK3 ] PTR const unsigned char 
		 -> STR_271(11), STR_264(5), STR_262(9), STR_260(29), 
		 -> STR_258(34), STR_256(33), STR_254(29), STR_251(25), 
		 -> STR_237(20), STR_205(15), STR_203(17), STR_201(17), 
		 -> STR_199(14), STR_197(19), STR_195(20), STR_193(11), 
		 -> STR_191(17), STR_189(14), STR_187(16), STR_178(13), 
		 -> STR_174(17), STR_171(14), STR_169(12), STR_167(16), 
		 -> STR_163(17), STR_158(15), STR_156(13), STR_152(16), 
		 -> STR_150(15), STR_148(21), STR_146(21), STR_144(26), 
		 -> STR_142(14), STR_140(13), STR_138(18), STR_136(15), 
		 -> STR_134(16), STR_132(18), STR_126(13), STR_124(17), 
		 -> STR_112(12), STR_109(10), STR_107(13), STR_105(11), 
		 -> STR_102(4), STR_101(6), STR_99(16), STR_96(6), 
		 -> STR_93(6), 
 Auto vars:     Size  Location     Type
  r               1    5[BANK3 ] char 
 Return value:  Size  Location     Type
                  2    0[BANK3 ] int 
 Registers used:
		wreg, fsr2l, fsr2h, status,2, status,0, tblptrl, tblptrh, tblptru
 Tracked objects:
		On entry : 
		On exit  : 
		Unchanged: 
 Data sizes:     COMRAM   BANK0   BANK1   BANK2   BANK3   BANK4   BANK5   BANK6   BANK7   BANK8   BANK9  BANK10  BANK11  BANK12  BANK13
      Params:         0       0       0       0       4       0       0       0       0       0       0       0       0       0       0
      Locals:         0       0       0       0       1       0       0       0       0       0       0       0       0       0       0
      Temps:          0       0       0       0       1       0       0       0       0       0       0       0       0       0       0
      Totals:         0       0       0       0       6       0       0       0       0       0       0       0       0       0       0
Total ram usage:        6 bytes
 Hardware stack levels used:    1
 Hardware stack levels required when called:   19
 This function calls:
		Nothing
 This function is called by:
		_ringBufferLUT
 This function uses a non-reentrant model


 *************** function _clearCOMMErrors *****************
 Defined at:
		line 90 in file "error_handling.c"
 Parameters:    Size  Location     Type
		None
 Auto vars:     Size  Location     Type
		None
 Return value:  Size  Location     Type
                  1    wreg      void 
 Registers used:
		wreg, status,2
 Tracked objects:
		On entry : 
		On exit  : 
		Unchanged: 
 Data sizes:     COMRAM   BANK0   BANK1   BANK2   BANK3   BANK4   BANK5   BANK6   BANK7   BANK8   BANK9  BANK10  BANK11  BANK12  BANK13
      Params:         0       0       0       0       0       0       0       0       0       0       0       0       0       0       0
      Locals:         0       0       0       0       0       0       0       0       0       0       0       0       0       0       0
      Temps:          0       0       0       0       0       0       0       0       0       0       0       0       0       0       0
      Totals:         0       0       0       0       0       0       0       0       0       0       0       0       0       0       0
Total ram usage:        0 bytes
 Hardware stack levels used:    1
 Hardware stack levels required when called:   19
 This function calls:
		Nothing
 This function is called by:
		_ringBufferLUT
 This function uses a non-reentrant model


 *************** function _clearADCErrors *****************
 Defined at:
		line 73 in file "error_handling.c"
 Parameters:    Size  Location     Type
		None
 Auto vars:     Size  Location     Type
		None
 Return value:  Size  Location     Type
                  1    wreg      void 
 Registers used:
		wreg, status,2
 Tracked objects:
		On entry : 
		On exit  : 
		Unchanged: 
 Data sizes:     COMRAM   BANK0   BANK1   BANK2   BANK3   BANK4   BANK5   BANK6   BANK7   BANK8   BANK9  BANK10  BANK11  BANK12  BANK13
      Params:         0       0       0       0       0       0       0       0       0       0       0       0       0       0       0
      Locals:         0       0       0       0       0       0       0       0       0       0       0       0       0       0       0
      Temps:          0       0       0       0       0       0       0       0       0       0       0       0       0       0       0
      Totals:         0       0       0       0       0       0       0       0       0       0       0       0       0       0       0
Total ram usage:        0 bytes
 Hardware stack levels used:    1
 Hardware stack levels required when called:   19
 This function calls:
		Nothing
 This function is called by:
		_ringBufferLUT
 This function uses a non-reentrant model


 *************** function _atoi *****************
 Defined at:
		line 5 in file "C:\Program Files (x86)\Microchip\xc8\v1.45\sources\common\atoi.c"
 Parameters:    Size  Location     Type
  s               2    6[BANK3 ] PTR const unsigned char 
		 -> ringBufferLUT@arg_buff(3), 
 Auto vars:     Size  Location     Type
  a               2   11[BANK3 ] int 
  sign            1   10[BANK3 ] unsigned char 
 Return value:  Size  Location     Type
                  2    6[BANK3 ] int 
 Registers used:
		wreg, fsr2l, fsr2h, status,2, status,0, prodl, prodh, cstack
 Tracked objects:
		On entry : 
		On exit  : 
		Unchanged: 
 Data sizes:     COMRAM   BANK0   BANK1   BANK2   BANK3   BANK4   BANK5   BANK6   BANK7   BANK8   BANK9  BANK10  BANK11  BANK12  BANK13
      Params:         0       0       0       0       2       0       0       0       0       0       0       0       0       0       0
      Locals:         0       0       0       0       3       0       0       0       0       0       0       0       0       0       0
      Temps:          0       0       0       0       2       0       0       0       0       0       0       0       0       0       0
      Totals:         0       0       0       0       7       0       0       0       0       0       0       0       0       0       0
Total ram usage:        7 bytes
 Hardware stack levels used:    1
 Hardware stack levels required when called:   20
 This function calls:
		___wmul
		_isdigit
 This function is called by:
		_ringBufferLUT
 This function uses a non-reentrant model


 *************** function _TMR5_StopTimer *****************
 Defined at:
		line 105 in file "mcc_generated_files/tmr5.c"
 Parameters:    Size  Location     Type
		None
 Auto vars:     Size  Location     Type
		None
 Return value:  Size  Location     Type
                  1    wreg      void 
 Registers used:
		None
 Tracked objects:
		On entry : 
		On exit  : 
		Unchanged: 
 Data sizes:     COMRAM   BANK0   BANK1   BANK2   BANK3   BANK4   BANK5   BANK6   BANK7   BANK8   BANK9  BANK10  BANK11  BANK12  BANK13
      Params:         0       0       0       0       0       0       0       0       0       0       0       0       0       0       0
      Locals:         0       0       0       0       0       0       0       0       0       0       0       0       0       0       0
      Temps:          0       0       0       0       0       0       0       0       0       0       0       0       0       0       0
      Totals:         0       0       0       0       0       0       0       0       0       0       0       0       0       0       0
Total ram usage:        0 bytes
 Hardware stack levels used:    1
 Hardware stack levels required when called:   19
 This function calls:
		Nothing
 This function is called by:
		_main
		_ringBufferLUT
 This function uses a non-reentrant model


 *************** function _OLED_updateCallback *****************
 Defined at:
		line 487 in file "main.c"
 Parameters:    Size  Location     Type
		None
 Auto vars:     Size  Location     Type
  angle_degree    4   10[BANK6 ] void 
  percentage_p    3    7[BANK6 ] float 
  angle_string   17   72[BANK6 ] unsigned char [17]
  percentage_s   17   55[BANK6 ] unsigned char [17]
  rev_id_str     17   38[BANK6 ] unsigned char [17]
  dev_id_str     17   21[BANK6 ] unsigned char [17]
  percentage      3   18[BANK6 ] float 
  TRIAC_degree    3    4[BANK6 ] float 
 Return value:  Size  Location     Type
                  1    wreg      void 
 Registers used:
		wreg, fsr0l, fsr0h, fsr2l, fsr2h, status,2, status,0, pclath, tosl, tblptrl, tblptrh, tblptru, prodl, prodh, cstack
 Tracked objects:
		On entry : 
		On exit  : 
		Unchanged: 
 Data sizes:     COMRAM   BANK0   BANK1   BANK2   BANK3   BANK4   BANK5   BANK6   BANK7   BANK8   BANK9  BANK10  BANK11  BANK12  BANK13
      Params:         0       0       0       0       0       0       0       0       0       0       0       0       0       0       0
      Locals:         0       0       0       0       0       0       0      89       0       0       0       0       0       0       0
      Temps:          0       0       0       0       7       0       0       0       0       0       0       0       0       0       0
      Totals:         0       0       0       0       7       0       0      89       0       0       0       0       0       0       0
Total ram usage:       96 bytes
 Hardware stack levels used:    1
 Hardware stack levels required when called:   25
 This function calls:
		_OLED_UpdateFromRAMBuffer
		_TMR2_Period8BitSet
		_TMR2_StartTimer
		_TMR2_StopTimer
		_TMR2_WriteTimer
		___fladd
		___fldiv
		___flge
		___flmul
		___flneg
		___ftdiv
		___lwtoft
		_acos
		_getCauseOfResetStringSmall
		_getDeviceID
		_getMajorRevisionID
		_getMinorRevisionID
		_printf
		_round
		_sprintf
		_strcpy
		_terminal_clearTerminal
		_terminal_printNewline
		_terminal_setCursorHome
		_terminal_textAttributes
		_terminal_textAttributesReset
 This function is called by:
		_main
		_ringBufferLUT
		_TMR2_CallBack
 This function uses a non-reentrant model


 *************** function _terminal_setCursorHome *****************
 Defined at:
		line 58 in file "ring_buffer_interface.c"
 Parameters:    Size  Location     Type
		None
 Auto vars:     Size  Location     Type
		None
 Return value:  Size  Location     Type
                  1    wreg      void 
 Registers used:
		wreg, fsr0l, fsr0h, fsr2l, fsr2h, status,2, status,0, pclath, tosl, tblptrl, tblptrh, tblptru, prodl, prodh, cstack
 Tracked objects:
		On entry : 
		On exit  : 
		Unchanged: 
 Data sizes:     COMRAM   BANK0   BANK1   BANK2   BANK3   BANK4   BANK5   BANK6   BANK7   BANK8   BANK9  BANK10  BANK11  BANK12  BANK13
      Params:         0       0       0       0       0       0       0       0       0       0       0       0       0       0       0
      Locals:         0       0       0       0       0       0       0       0       0       0       0       0       0       0       0
      Temps:          0       0       0       0       0       0       0       0       0       0       0       0       0       0       0
      Totals:         0       0       0       0       0       0       0       0       0       0       0       0       0       0       0
Total ram usage:        0 bytes
 Hardware stack levels used:    1
 Hardware stack levels required when called:   23
 This function calls:
		_printf
 This function is called by:
		_OLED_updateCallback
		_main
 This function uses a non-reentrant model


 *************** function _terminal_clearTerminal *****************
 Defined at:
		line 53 in file "ring_buffer_interface.c"
 Parameters:    Size  Location     Type
		None
 Auto vars:     Size  Location     Type
		None
 Return value:  Size  Location     Type
                  1    wreg      void 
 Registers used:
		wreg, fsr0l, fsr0h, fsr2l, fsr2h, status,2, status,0, pclath, tosl, tblptrl, tblptrh, tblptru, prodl, prodh, cstack
 Tracked objects:
		On entry : 
		On exit  : 
		Unchanged: 
 Data sizes:     COMRAM   BANK0   BANK1   BANK2   BANK3   BANK4   BANK5   BANK6   BANK7   BANK8   BANK9  BANK10  BANK11  BANK12  BANK13
      Params:         0       0       0       0       0       0       0       0       0       0       0       0       0       0       0
      Locals:         0       0       0       0       0       0       0       0       0       0       0       0       0       0       0
      Temps:          0       0       0       0       0       0       0       0       0       0       0       0       0       0       0
      Totals:         0       0       0       0       0       0       0       0       0       0       0       0       0       0       0
Total ram usage:        0 bytes
 Hardware stack levels used:    1
 Hardware stack levels required when called:   23
 This function calls:
		_printf
 This function is called by:
		_OLED_updateCallback
		_main
 This function uses a non-reentrant model


 *************** function _strcpy *****************
 Defined at:
		line 8 in file "C:\Program Files (x86)\Microchip\xc8\v1.45\sources\common\strcpy.c"
 Parameters:    Size  Location     Type
  to              2    3[BANK3 ] PTR unsigned char 
		 -> OLED_RAM_Buffer(68), 
  from            2    5[BANK3 ] PTR const unsigned char 
		 -> STR_339(10), STR_338(11), STR_337(11), STR_336(15), 
		 -> STR_335(11), STR_334(10), STR_333(11), STR_332(10), 
		 -> STR_331(10), STR_330(10), print_Energy_str(17), print_Power_str(17), 
		 -> print_Vrms_str(17), print_Irms_str(17), OLED_updateCallback@angle_string(17), STR_35(13), 
		 -> OLED_updateCallback@percentage_string(17), STR_33(17), STR_32(2), STR_31(2), 
		 -> STR_30(2), STR_29(17), STR_28(2), STR_27(2), 
		 -> STR_26(2), STR_25(16), STR_24(2), STR_23(2), 
		 -> STR_22(2), STR_21(14), STR_20(2), STR_19(2), 
		 -> STR_18(2), STR_17(13), STR_16(16), STR_15(14), 
		 -> STR_14(14), STR_13(14), STR_12(15), STR_11(16), 
		 -> STR_10(10), STR_9(16), OLED_updateCallback@rev_id_str(17), STR_7(13), 
		 -> OLED_updateCallback@dev_id_str(17), STR_5(11), STR_4(14), STR_3(10), 
		 -> STR_2(15), 
 Auto vars:     Size  Location     Type
  cp              2    7[BANK3 ] PTR unsigned char 
		 -> OLED_RAM_Buffer(68), 
 Return value:  Size  Location     Type
                  2    3[BANK3 ] PTR unsigned char 
 Registers used:
		wreg, fsr0l, fsr0h, fsr2l, fsr2h, status,2, status,0, tblptrl, tblptrh, tblptru
 Tracked objects:
		On entry : 
		On exit  : 
		Unchanged: 
 Data sizes:     COMRAM   BANK0   BANK1   BANK2   BANK3   BANK4   BANK5   BANK6   BANK7   BANK8   BANK9  BANK10  BANK11  BANK12  BANK13
      Params:         0       0       0       0       4       0       0       0       0       0       0       0       0       0       0
      Locals:         0       0       0       0       2       0       0       0       0       0       0       0       0       0       0
      Temps:          0       0       0       0       0       0       0       0       0       0       0       0       0       0       0
      Totals:         0       0       0       0       6       0       0       0       0       0       0       0       0       0       0
Total ram usage:        6 bytes
 Hardware stack levels used:    1
 Hardware stack levels required when called:   19
 This function calls:
		Nothing
 This function is called by:
		_OLED_updateCallback
 This function uses a non-reentrant model


 *************** function _sprintf *****************
 Defined at:
		line 13 in file "C:\Program Files (x86)\Microchip\xc8\v1.45\sources\common\sprintf.c"
 Parameters:    Size  Location     Type
  wh              2  177[BANK3 ] PTR unsigned char 
		 -> ftoa@buf(17), print_Energy_str(17), print_Power_str(17), print_Vrms_str(17), 
		 -> print_Irms_str(17), OLED_updateCallback@angle_string(17), OLED_updateCallback@percentage_string(17), OLED_updateCallback@rev_id_str(17), 
		 -> OLED_updateCallback@dev_id_str(17), 
  f               2  179[BANK3 ] PTR const unsigned char 
		 -> STR_344(11), STR_42(12), STR_41(12), STR_40(12), 
		 -> STR_39(11), STR_38(10), STR_37(10), STR_36(9), 
		 -> STR_34(13), STR_8(7), STR_6(5), 
 Auto vars:     Size  Location     Type
  pb              5  191[BANK3 ] struct __prbuf
  ap              2  189[BANK3 ] PTR void [1]
		 -> ?i1_sprintf(2), ?_sprintf(2), ?_printf(2), 
 Return value:  Size  Location     Type
                  2  177[BANK3 ] int 
 Registers used:
		wreg, fsr0l, fsr0h, fsr2l, fsr2h, status,2, status,0, pclath, tosl, tblptrl, tblptrh, tblptru, prodl, prodh, cstack
 Tracked objects:
		On entry : 
		On exit  : 
		Unchanged: 
 Data sizes:     COMRAM   BANK0   BANK1   BANK2   BANK3   BANK4   BANK5   BANK6   BANK7   BANK8   BANK9  BANK10  BANK11  BANK12  BANK13
      Params:         0       0       0       0      12       0       0       0       0       0       0       0       0       0       0
      Locals:         0       0       0       0       7       0       0       0       0       0       0       0       0       0       0
      Temps:          0       0       0       0       0       0       0       0       0       0       0       0       0       0       0
      Totals:         0       0       0       0      19       0       0       0       0       0       0       0       0       0       0
Total ram usage:       19 bytes
 Hardware stack levels used:    1
 Hardware stack levels required when called:   22
 This function calls:
		__doprnt
 This function is called by:
		_OLED_updateCallback
		_ftoa
 This function uses a non-reentrant model


 *************** function _round *****************
 Defined at:
		line 6 in file "C:\Program Files (x86)\Microchip\xc8\v1.45\sources\common\round.c"
 Parameters:    Size  Location     Type
  x               4  191[BANK3 ] int 
 Auto vars:     Size  Location     Type
  f               4  195[BANK3 ] int 
 Return value:  Size  Location     Type
                  4  191[BANK3 ] int 
 Registers used:
		wreg, fsr2l, fsr2h, status,2, status,0, cstack
 Tracked objects:
		On entry : 
		On exit  : 
		Unchanged: 
 Data sizes:     COMRAM   BANK0   BANK1   BANK2   BANK3   BANK4   BANK5   BANK6   BANK7   BANK8   BANK9  BANK10  BANK11  BANK12  BANK13
      Params:         0       0       0       0       4       0       0       0       0       0       0       0       0       0       0
      Locals:         0       0       0       0       4       0       0       0       0       0       0       0       0       0       0
      Temps:          0       0       0       0       0       0       0       0       0       0       0       0       0       0       0
      Totals:         0       0       0       0       8       0       0       0       0       0       0       0       0       0       0
Total ram usage:        8 bytes
 Hardware stack levels used:    1
 Hardware stack levels required when called:   21
 This function calls:
		___fladd
		___flneg
		_trunc
 This function is called by:
		_OLED_updateCallback
		_ringBufferLUT
 This function uses a non-reentrant model


 *************** function _trunc *****************
 Defined at:
		line 13 in file "C:\Program Files (x86)\Microchip\xc8\v1.45\sources\common\trunc.c"
 Parameters:    Size  Location     Type
  x               4   38[BANK3 ] int 
 Auto vars:     Size  Location     Type
  i               4   42[BANK3 ] int 
  expon           2   46[BANK3 ] int 
 Return value:  Size  Location     Type
                  4   38[BANK3 ] int 
 Registers used:
		wreg, fsr2l, fsr2h, status,2, status,0, cstack
 Tracked objects:
		On entry : 
		On exit  : 
		Unchanged: 
 Data sizes:     COMRAM   BANK0   BANK1   BANK2   BANK3   BANK4   BANK5   BANK6   BANK7   BANK8   BANK9  BANK10  BANK11  BANK12  BANK13
      Params:         0       0       0       0       4       0       0       0       0       0       0       0       0       0       0
      Locals:         0       0       0       0       6       0       0       0       0       0       0       0       0       0       0
      Temps:          0       0       0       0       0       0       0       0       0       0       0       0       0       0       0
      Totals:         0       0       0       0      10       0       0       0       0       0       0       0       0       0       0
Total ram usage:       10 bytes
 Hardware stack levels used:    1
 Hardware stack levels required when called:   20
 This function calls:
		___fltol
		___xxtofl
		_frexp
 This function is called by:
		_round
 This function uses a non-reentrant model


 *************** function _frexp *****************
 Defined at:
		line 254 in file "C:\Program Files (x86)\Microchip\xc8\v1.45\sources\common\frexp.c"
 Parameters:    Size  Location     Type
  value           4    0[BANK3 ] int 
  eptr            2    4[BANK3 ] PTR int 
		 -> floor@expon(2), trunc@expon(2), 
 Auto vars:     Size  Location     Type
		None
 Return value:  Size  Location     Type
                  4    0[BANK3 ] PTR int 
 Registers used:
		wreg, fsr2l, fsr2h, status,2, status,0
 Tracked objects:
		On entry : 
		On exit  : 
		Unchanged: 
 Data sizes:     COMRAM   BANK0   BANK1   BANK2   BANK3   BANK4   BANK5   BANK6   BANK7   BANK8   BANK9  BANK10  BANK11  BANK12  BANK13
      Params:         0       0       0       0       6       0       0       0       0       0       0       0       0       0       0
      Locals:         0       0       0       0       0       0       0       0       0       0       0       0       0       0       0
      Temps:          0       0       0       0       2       0       0       0       0       0       0       0       0       0       0
      Totals:         0       0       0       0       8       0       0       0       0       0       0       0       0       0       0
Total ram usage:        8 bytes
 Hardware stack levels used:    1
 Hardware stack levels required when called:   19
 This function calls:
		Nothing
 This function is called by:
		_trunc
 This function uses a non-reentrant model


 *************** function _getCauseOfResetStringSmall *****************
 Defined at:
		line 118 in file "cause_of_reset.c"
 Parameters:    Size  Location     Type
  r               1    wreg     enum E17455
 Auto vars:     Size  Location     Type
  r               1    2[BANK3 ] enum E17455
 Return value:  Size  Location     Type
                  2    0[BANK3 ] PTR inline unsigned char
 Registers used:
		wreg, fsr2l, fsr2h, status,2, status,0, prodl, prodh
 Tracked objects:
		On entry : 
		On exit  : 
		Unchanged: 
 Data sizes:     COMRAM   BANK0   BANK1   BANK2   BANK3   BANK4   BANK5   BANK6   BANK7   BANK8   BANK9  BANK10  BANK11  BANK12  BANK13
      Params:         0       0       0       0       2       0       0       0       0       0       0       0       0       0       0
      Locals:         0       0       0       0       1       0       0       0       0       0       0       0       0       0       0
      Temps:          0       0       0       0       0       0       0       0       0       0       0       0       0       0       0
      Totals:         0       0       0       0       3       0       0       0       0       0       0       0       0       0       0
Total ram usage:        3 bytes
 Hardware stack levels used:    1
 Hardware stack levels required when called:   19
 This function calls:
		Nothing
 This function is called by:
		_OLED_updateCallback
 This function uses a non-reentrant model


 *************** function _acos *****************
 Defined at:
		line 8 in file "C:\Program Files (x86)\Microchip\xc8\v1.45\sources\common\acos.c"
 Parameters:    Size  Location     Type
  x               4  183[BANK3 ] PTR inline unsigned char
 Auto vars:     Size  Location     Type
		None
 Return value:  Size  Location     Type
                  4  183[BANK3 ] PTR inline unsigned char
 Registers used:
		wreg, status,2, status,0, tblptrl, tblptrh, tblptru, prodl, prodh, cstack
 Tracked objects:
		On entry : 
		On exit  : 
		Unchanged: 
 Data sizes:     COMRAM   BANK0   BANK1   BANK2   BANK3   BANK4   BANK5   BANK6   BANK7   BANK8   BANK9  BANK10  BANK11  BANK12  BANK13
      Params:         0       0       0       0       4       0       0       0       0       0       0       0       0       0       0
      Locals:         0       0       0       0       4       0       0       0       0       0       0       0       0       0       0
      Temps:          0       0       0       0       0       0       0       0       0       0       0       0       0       0       0
      Totals:         0       0       0       0       8       0       0       0       0       0       0       0       0       0       0
Total ram usage:        8 bytes
 Hardware stack levels used:    1
 Hardware stack levels required when called:   23
 This function calls:
		___fladd
		___flneg
		_asin
 This function is called by:
		_OLED_updateCallback
 This function uses a non-reentrant model


 *************** function _asin *****************
 Defined at:
		line 9 in file "C:\Program Files (x86)\Microchip\xc8\v1.45\sources\common\asin.c"
 Parameters:    Size  Location     Type
  x               4  159[BANK3 ] PTR inline unsigned char
 Auto vars:     Size  Location     Type
  y               4  175[BANK3 ] PTR inline unsigned char
  sgn             4  163[BANK3 ] PTR inline unsigned char
 Return value:  Size  Location     Type
                  4  159[BANK3 ] PTR inline unsigned char
 Registers used:
		wreg, status,2, status,0, tblptrl, tblptrh, tblptru, prodl, prodh, cstack
 Tracked objects:
		On entry : 
		On exit  : 
		Unchanged: 
 Data sizes:     COMRAM   BANK0   BANK1   BANK2   BANK3   BANK4   BANK5   BANK6   BANK7   BANK8   BANK9  BANK10  BANK11  BANK12  BANK13
      Params:         0       0       0       0       4       0       0       0       0       0       0       0       0       0       0
      Locals:         0       0       0       0      20       0       0       0       0       0       0       0       0       0       0
      Temps:          0       0       0       0       0       0       0       0       0       0       0       0       0       0       0
      Totals:         0       0       0       0      24       0       0       0       0       0       0       0       0       0       0
Total ram usage:       24 bytes
 Hardware stack levels used:    1
 Hardware stack levels required when called:   22
 This function calls:
		___fladd
		___fldiv
		___flge
		___flmul
		___flneg
		_atan
		_fabs
		_sqrt
 This function is called by:
		_acos
 This function uses a non-reentrant model


 *************** function _sqrt *****************
 Defined at:
		line 9 in file "C:\Program Files (x86)\Microchip\xc8\v1.45\sources\common\sprcsqrt.c"
 Parameters:    Size  Location     Type
  a               4  122[BANK3 ] PTR inline unsigned char
 Auto vars:     Size  Location     Type
  root            4  147[BANK3 ] struct .
  frac            4  143[BANK3 ] unsigned long 
  grs             4  137[BANK3 ] unsigned long 
  tfrac           4  132[BANK3 ] unsigned long 
  exp             2  141[BANK3 ] int 
  p               1  136[BANK3 ] unsigned char 
  i               1  131[BANK3 ] unsigned char 
  sign            1  130[BANK3 ] unsigned char 
 Return value:  Size  Location     Type
                  4  122[BANK3 ] unsigned char 
 Registers used:
		wreg, status,2, status,0
 Tracked objects:
		On entry : 
		On exit  : 
		Unchanged: 
 Data sizes:     COMRAM   BANK0   BANK1   BANK2   BANK3   BANK4   BANK5   BANK6   BANK7   BANK8   BANK9  BANK10  BANK11  BANK12  BANK13
      Params:         0       0       0       0       4       0       0       0       0       0       0       0       0       0       0
      Locals:         0       0       0       0      21       0       0       0       0       0       0       0       0       0       0
      Temps:          0       0       0       0       4       0       0       0       0       0       0       0       0       0       0
      Totals:         0       0       0       0      29       0       0       0       0       0       0       0       0       0       0
Total ram usage:       29 bytes
 Hardware stack levels used:    1
 Hardware stack levels required when called:   19
 This function calls:
		Nothing
 This function is called by:
		_asin
 This function uses a non-reentrant model


 *************** function _atan *****************
 Defined at:
		line 8 in file "C:\Program Files (x86)\Microchip\xc8\v1.45\sources\common\atan.c"
 Parameters:    Size  Location     Type
  f               4  138[BANK3 ] unsigned char 
 Auto vars:     Size  Location     Type
  val             4  155[BANK3 ] unsigned char 
  val_squared     4  151[BANK3 ] unsigned char 
  x               4  146[BANK3 ] unsigned char 
  y               4  142[BANK3 ] unsigned char 
  recip           1  150[BANK3 ] unsigned char 
 Return value:  Size  Location     Type
                  4  138[BANK3 ] unsigned char 
 Registers used:
		wreg, status,2, status,0, tblptrl, tblptrh, tblptru, prodl, prodh, cstack
 Tracked objects:
		On entry : 
		On exit  : 
		Unchanged: 
 Data sizes:     COMRAM   BANK0   BANK1   BANK2   BANK3   BANK4   BANK5   BANK6   BANK7   BANK8   BANK9  BANK10  BANK11  BANK12  BANK13
      Params:         0       0       0       0       4       0       0       0       0       0       0       0       0       0       0
      Locals:         0       0       0       0      17       0       0       0       0       0       0       0       0       0       0
      Temps:          0       0       0       0       0       0       0       0       0       0       0       0       0       0       0
      Totals:         0       0       0       0      21       0       0       0       0       0       0       0       0       0       0
Total ram usage:       21 bytes
 Hardware stack levels used:    1
 Hardware stack levels required when called:   21
 This function calls:
		___fladd
		___fldiv
		___flge
		___flmul
		___flneg
		_eval_poly
		_fabs
 This function is called by:
		_asin
 This function uses a non-reentrant model


 *************** function _fabs *****************
 Defined at:
		line 4 in file "C:\Program Files (x86)\Microchip\xc8\v1.45\sources\common\fabs.c"
 Parameters:    Size  Location     Type
  d               4   52[BANK3 ] unsigned char 
 Auto vars:     Size  Location     Type
		None
 Return value:  Size  Location     Type
                  4   52[BANK3 ] unsigned char 
 Registers used:
		wreg, status,2, status,0, cstack
 Tracked objects:
		On entry : 
		On exit  : 
		Unchanged: 
 Data sizes:     COMRAM   BANK0   BANK1   BANK2   BANK3   BANK4   BANK5   BANK6   BANK7   BANK8   BANK9  BANK10  BANK11  BANK12  BANK13
      Params:         0       0       0       0       4       0       0       0       0       0       0       0       0       0       0
      Locals:         0       0       0       0       0       0       0       0       0       0       0       0       0       0       0
      Temps:          0       0       0       0       0       0       0       0       0       0       0       0       0       0       0
      Totals:         0       0       0       0       4       0       0       0       0       0       0       0       0       0       0
Total ram usage:        4 bytes
 Hardware stack levels used:    1
 Hardware stack levels required when called:   20
 This function calls:
		___flneg
 This function is called by:
		_asin
		_atan
 This function uses a non-reentrant model


 *************** function _eval_poly *****************
 Defined at:
		line 4 in file "C:\Program Files (x86)\Microchip\xc8\v1.45\sources\common\evalpoly.c"
 Parameters:    Size  Location     Type
  x               4  122[BANK3 ] unsigned char 
  d               2  126[BANK3 ] PTR const 
		 -> sin@coeff_a(20), sin@coeff_b(16), atan@coeff_a(24), atan@coeff_b(20), 
  n               2  128[BANK3 ] int 
 Auto vars:     Size  Location     Type
  res             4  134[BANK3 ] int 
 Return value:  Size  Location     Type
                  4  122[BANK3 ] int 
 Registers used:
		wreg, status,2, status,0, tblptrl, tblptrh, tblptru, prodl, prodh, cstack
 Tracked objects:
		On entry : 
		On exit  : 
		Unchanged: 
 Data sizes:     COMRAM   BANK0   BANK1   BANK2   BANK3   BANK4   BANK5   BANK6   BANK7   BANK8   BANK9  BANK10  BANK11  BANK12  BANK13
      Params:         0       0       0       0       8       0       0       0       0       0       0       0       0       0       0
      Locals:         0       0       0       0       4       0       0       0       0       0       0       0       0       0       0
      Temps:          0       0       0       0       4       0       0       0       0       0       0       0       0       0       0
      Totals:         0       0       0       0      16       0       0       0       0       0       0       0       0       0       0
Total ram usage:       16 bytes
 Hardware stack levels used:    1
 Hardware stack levels required when called:   20
 This function calls:
		___fladd
		___flmul
 This function is called by:
		_atan
 This function uses a non-reentrant model


 *************** function ___lwtoft *****************
 Defined at:
		line 28 in file "C:\Program Files (x86)\Microchip\xc8\v1.45\sources\common\lwtoft.c"
 Parameters:    Size  Location     Type
  c               2    8[BANK3 ] unsigned int 
 Auto vars:     Size  Location     Type
		None
 Return value:  Size  Location     Type
                  3    8[BANK3 ] float 
 Registers used:
		wreg, status,2, status,0, cstack
 Tracked objects:
		On entry : 
		On exit  : 
		Unchanged: 
 Data sizes:     COMRAM   BANK0   BANK1   BANK2   BANK3   BANK4   BANK5   BANK6   BANK7   BANK8   BANK9  BANK10  BANK11  BANK12  BANK13
      Params:         0       0       0       0       3       0       0       0       0       0       0       0       0       0       0
      Locals:         0       0       0       0       0       0       0       0       0       0       0       0       0       0       0
      Temps:          0       0       0       0       0       0       0       0       0       0       0       0       0       0       0
      Totals:         0       0       0       0       3       0       0       0       0       0       0       0       0       0       0
Total ram usage:        3 bytes
 Hardware stack levels used:    1
 Hardware stack levels required when called:   20
 This function calls:
		___ftpack
 This function is called by:
		_OLED_updateCallback
 This function uses a non-reentrant model


 *************** function ___ftdiv *****************
 Defined at:
		line 54 in file "C:\Program Files (x86)\Microchip\xc8\v1.45\sources\common\ftdiv.c"
 Parameters:    Size  Location     Type
  f1              3   11[BANK3 ] float 
  f2              3   14[BANK3 ] float 
 Auto vars:     Size  Location     Type
  f3              3   21[BANK3 ] float 
  sign            1   25[BANK3 ] unsigned char 
  exp             1   24[BANK3 ] unsigned char 
  cntr            1   20[BANK3 ] unsigned char 
 Return value:  Size  Location     Type
                  3   11[BANK3 ] float 
 Registers used:
		wreg, status,2, status,0, cstack
 Tracked objects:
		On entry : 
		On exit  : 
		Unchanged: 
 Data sizes:     COMRAM   BANK0   BANK1   BANK2   BANK3   BANK4   BANK5   BANK6   BANK7   BANK8   BANK9  BANK10  BANK11  BANK12  BANK13
      Params:         0       0       0       0       6       0       0       0       0       0       0       0       0       0       0
      Locals:         0       0       0       0       6       0       0       0       0       0       0       0       0       0       0
      Temps:          0       0       0       0       3       0       0       0       0       0       0       0       0       0       0
      Totals:         0       0       0       0      15       0       0       0       0       0       0       0       0       0       0
Total ram usage:       15 bytes
 Hardware stack levels used:    1
 Hardware stack levels required when called:   20
 This function calls:
		___ftpack
 This function is called by:
		_OLED_updateCallback
 This function uses a non-reentrant model


 *************** function ___ftpack *****************
 Defined at:
		line 62 in file "C:\Program Files (x86)\Microchip\xc8\v1.45\sources\common\float.c"
 Parameters:    Size  Location     Type
  arg             3    0[BANK3 ] unsigned um
  exp             1    3[BANK3 ] unsigned char 
  sign            1    4[BANK3 ] unsigned char 
 Auto vars:     Size  Location     Type
		None
 Return value:  Size  Location     Type
                  3    0[BANK3 ] float 
 Registers used:
		wreg, status,2, status,0
 Tracked objects:
		On entry : 
		On exit  : 
		Unchanged: 
 Data sizes:     COMRAM   BANK0   BANK1   BANK2   BANK3   BANK4   BANK5   BANK6   BANK7   BANK8   BANK9  BANK10  BANK11  BANK12  BANK13
      Params:         0       0       0       0       5       0       0       0       0       0       0       0       0       0       0
      Locals:         0       0       0       0       0       0       0       0       0       0       0       0       0       0       0
      Temps:          0       0       0       0       3       0       0       0       0       0       0       0       0       0       0
      Totals:         0       0       0       0       8       0       0       0       0       0       0       0       0       0       0
Total ram usage:        8 bytes
 Hardware stack levels used:    1
 Hardware stack levels required when called:   19
 This function calls:
		Nothing
 This function is called by:
		___ftdiv
		___lwtoft
 This function uses a non-reentrant model


 *************** function _TMR2_WriteTimer *****************
 Defined at:
		line 150 in file "mcc_generated_files/tmr2.c"
 Parameters:    Size  Location     Type
  timerVal        1    wreg     unsigned char 
 Auto vars:     Size  Location     Type
  timerVal        1    1[BANK3 ] unsigned char 
 Return value:  Size  Location     Type
                  1    wreg      void 
 Registers used:
		wreg, status,2, cstack
 Tracked objects:
		On entry : 
		On exit  : 
		Unchanged: 
 Data sizes:     COMRAM   BANK0   BANK1   BANK2   BANK3   BANK4   BANK5   BANK6   BANK7   BANK8   BANK9  BANK10  BANK11  BANK12  BANK13
      Params:         0       0       0       0       0       0       0       0       0       0       0       0       0       0       0
      Locals:         0       0       0       0       1       0       0       0       0       0       0       0       0       0       0
      Temps:          0       0       0       0       0       0       0       0       0       0       0       0       0       0       0
      Totals:         0       0       0       0       1       0       0       0       0       0       0       0       0       0       0
Total ram usage:        1 bytes
 Hardware stack levels used:    1
 Hardware stack levels required when called:   20
 This function calls:
		_TMR2_Counter8BitSet
 This function is called by:
		_OLED_updateCallback
		_main
 This function uses a non-reentrant model


 *************** function _TMR2_Counter8BitSet *****************
 Defined at:
		line 144 in file "mcc_generated_files/tmr2.c"
 Parameters:    Size  Location     Type
  timerVal        1    wreg     unsigned char 
 Auto vars:     Size  Location     Type
  timerVal        1    0[BANK3 ] unsigned char 
 Return value:  Size  Location     Type
                  1    wreg      void 
 Registers used:
		wreg
 Tracked objects:
		On entry : 
		On exit  : 
		Unchanged: 
 Data sizes:     COMRAM   BANK0   BANK1   BANK2   BANK3   BANK4   BANK5   BANK6   BANK7   BANK8   BANK9  BANK10  BANK11  BANK12  BANK13
      Params:         0       0       0       0       0       0       0       0       0       0       0       0       0       0       0
      Locals:         0       0       0       0       1       0       0       0       0       0       0       0       0       0       0
      Temps:          0       0       0       0       0       0       0       0       0       0       0       0       0       0       0
      Totals:         0       0       0       0       1       0       0       0       0       0       0       0       0       0       0
Total ram usage:        1 bytes
 Hardware stack levels used:    1
 Hardware stack levels required when called:   19
 This function calls:
		Nothing
 This function is called by:
		_TMR2_WriteTimer
 This function uses a non-reentrant model


 *************** function _TMR2_StopTimer *****************
 Defined at:
		line 125 in file "mcc_generated_files/tmr2.c"
 Parameters:    Size  Location     Type
		None
 Auto vars:     Size  Location     Type
		None
 Return value:  Size  Location     Type
                  1    wreg      void 
 Registers used:
		cstack
 Tracked objects:
		On entry : 
		On exit  : 
		Unchanged: 
 Data sizes:     COMRAM   BANK0   BANK1   BANK2   BANK3   BANK4   BANK5   BANK6   BANK7   BANK8   BANK9  BANK10  BANK11  BANK12  BANK13
      Params:         0       0       0       0       0       0       0       0       0       0       0       0       0       0       0
      Locals:         0       0       0       0       0       0       0       0       0       0       0       0       0       0       0
      Temps:          0       0       0       0       0       0       0       0       0       0       0       0       0       0       0
      Totals:         0       0       0       0       0       0       0       0       0       0       0       0       0       0       0
Total ram usage:        0 bytes
 Hardware stack levels used:    1
 Hardware stack levels required when called:   20
 This function calls:
		_TMR2_Stop
 This function is called by:
		_OLED_updateCallback
		_main
		_ringBufferLUT
 This function uses a non-reentrant model


 *************** function _TMR2_Stop *****************
 Defined at:
		line 119 in file "mcc_generated_files/tmr2.c"
 Parameters:    Size  Location     Type
		None
 Auto vars:     Size  Location     Type
		None
 Return value:  Size  Location     Type
                  1    wreg      void 
 Registers used:
		None
 Tracked objects:
		On entry : 
		On exit  : 
		Unchanged: 
 Data sizes:     COMRAM   BANK0   BANK1   BANK2   BANK3   BANK4   BANK5   BANK6   BANK7   BANK8   BANK9  BANK10  BANK11  BANK12  BANK13
      Params:         0       0       0       0       0       0       0       0       0       0       0       0       0       0       0
      Locals:         0       0       0       0       0       0       0       0       0       0       0       0       0       0       0
      Temps:          0       0       0       0       0       0       0       0       0       0       0       0       0       0       0
      Totals:         0       0       0       0       0       0       0       0       0       0       0       0       0       0       0
Total ram usage:        0 bytes
 Hardware stack levels used:    1
 Hardware stack levels required when called:   19
 This function calls:
		Nothing
 This function is called by:
		_TMR2_StopTimer
 This function uses a non-reentrant model


 *************** function _TMR2_StartTimer *****************
 Defined at:
		line 114 in file "mcc_generated_files/tmr2.c"
 Parameters:    Size  Location     Type
		None
 Auto vars:     Size  Location     Type
		None
 Return value:  Size  Location     Type
                  1    wreg      void 
 Registers used:
		cstack
 Tracked objects:
		On entry : 
		On exit  : 
		Unchanged: 
 Data sizes:     COMRAM   BANK0   BANK1   BANK2   BANK3   BANK4   BANK5   BANK6   BANK7   BANK8   BANK9  BANK10  BANK11  BANK12  BANK13
      Params:         0       0       0       0       0       0       0       0       0       0       0       0       0       0       0
      Locals:         0       0       0       0       0       0       0       0       0       0       0       0       0       0       0
      Temps:          0       0       0       0       0       0       0       0       0       0       0       0       0       0       0
      Totals:         0       0       0       0       0       0       0       0       0       0       0       0       0       0       0
Total ram usage:        0 bytes
 Hardware stack levels used:    1
 Hardware stack levels required when called:   20
 This function calls:
		_TMR2_Start
 This function is called by:
		_OLED_updateCallback
 This function uses a non-reentrant model


 *************** function _TMR2_Start *****************
 Defined at:
		line 108 in file "mcc_generated_files/tmr2.c"
 Parameters:    Size  Location     Type
		None
 Auto vars:     Size  Location     Type
		None
 Return value:  Size  Location     Type
                  1    wreg      void 
 Registers used:
		None
 Tracked objects:
		On entry : 
		On exit  : 
		Unchanged: 
 Data sizes:     COMRAM   BANK0   BANK1   BANK2   BANK3   BANK4   BANK5   BANK6   BANK7   BANK8   BANK9  BANK10  BANK11  BANK12  BANK13
      Params:         0       0       0       0       0       0       0       0       0       0       0       0       0       0       0
      Locals:         0       0       0       0       0       0       0       0       0       0       0       0       0       0       0
      Temps:          0       0       0       0       0       0       0       0       0       0       0       0       0       0       0
      Totals:         0       0       0       0       0       0       0       0       0       0       0       0       0       0       0
Total ram usage:        0 bytes
 Hardware stack levels used:    1
 Hardware stack levels required when called:   19
 This function calls:
		Nothing
 This function is called by:
		_TMR2_StartTimer
 This function uses a non-reentrant model


 *************** function _TMR2_Period8BitSet *****************
 Defined at:
		line 155 in file "mcc_generated_files/tmr2.c"
 Parameters:    Size  Location     Type
  periodVal       1    wreg     unsigned char 
 Auto vars:     Size  Location     Type
  periodVal       1    0[BANK3 ] unsigned char 
 Return value:  Size  Location     Type
                  1    wreg      void 
 Registers used:
		wreg
 Tracked objects:
		On entry : 
		On exit  : 
		Unchanged: 
 Data sizes:     COMRAM   BANK0   BANK1   BANK2   BANK3   BANK4   BANK5   BANK6   BANK7   BANK8   BANK9  BANK10  BANK11  BANK12  BANK13
      Params:         0       0       0       0       0       0       0       0       0       0       0       0       0       0       0
      Locals:         0       0       0       0       1       0       0       0       0       0       0       0       0       0       0
      Temps:          0       0       0       0       0       0       0       0       0       0       0       0       0       0       0
      Totals:         0       0       0       0       1       0       0       0       0       0       0       0       0       0       0
Total ram usage:        1 bytes
 Hardware stack levels used:    1
 Hardware stack levels required when called:   19
 This function calls:
		Nothing
 This function is called by:
		_OLED_updateCallback
		_TMR2_LoadPeriodRegister
 This function uses a non-reentrant model


 *************** function _OLED_UpdateFromRAMBuffer *****************
 Defined at:
		line 313 in file "oled.c"
 Parameters:    Size  Location     Type
		None
 Auto vars:     Size  Location     Type
		None
 Return value:  Size  Location     Type
                  1    wreg      void 
 Registers used:
		wreg, fsr0l, fsr0h, fsr2l, fsr2h, status,2, status,0, tblptrl, tblptrh, tblptru, prodl, prodh, cstack
 Tracked objects:
		On entry : 
		On exit  : 
		Unchanged: 
 Data sizes:     COMRAM   BANK0   BANK1   BANK2   BANK3   BANK4   BANK5   BANK6   BANK7   BANK8   BANK9  BANK10  BANK11  BANK12  BANK13
      Params:         0       0       0       0       0       0       0       0       0       0       0       0       0       0       0
      Locals:         0       0       0       0       0       0       0       0       0       0       0       0       0       0       0
      Temps:          0       0       0       0       0       0       0       0       0       0       0       0       0       0       0
      Totals:         0       0       0       0       0       0       0       0       0       0       0       0       0       0       0
Total ram usage:        0 bytes
 Hardware stack levels used:    1
 Hardware stack levels required when called:   24
 This function calls:
		_OLED_Clear
		_OLED_WriteString
		_OLED_YX
 This function is called by:
		_OLED_updateCallback
 This function uses a non-reentrant model


 *************** function _OLED_YX *****************
 Defined at:
		line 220 in file "oled.c"
 Parameters:    Size  Location     Type
  Row             1    wreg     unsigned char 
  Column          1   20[BANK3 ] unsigned char 
 Auto vars:     Size  Location     Type
  Row             1   22[BANK3 ] unsigned char 
 Return value:  Size  Location     Type
                  1    wreg      void 
 Registers used:
		wreg, fsr2l, fsr2h, status,2, status,0, prodl, prodh, cstack
 Tracked objects:
		On entry : 
		On exit  : 
		Unchanged: 
 Data sizes:     COMRAM   BANK0   BANK1   BANK2   BANK3   BANK4   BANK5   BANK6   BANK7   BANK8   BANK9  BANK10  BANK11  BANK12  BANK13
      Params:         0       0       0       0       1       0       0       0       0       0       0       0       0       0       0
      Locals:         0       0       0       0       1       0       0       0       0       0       0       0       0       0       0
      Temps:          0       0       0       0       1       0       0       0       0       0       0       0       0       0       0
      Totals:         0       0       0       0       3       0       0       0       0       0       0       0       0       0       0
Total ram usage:        3 bytes
 Hardware stack levels used:    1
 Hardware stack levels required when called:   23
 This function calls:
		_OLED_Command
 This function is called by:
		_OLED_UpdateFromRAMBuffer
 This function uses a non-reentrant model


 *************** function _OLED_WriteString *****************
 Defined at:
		line 281 in file "oled.c"
 Parameters:    Size  Location     Type
  s               2   33[BANK3 ] PTR unsigned char 
		 -> ftoa@buf(17), STR_341(1), STR_340(1), OLED_WriteInteger@s(20), 
		 -> OLED_RAM_Buffer(68), 
 Auto vars:     Size  Location     Type
		None
 Return value:  Size  Location     Type
                  1    wreg      void 
 Registers used:
		wreg, fsr0l, fsr0h, fsr2l, fsr2h, status,2, status,0, tblptrl, tblptrh, tblptru, cstack
 Tracked objects:
		On entry : 
		On exit  : 
		Unchanged: 
 Data sizes:     COMRAM   BANK0   BANK1   BANK2   BANK3   BANK4   BANK5   BANK6   BANK7   BANK8   BANK9  BANK10  BANK11  BANK12  BANK13
      Params:         0       0       0       0       2       0       0       0       0       0       0       0       0       0       0
      Locals:         0       0       0       0       0       0       0       0       0       0       0       0       0       0       0
      Temps:          0       0       0       0       0       0       0       0       0       0       0       0       0       0       0
      Totals:         0       0       0       0       2       0       0       0       0       0       0       0       0       0       0
Total ram usage:        2 bytes
 Hardware stack levels used:    1
 Hardware stack levels required when called:   23
 This function calls:
		_OLED_PutChar
 This function is called by:
		_OLED_UpdateFromRAMBuffer
		_OLED_WriteInteger
		_OLED_WriteFloat
 This function uses a non-reentrant model


 *************** function _OLED_Clear *****************
 Defined at:
		line 266 in file "oled.c"
 Parameters:    Size  Location     Type
		None
 Auto vars:     Size  Location     Type
  col             2   35[BANK3 ] unsigned int 
  row             2   33[BANK3 ] unsigned int 
 Return value:  Size  Location     Type
                  1    wreg      void 
 Registers used:
		wreg, fsr2l, fsr2h, status,2, status,0, tblptrl, tblptrh, tblptru, cstack
 Tracked objects:
		On entry : 
		On exit  : 
		Unchanged: 
 Data sizes:     COMRAM   BANK0   BANK1   BANK2   BANK3   BANK4   BANK5   BANK6   BANK7   BANK8   BANK9  BANK10  BANK11  BANK12  BANK13
      Params:         0       0       0       0       0       0       0       0       0       0       0       0       0       0       0
      Locals:         0       0       0       0       4       0       0       0       0       0       0       0       0       0       0
      Temps:          0       0       0       0       0       0       0       0       0       0       0       0       0       0       0
      Totals:         0       0       0       0       4       0       0       0       0       0       0       0       0       0       0
Total ram usage:        4 bytes
 Hardware stack levels used:    1
 Hardware stack levels required when called:   23
 This function calls:
		_OLED_PutChar
 This function is called by:
		_main
		_OLED_UpdateFromRAMBuffer
 This function uses a non-reentrant model


 *************** function _OLED_PutChar *****************
 Defined at:
		line 231 in file "oled.c"
 Parameters:    Size  Location     Type
  ch              1    wreg     unsigned char 
 Auto vars:     Size  Location     Type
  ch              1   32[BANK3 ] unsigned char 
  data_array      9   20[BANK3 ] unsigned char [9]
  input_base      2   29[BANK3 ] PTR const unsigned char 
		 -> OledFont(768), 
  length          1   31[BANK3 ] unsigned char 
 Return value:  Size  Location     Type
                  1    wreg      void 
 Registers used:
		wreg, fsr2l, fsr2h, status,2, status,0, tblptrl, tblptrh, tblptru, cstack
 Tracked objects:
		On entry : 
		On exit  : 
		Unchanged: 
 Data sizes:     COMRAM   BANK0   BANK1   BANK2   BANK3   BANK4   BANK5   BANK6   BANK7   BANK8   BANK9  BANK10  BANK11  BANK12  BANK13
      Params:         0       0       0       0       0       0       0       0       0       0       0       0       0       0       0
      Locals:         0       0       0       0      13       0       0       0       0       0       0       0       0       0       0
      Temps:          0       0       0       0       4       0       0       0       0       0       0       0       0       0       0
      Totals:         0       0       0       0      17       0       0       0       0       0       0       0       0       0       0
Total ram usage:       17 bytes
 Hardware stack levels used:    1
 Hardware stack levels required when called:   22
 This function calls:
		_I2C1_MasterWrite
		_memmove
 This function is called by:
		_OLED_Clear
		_OLED_WriteString
 This function uses a non-reentrant model


 *************** function _memmove *****************
 Defined at:
		line 8 in file "C:\Program Files (x86)\Microchip\xc8\v1.45\sources\common\memmove.c"
 Parameters:    Size  Location     Type
  d1              2    0[BANK3 ] PTR void 
		 -> OLED_PutChar@data_array(9), 
  s1              2    2[BANK3 ] PTR const void 
		 -> OledFont(768), 
  n               2    4[BANK3 ] unsigned int 
 Auto vars:     Size  Location     Type
  s               2   10[BANK3 ] PTR const unsigned char 
		 -> OledFont(768), 
  d               2    8[BANK3 ] PTR unsigned char 
		 -> OLED_PutChar@data_array(9), 
 Return value:  Size  Location     Type
                  2    0[BANK3 ] PTR void 
 Registers used:
		wreg, fsr2l, fsr2h, status,2, status,0, tblptrl, tblptrh, tblptru
 Tracked objects:
		On entry : 
		On exit  : 
		Unchanged: 
 Data sizes:     COMRAM   BANK0   BANK1   BANK2   BANK3   BANK4   BANK5   BANK6   BANK7   BANK8   BANK9  BANK10  BANK11  BANK12  BANK13
      Params:         0       0       0       0       6       0       0       0       0       0       0       0       0       0       0
      Locals:         0       0       0       0       4       0       0       0       0       0       0       0       0       0       0
      Temps:          0       0       0       0       2       0       0       0       0       0       0       0       0       0       0
      Totals:         0       0       0       0      12       0       0       0       0       0       0       0       0       0       0
Total ram usage:       12 bytes
 Hardware stack levels used:    1
 Hardware stack levels required when called:   19
 This function calls:
		Nothing
 This function is called by:
		_OLED_PutChar
 This function uses a non-reentrant model


 *************** function _EUSART2_Read *****************
 Defined at:
		line 134 in file "mcc_generated_files/eusart2.c"
 Parameters:    Size  Location     Type
		None
 Auto vars:     Size  Location     Type
  readValue       1    0[BANK3 ] unsigned char 
 Return value:  Size  Location     Type
                  1    wreg      unsigned char 
 Registers used:
		wreg, fsr2l, fsr2h, status,2, status,0, prodl, prodh
 Tracked objects:
		On entry : 
		On exit  : 
		Unchanged: 
 Data sizes:     COMRAM   BANK0   BANK1   BANK2   BANK3   BANK4   BANK5   BANK6   BANK7   BANK8   BANK9  BANK10  BANK11  BANK12  BANK13
      Params:         0       0       0       0       0       0       0       0       0       0       0       0       0       0       0
      Locals:         0       0       0       0       1       0       0       0       0       0       0       0       0       0       0
      Temps:          0       0       0       0       0       0       0       0       0       0       0       0       0       0       0
      Totals:         0       0       0       0       1       0       0       0       0       0       0       0       0       0       0
Total ram usage:        1 bytes
 Hardware stack levels used:    1
 Hardware stack levels required when called:   19
 This function calls:
		Nothing
 This function is called by:
		_terminal_ringBufferPull
		_getch
 This function uses a non-reentrant model


 *************** function _terminal_printResetMessage *****************
 Defined at:
		line 1254 in file "ring_buffer_LUT.c"
 Parameters:    Size  Location     Type
		None
 Auto vars:     Size  Location     Type
  userID          2  214[BANK3 ] int 
 Return value:  Size  Location     Type
                  1    wreg      void 
 Registers used:
		wreg, fsr0l, fsr0h, fsr1l, fsr1h, fsr2l, fsr2h, status,2, status,0, pclath, tosl, tblptrl, tblptrh, tblptru, prodl, prodh, cstack
 Tracked objects:
		On entry : 
		On exit  : 
		Unchanged: 
 Data sizes:     COMRAM   BANK0   BANK1   BANK2   BANK3   BANK4   BANK5   BANK6   BANK7   BANK8   BANK9  BANK10  BANK11  BANK12  BANK13
      Params:         0       0       0       0       0       0       0       0       0       0       0       0       0       0       0
      Locals:         0       0       0       0       2       0       0       0       0       0       0       0       0       0       0
      Temps:          0       0       0       0       2       0       0       0       0       0       0       0       0       0       0
      Totals:         0       0       0       0       4       0       0       0       0       0       0       0       0       0       0
Total ram usage:        4 bytes
 Hardware stack levels used:    1
 Hardware stack levels required when called:   25
 This function calls:
		_getADCError
		_getCOMMError
		_getCauseOfResetString
		_getDeviceID
		_getDeviceIDString
		_getMajorRevisionID
		_getMinorRevisionID
		_getUserID
		_printf
		_terminal_printNewline
		_terminal_textAttributes
		_terminal_textAttributesReset
 This function is called by:
		_main
 This function uses a non-reentrant model


 *************** function _terminal_textAttributesReset *****************
 Defined at:
		line 196 in file "ring_buffer_interface.c"
 Parameters:    Size  Location     Type
		None
 Auto vars:     Size  Location     Type
		None
 Return value:  Size  Location     Type
                  1    wreg      void 
 Registers used:
		wreg, fsr0l, fsr0h, fsr2l, fsr2h, status,2, status,0, pclath, tosl, tblptrl, tblptrh, tblptru, prodl, prodh, cstack
 Tracked objects:
		On entry : 
		On exit  : 
		Unchanged: 
 Data sizes:     COMRAM   BANK0   BANK1   BANK2   BANK3   BANK4   BANK5   BANK6   BANK7   BANK8   BANK9  BANK10  BANK11  BANK12  BANK13
      Params:         0       0       0       0       0       0       0       0       0       0       0       0       0       0       0
      Locals:         0       0       0       0       0       0       0       0       0       0       0       0       0       0       0
      Temps:          0       0       0       0       0       0       0       0       0       0       0       0       0       0       0
      Totals:         0       0       0       0       0       0       0       0       0       0       0       0       0       0       0
Total ram usage:        0 bytes
 Hardware stack levels used:    1
 Hardware stack levels required when called:   24
 This function calls:
		_terminal_textAttributes
 This function is called by:
		_OLED_updateCallback
		_main
		_ringBufferLUT
		_terminal_printResetMessage
 This function uses a non-reentrant model


 *************** function _terminal_textAttributes *****************
 Defined at:
		line 88 in file "ring_buffer_interface.c"
 Parameters:    Size  Location     Type
  foreground_c    1    wreg     enum E18152
  background_c    1  194[BANK3 ] enum E18152
  input_attrib    1  195[BANK3 ] enum E18144
 Auto vars:     Size  Location     Type
  foreground_c    1  196[BANK3 ] enum E18152
  output_buff    15  197[BANK3 ] unsigned char [15]
 Return value:  Size  Location     Type
                  1    wreg      void 
 Registers used:
		wreg, fsr0l, fsr0h, fsr2l, fsr2h, status,2, status,0, pclath, tosl, tblptrl, tblptrh, tblptru, prodl, prodh, cstack
 Tracked objects:
		On entry : 
		On exit  : 
		Unchanged: 
 Data sizes:     COMRAM   BANK0   BANK1   BANK2   BANK3   BANK4   BANK5   BANK6   BANK7   BANK8   BANK9  BANK10  BANK11  BANK12  BANK13
      Params:         0       0       0       0       2       0       0       0       0       0       0       0       0       0       0
      Locals:         0       0       0       0      16       0       0       0       0       0       0       0       0       0       0
      Temps:          0       0       0       0       0       0       0       0       0       0       0       0       0       0       0
      Totals:         0       0       0       0      18       0       0       0       0       0       0       0       0       0       0
Total ram usage:       18 bytes
 Hardware stack levels used:    1
 Hardware stack levels required when called:   23
 This function calls:
		_printf
		_strcat
		_strncpy
 This function is called by:
		_OLED_updateCallback
		_terminal_textAttributesReset
		_ringBufferLUT
		_terminal_printResetMessage
 This function uses a non-reentrant model


 *************** function _strncpy *****************
 Defined at:
		line 8 in file "C:\Program Files (x86)\Microchip\xc8\v1.45\sources\common\strncpy.c"
 Parameters:    Size  Location     Type
  to              2    0[BANK3 ] PTR unsigned char 
		 -> terminal_textAttributes@output_buff(15), 
  from            2    2[BANK3 ] PTR const unsigned char 
		 -> STR_63(3), 
  size            2    4[BANK3 ] unsigned int 
 Auto vars:     Size  Location     Type
  cp              2    6[BANK3 ] PTR unsigned char 
		 -> terminal_textAttributes@output_buff(15), 
 Return value:  Size  Location     Type
                  2    0[BANK3 ] PTR unsigned char 
 Registers used:
		wreg, fsr2l, fsr2h, status,2, status,0, tblptrl, tblptrh, tblptru
 Tracked objects:
		On entry : 
		On exit  : 
		Unchanged: 
 Data sizes:     COMRAM   BANK0   BANK1   BANK2   BANK3   BANK4   BANK5   BANK6   BANK7   BANK8   BANK9  BANK10  BANK11  BANK12  BANK13
      Params:         0       0       0       0       6       0       0       0       0       0       0       0       0       0       0
      Locals:         0       0       0       0       2       0       0       0       0       0       0       0       0       0       0
      Temps:          0       0       0       0       0       0       0       0       0       0       0       0       0       0       0
      Totals:         0       0       0       0       8       0       0       0       0       0       0       0       0       0       0
Total ram usage:        8 bytes
 Hardware stack levels used:    1
 Hardware stack levels required when called:   19
 This function calls:
		Nothing
 This function is called by:
		_terminal_textAttributes
 This function uses a non-reentrant model


 *************** function _strcat *****************
 Defined at:
		line 8 in file "C:\Program Files (x86)\Microchip\xc8\v1.45\sources\common\strcat.c"
 Parameters:    Size  Location     Type
  to              2    0[BANK3 ] PTR unsigned char 
		 -> terminal_textAttributes@output_buff(15), 
  from            2    2[BANK3 ] PTR const unsigned char 
		 -> STR_91(2), STR_90(3), STR_89(3), STR_88(3), 
		 -> STR_87(3), STR_86(3), STR_85(3), STR_84(3), 
		 -> STR_83(3), STR_82(3), STR_81(2), STR_80(3), 
		 -> STR_79(3), STR_78(3), STR_77(3), STR_76(3), 
		 -> STR_75(3), STR_74(3), STR_73(3), STR_72(3), 
		 -> STR_71(2), STR_70(2), STR_69(2), STR_68(2), 
		 -> STR_67(2), STR_66(2), STR_65(2), STR_64(2), 
 Auto vars:     Size  Location     Type
  cp              2    4[BANK3 ] PTR unsigned char 
		 -> terminal_textAttributes@output_buff(15), 
 Return value:  Size  Location     Type
                  2    0[BANK3 ] PTR unsigned char 
 Registers used:
		wreg, fsr2l, fsr2h, status,2, status,0, tblptrl, tblptrh, tblptru
 Tracked objects:
		On entry : 
		On exit  : 
		Unchanged: 
 Data sizes:     COMRAM   BANK0   BANK1   BANK2   BANK3   BANK4   BANK5   BANK6   BANK7   BANK8   BANK9  BANK10  BANK11  BANK12  BANK13
      Params:         0       0       0       0       4       0       0       0       0       0       0       0       0       0       0
      Locals:         0       0       0       0       2       0       0       0       0       0       0       0       0       0       0
      Temps:          0       0       0       0       0       0       0       0       0       0       0       0       0       0       0
      Totals:         0       0       0       0       6       0       0       0       0       0       0       0       0       0       0
Total ram usage:        6 bytes
 Hardware stack levels used:    1
 Hardware stack levels required when called:   19
 This function calls:
		Nothing
 This function is called by:
		_terminal_textAttributes
 This function uses a non-reentrant model


 *************** function _terminal_printNewline *****************
 Defined at:
		line 203 in file "ring_buffer_interface.c"
 Parameters:    Size  Location     Type
		None
 Auto vars:     Size  Location     Type
		None
 Return value:  Size  Location     Type
                  1    wreg      void 
 Registers used:
		wreg, fsr0l, fsr0h, fsr2l, fsr2h, status,2, status,0, pclath, tosl, tblptrl, tblptrh, tblptru, prodl, prodh, cstack
 Tracked objects:
		On entry : 
		On exit  : 
		Unchanged: 
 Data sizes:     COMRAM   BANK0   BANK1   BANK2   BANK3   BANK4   BANK5   BANK6   BANK7   BANK8   BANK9  BANK10  BANK11  BANK12  BANK13
      Params:         0       0       0       0       0       0       0       0       0       0       0       0       0       0       0
      Locals:         0       0       0       0       0       0       0       0       0       0       0       0       0       0       0
      Temps:          0       0       0       0       0       0       0       0       0       0       0       0       0       0       0
      Totals:         0       0       0       0       0       0       0       0       0       0       0       0       0       0       0
Total ram usage:        0 bytes
 Hardware stack levels used:    1
 Hardware stack levels required when called:   23
 This function calls:
		_printf
 This function is called by:
		_OLED_updateCallback
		_ringBufferLUT
		_terminal_printResetMessage
 This function uses a non-reentrant model


 *************** function _printf *****************
 Defined at:
		line 13 in file "C:\Program Files (x86)\Microchip\xc8\v1.45\sources\common\printf.c"
 Parameters:    Size  Location     Type
  f               2  177[BANK3 ] PTR const unsigned char 
		 -> STR_316(14), STR_315(99), STR_314(30), STR_313(58), 
		 -> STR_312(36), STR_311(36), STR_310(37), STR_309(28), 
		 -> STR_308(38), STR_307(60), STR_306(32), STR_305(23), 
		 -> STR_304(65), STR_303(27), STR_302(48), STR_301(15), 
		 -> STR_300(13), STR_299(12), STR_298(11), STR_297(10), 
		 -> STR_296(11), STR_295(24), STR_294(46), STR_293(25), 
		 -> STR_292(56), STR_291(64), STR_290(59), STR_289(85), 
		 -> STR_288(30), STR_287(55), STR_286(46), STR_285(39), 
		 -> STR_284(62), STR_283(21), STR_282(31), STR_281(49), 
		 -> STR_280(36), STR_279(99), STR_278(88), STR_277(37), 
		 -> STR_276(13), STR_275(29), STR_274(26), STR_273(26), 
		 -> STR_272(426), STR_270(30), STR_269(46), STR_268(39), 
		 -> STR_267(62), STR_266(55), STR_265(470), STR_263(3357), 
		 -> STR_261(492), STR_259(915), STR_257(720), STR_255(1080), 
		 -> STR_253(32), STR_252(36), STR_250(46), STR_249(51), 
		 -> STR_248(73), STR_247(73), STR_246(73), STR_245(56), 
		 -> STR_244(34), STR_243(34), STR_242(53), STR_241(42), 
		 -> STR_240(53), STR_239(39), STR_238(31), STR_236(54), 
		 -> STR_235(45), STR_234(51), STR_233(52), STR_232(30), 
		 -> STR_231(58), STR_230(36), STR_229(36), STR_228(37), 
		 -> STR_227(38), STR_226(60), STR_225(32), STR_224(23), 
		 -> STR_223(65), STR_222(27), STR_221(48), STR_220(15), 
		 -> STR_219(13), STR_218(12), STR_217(11), STR_216(10), 
		 -> STR_215(11), STR_214(24), STR_213(46), STR_212(25), 
		 -> STR_211(58), STR_210(56), STR_209(64), STR_208(59), 
		 -> STR_207(85), STR_206(26), STR_204(54), STR_202(54), 
		 -> STR_200(45), STR_198(51), STR_196(52), STR_194(46), 
		 -> STR_192(51), STR_190(53), STR_188(58), STR_186(71), 
		 -> STR_185(63), STR_184(37), STR_183(46), STR_182(102), 
		 -> STR_181(86), STR_179(25), STR_177(42), STR_176(53), 
		 -> STR_175(31), STR_173(29), STR_172(28), STR_170(42), 
		 -> STR_168(41), STR_166(44), STR_165(19), STR_164(34), 
		 -> STR_162(53), STR_161(50), STR_160(105), STR_159(105), 
		 -> STR_157(59), STR_155(73), STR_154(73), STR_153(73), 
		 -> STR_151(56), STR_149(34), STR_147(34), STR_145(32), 
		 -> STR_143(30), STR_141(58), STR_139(36), STR_137(36), 
		 -> STR_135(37), STR_133(34), STR_131(38), STR_130(60), 
		 -> STR_129(32), STR_128(23), STR_127(65), STR_125(23), 
		 -> STR_123(27), STR_122(48), STR_121(15), STR_120(13), 
		 -> STR_119(12), STR_118(11), STR_117(10), STR_116(11), 
		 -> STR_115(24), STR_114(46), STR_113(25), STR_111(56), 
		 -> STR_110(64), STR_108(59), STR_106(85), STR_104(47), 
		 -> STR_103(17), STR_100(52), STR_98(4), STR_97(5), 
		 -> STR_95(4), STR_94(5), STR_92(3), terminal_textAttributes@output_buff(15), 
		 -> STR_62(4), STR_61(4), STR_60(4), STR_59(4), 
		 -> STR_58(5), STR_57(26), STR_56(46), STR_55(51), 
		 -> STR_54(32), STR_53(63), STR_52(39), STR_51(31), 
		 -> STR_50(73), STR_49(73), STR_48(73), STR_47(56), 
		 -> STR_46(34), STR_45(34), STR_44(53), STR_43(28), 
		 -> STR_1(4), 
 Auto vars:     Size  Location     Type
  pb              5  189[BANK3 ] struct __prbuf
  ap              2  187[BANK3 ] PTR void [1]
		 -> ?i2_printf(2), ?i1_printf(2), ?_sprintf(2), ?_printf(2), 
 Return value:  Size  Location     Type
                  2  177[BANK3 ] int 
 Registers used:
		wreg, fsr0l, fsr0h, fsr2l, fsr2h, status,2, status,0, pclath, tosl, tblptrl, tblptrh, tblptru, prodl, prodh, cstack
 Tracked objects:
		On entry : 
		On exit  : 
		Unchanged: 
 Data sizes:     COMRAM   BANK0   BANK1   BANK2   BANK3   BANK4   BANK5   BANK6   BANK7   BANK8   BANK9  BANK10  BANK11  BANK12  BANK13
      Params:         0       0       0       0      10       0       0       0       0       0       0       0       0       0       0
      Locals:         0       0       0       0       7       0       0       0       0       0       0       0       0       0       0
      Temps:          0       0       0       0       0       0       0       0       0       0       0       0       0       0       0
      Totals:         0       0       0       0      17       0       0       0       0       0       0       0       0       0       0
Total ram usage:       17 bytes
 Hardware stack levels used:    1
 Hardware stack levels required when called:   22
 This function calls:
		__doprnt
 This function is called by:
		_OLED_updateCallback
		_terminal_clearTerminal
		_terminal_setCursorHome
		_terminal_textAttributes
		_terminal_printNewline
		_ringBufferLUT
		_terminal_printResetMessage
		_terminal_clearLine
		_terminal_saveCursor
		_terminal_returnCursor
 This function uses a non-reentrant model


 *************** function __doprnt *****************
 Defined at:
		line 458 in file "C:\Program Files (x86)\Microchip\xc8\v1.45\sources\common\doprnt.c"
 Parameters:    Size  Location     Type
  pb              2  135[BANK3 ] PTR struct __prbuf
		 -> sprintf@pb(5), printf@pb(5), 
  f               2  137[BANK3 ] PTR const unsigned char 
		 -> STR_344(11), STR_316(14), STR_315(99), STR_314(30), 
		 -> STR_313(58), STR_312(36), STR_311(36), STR_310(37), 
		 -> STR_309(28), STR_308(38), STR_307(60), STR_306(32), 
		 -> STR_305(23), STR_304(65), STR_303(27), STR_302(48), 
		 -> STR_301(15), STR_300(13), STR_299(12), STR_298(11), 
		 -> STR_297(10), STR_296(11), STR_295(24), STR_294(46), 
		 -> STR_293(25), STR_292(56), STR_291(64), STR_290(59), 
		 -> STR_289(85), STR_288(30), STR_287(55), STR_286(46), 
		 -> STR_285(39), STR_284(62), STR_283(21), STR_282(31), 
		 -> STR_281(49), STR_280(36), STR_279(99), STR_278(88), 
		 -> STR_277(37), STR_276(13), STR_275(29), STR_274(26), 
		 -> STR_273(26), STR_272(426), STR_270(30), STR_269(46), 
		 -> STR_268(39), STR_267(62), STR_266(55), STR_265(470), 
		 -> STR_263(3357), STR_261(492), STR_259(915), STR_257(720), 
		 -> STR_255(1080), STR_253(32), STR_252(36), STR_250(46), 
		 -> STR_249(51), STR_248(73), STR_247(73), STR_246(73), 
		 -> STR_245(56), STR_244(34), STR_243(34), STR_242(53), 
		 -> STR_241(42), STR_240(53), STR_239(39), STR_238(31), 
		 -> STR_236(54), STR_235(45), STR_234(51), STR_233(52), 
		 -> STR_232(30), STR_231(58), STR_230(36), STR_229(36), 
		 -> STR_228(37), STR_227(38), STR_226(60), STR_225(32), 
		 -> STR_224(23), STR_223(65), STR_222(27), STR_221(48), 
		 -> STR_220(15), STR_219(13), STR_218(12), STR_217(11), 
		 -> STR_216(10), STR_215(11), STR_214(24), STR_213(46), 
		 -> STR_212(25), STR_211(58), STR_210(56), STR_209(64), 
		 -> STR_208(59), STR_207(85), STR_206(26), STR_204(54), 
		 -> STR_202(54), STR_200(45), STR_198(51), STR_196(52), 
		 -> STR_194(46), STR_192(51), STR_190(53), STR_188(58), 
		 -> STR_186(71), STR_185(63), STR_184(37), STR_183(46), 
		 -> STR_182(102), STR_181(86), STR_179(25), STR_177(42), 
		 -> STR_176(53), STR_175(31), STR_173(29), STR_172(28), 
		 -> STR_170(42), STR_168(41), STR_166(44), STR_165(19), 
		 -> STR_164(34), STR_162(53), STR_161(50), STR_160(105), 
		 -> STR_159(105), STR_157(59), STR_155(73), STR_154(73), 
		 -> STR_153(73), STR_151(56), STR_149(34), STR_147(34), 
		 -> STR_145(32), STR_143(30), STR_141(58), STR_139(36), 
		 -> STR_137(36), STR_135(37), STR_133(34), STR_131(38), 
		 -> STR_130(60), STR_129(32), STR_128(23), STR_127(65), 
		 -> STR_125(23), STR_123(27), STR_122(48), STR_121(15), 
		 -> STR_120(13), STR_119(12), STR_118(11), STR_117(10), 
		 -> STR_116(11), STR_115(24), STR_114(46), STR_113(25), 
		 -> STR_111(56), STR_110(64), STR_108(59), STR_106(85), 
		 -> STR_104(47), STR_103(17), STR_100(52), STR_98(4), 
		 -> STR_97(5), STR_95(4), STR_94(5), STR_92(3), 
		 -> terminal_textAttributes@output_buff(15), STR_62(4), STR_61(4), STR_60(4), 
		 -> STR_59(4), STR_58(5), STR_57(26), STR_56(46), 
		 -> STR_55(51), STR_54(32), STR_53(63), STR_52(39), 
		 -> STR_51(31), STR_50(73), STR_49(73), STR_48(73), 
		 -> STR_47(56), STR_46(34), STR_45(34), STR_44(53), 
		 -> STR_43(28), STR_42(12), STR_41(12), STR_40(12), 
		 -> STR_39(11), STR_38(10), STR_37(10), STR_36(9), 
		 -> STR_34(13), STR_8(7), STR_6(5), STR_1(4), 
  ap              2  139[BANK3 ] PTR PTR void 
		 -> sprintf@ap(2), printf@ap(2), 
 Auto vars:     Size  Location     Type
  idx             1  151[BANK3 ] unsigned char 
  fval            4  170[BANK3 ] unsigned char 
  val             4  162[BANK3 ] unsigned long 
  tmpval          4  156[BANK3 ] struct .
  prec            2  174[BANK3 ] int 
  flag            2  168[BANK3 ] unsigned short 
  exp             2  166[BANK3 ] int 
  width           2  160[BANK3 ] int 
  len             2  154[BANK3 ] unsigned int 
  cp              2  152[BANK3 ] PTR const unsigned char 
		 -> ?_sprintf(2), ?_printf(2), ftoa@buf(17), STR_342(7), 
		 -> _doprnt@c(1), STR_329(16), STR_328(22), STR_327(21), 
		 -> STR_326(27), STR_325(41), STR_324(32), STR_323(19), 
		 -> STR_322(16), STR_321(15), STR_320(16), STR_319(10), 
		 -> STR_318(13), STR_317(12), print_Energy_str(17), print_Power_str(17), 
		 -> print_Vrms_str(17), print_Irms_str(17), OLED_updateCallback@angle_string(17), OLED_updateCallback@percentage_string(17), 
		 -> OLED_updateCallback@rev_id_str(17), OLED_updateCallback@dev_id_str(17), TRIAC_Firing_Angle(4), sp__acos(4), 
		 -> NULL(0), 
  c               1  176[BANK3 ] char 
  d               1    0        unsigned char 
 Return value:  Size  Location     Type
                  2  135[BANK3 ] int 
 Registers used:
		wreg, fsr0l, fsr0h, fsr2l, fsr2h, status,2, status,0, pclath, tosl, tblptrl, tblptrh, tblptru, prodl, prodh, cstack
 Tracked objects:
		On entry : 
		On exit  : 
		Unchanged: 
 Data sizes:     COMRAM   BANK0   BANK1   BANK2   BANK3   BANK4   BANK5   BANK6   BANK7   BANK8   BANK9  BANK10  BANK11  BANK12  BANK13
      Params:         0       0       0       0       6       0       0       0       0       0       0       0       0       0       0
      Locals:         0       0       0       0      30       0       0       0       0       0       0       0       0       0       0
      Temps:          0       0       0       0       6       0       0       0       0       0       0       0       0       0       0
      Totals:         0       0       0       0      42       0       0       0       0       0       0       0       0       0       0
Total ram usage:       42 bytes
 Hardware stack levels used:    1
 Hardware stack levels required when called:   21
 This function calls:
		Absolute function
		___awdiv
		___awmod
		___fladd
		___fldiv
		___flge
		___flmul
		___flneg
		___flsub
		___fltol
		___lldiv
		___llmod
		___wmul
		___xxtofl
		__div_to_l_
		__tdiv_to_l_
		_fround
		_isdigit
		_putch
		_scale
 This function is called by:
		_printf
		_sprintf
 This function uses a non-reentrant model


 *************** function _scale *****************
 Defined at:
		line 425 in file "C:\Program Files (x86)\Microchip\xc8\v1.45\sources\common\doprnt.c"
 Parameters:    Size  Location     Type
  scl             1    wreg     char 
 Auto vars:     Size  Location     Type
  scl             1  130[BANK3 ] char 
 Return value:  Size  Location     Type
                  4  122[BANK3 ] char 
 Registers used:
		wreg, status,2, status,0, tblptrl, tblptrh, tblptru, prodl, prodh, cstack
 Tracked objects:
		On entry : 
		On exit  : 
		Unchanged: 
 Data sizes:     COMRAM   BANK0   BANK1   BANK2   BANK3   BANK4   BANK5   BANK6   BANK7   BANK8   BANK9  BANK10  BANK11  BANK12  BANK13
      Params:         0       0       0       0       4       0       0       0       0       0       0       0       0       0       0
      Locals:         0       0       0       0       5       0       0       0       0       0       0       0       0       0       0
      Temps:          0       0       0       0       0       0       0       0       0       0       0       0       0       0       0
      Totals:         0       0       0       0       9       0       0       0       0       0       0       0       0       0       0
Total ram usage:        9 bytes
 Hardware stack levels used:    1
 Hardware stack levels required when called:   20
 This function calls:
		___awdiv
		___awmod
		___flmul
 This function is called by:
		__doprnt
 This function uses a non-reentrant model


 *************** function _putch *****************
 Defined at:
		line 184 in file "mcc_generated_files/eusart2.c"
 Parameters:    Size  Location     Type
  txData          1    wreg     unsigned char 
 Auto vars:     Size  Location     Type
  txData          1    1[BANK3 ] unsigned char 
 Return value:  Size  Location     Type
                  1    wreg      void 
 Registers used:
		wreg, fsr2l, fsr2h, status,2, status,0, prodl, prodh, cstack
 Tracked objects:
		On entry : 
		On exit  : 
		Unchanged: 
 Data sizes:     COMRAM   BANK0   BANK1   BANK2   BANK3   BANK4   BANK5   BANK6   BANK7   BANK8   BANK9  BANK10  BANK11  BANK12  BANK13
      Params:         0       0       0       0       0       0       0       0       0       0       0       0       0       0       0
      Locals:         0       0       0       0       1       0       0       0       0       0       0       0       0       0       0
      Temps:          0       0       0       0       0       0       0       0       0       0       0       0       0       0       0
      Totals:         0       0       0       0       1       0       0       0       0       0       0       0       0       0       0
Total ram usage:        1 bytes
 Hardware stack levels used:    1
 Hardware stack levels required when called:   20
 This function calls:
		_EUSART2_Write
 This function is called by:
		_printf
		__doprnt
		i1__doprnt
		i2__doprnt
 This function uses a non-reentrant model


 *************** function _EUSART2_Write *****************
 Defined at:
		line 155 in file "mcc_generated_files/eusart2.c"
 Parameters:    Size  Location     Type
  txData          1    wreg     unsigned char 
 Auto vars:     Size  Location     Type
  txData          1    0[BANK3 ] unsigned char 
 Return value:  Size  Location     Type
                  1    wreg      void 
 Registers used:
		wreg, fsr2l, fsr2h, status,2, status,0, prodl, prodh
 Tracked objects:
		On entry : 
		On exit  : 
		Unchanged: 
 Data sizes:     COMRAM   BANK0   BANK1   BANK2   BANK3   BANK4   BANK5   BANK6   BANK7   BANK8   BANK9  BANK10  BANK11  BANK12  BANK13
      Params:         0       0       0       0       0       0       0       0       0       0       0       0       0       0       0
      Locals:         0       0       0       0       1       0       0       0       0       0       0       0       0       0       0
      Temps:          0       0       0       0       0       0       0       0       0       0       0       0       0       0       0
      Totals:         0       0       0       0       1       0       0       0       0       0       0       0       0       0       0
Total ram usage:        1 bytes
 Hardware stack levels used:    1
 Hardware stack levels required when called:   19
 This function calls:
		Nothing
 This function is called by:
		_putch
 This function uses a non-reentrant model


 *************** function _isdigit *****************
 Defined at:
		line 8 in file "C:\Program Files (x86)\Microchip\xc8\v1.45\sources\common\isdigit.c"
 Parameters:    Size  Location     Type
  c               1    wreg     unsigned char 
 Auto vars:     Size  Location     Type
  c               1    2[BANK3 ] unsigned char 
 Return value:  Size  Location     Type
		None               void
 Registers used:
		wreg, status,2, status,0
 Tracked objects:
		On entry : 
		On exit  : 
		Unchanged: 
 Data sizes:     COMRAM   BANK0   BANK1   BANK2   BANK3   BANK4   BANK5   BANK6   BANK7   BANK8   BANK9  BANK10  BANK11  BANK12  BANK13
      Params:         0       0       0       0       0       0       0       0       0       0       0       0       0       0       0
      Locals:         0       0       0       0       2       0       0       0       0       0       0       0       0       0       0
      Temps:          0       0       0       0       1       0       0       0       0       0       0       0       0       0       0
      Totals:         0       0       0       0       3       0       0       0       0       0       0       0       0       0       0
Total ram usage:        3 bytes
 Hardware stack levels used:    1
 Hardware stack levels required when called:   19
 This function calls:
		Nothing
 This function is called by:
		__doprnt
		_atoi
 This function uses a non-reentrant model


 *************** function _fround *****************
 Defined at:
		line 409 in file "C:\Program Files (x86)\Microchip\xc8\v1.45\sources\common\doprnt.c"
 Parameters:    Size  Location     Type
  prec            1    wreg     unsigned char 
 Auto vars:     Size  Location     Type
  prec            1  134[BANK3 ] unsigned char 
 Return value:  Size  Location     Type
                  4  122[BANK3 ] unsigned char 
 Registers used:
		wreg, status,2, status,0, tblptrl, tblptrh, tblptru, prodl, prodh, cstack
 Tracked objects:
		On entry : 
		On exit  : 
		Unchanged: 
 Data sizes:     COMRAM   BANK0   BANK1   BANK2   BANK3   BANK4   BANK5   BANK6   BANK7   BANK8   BANK9  BANK10  BANK11  BANK12  BANK13
      Params:         0       0       0       0       4       0       0       0       0       0       0       0       0       0       0
      Locals:         0       0       0       0       9       0       0       0       0       0       0       0       0       0       0
      Temps:          0       0       0       0       0       0       0       0       0       0       0       0       0       0       0
      Totals:         0       0       0       0      13       0       0       0       0       0       0       0       0       0       0
Total ram usage:       13 bytes
 Hardware stack levels used:    1
 Hardware stack levels required when called:   20
 This function calls:
		___awdiv
		___awmod
		___flmul
 This function is called by:
		__doprnt
 This function uses a non-reentrant model


 *************** function ___flmul *****************
 Defined at:
		line 8 in file "C:\Program Files (x86)\Microchip\xc8\v1.45\sources\common\sprcmul.c"
 Parameters:    Size  Location     Type
  b               4   97[BANK3 ] unsigned char 
  a               4  101[BANK3 ] unsigned char 
 Auto vars:     Size  Location     Type
  prod            4  116[BANK3 ] struct .
  grs             4  111[BANK3 ] unsigned long 
  temp            2  120[BANK3 ] struct .
  bexp            1  115[BANK3 ] unsigned char 
  aexp            1  110[BANK3 ] unsigned char 
  sign            1  109[BANK3 ] unsigned char 
 Return value:  Size  Location     Type
                  4   97[BANK3 ] unsigned char 
 Registers used:
		wreg, status,2, status,0, prodl, prodh
 Tracked objects:
		On entry : 
		On exit  : 
		Unchanged: 
 Data sizes:     COMRAM   BANK0   BANK1   BANK2   BANK3   BANK4   BANK5   BANK6   BANK7   BANK8   BANK9  BANK10  BANK11  BANK12  BANK13
      Params:         0       0       0       0       8       0       0       0       0       0       0       0       0       0       0
      Locals:         0       0       0       0      13       0       0       0       0       0       0       0       0       0       0
      Temps:          0       0       0       0       4       0       0       0       0       0       0       0       0       0       0
      Totals:         0       0       0       0      25       0       0       0       0       0       0       0       0       0       0
Total ram usage:       25 bytes
 Hardware stack levels used:    1
 Hardware stack levels required when called:   19
 This function calls:
		Nothing
 This function is called by:
		_OLED_updateCallback
		_ringBufferLUT
		_fround
		_scale
		__doprnt
		_asin
		_atan
		_eval_poly
		_ftoa
 This function uses a non-reentrant model


 *************** function ___awmod *****************
 Defined at:
		line 8 in file "C:\Program Files (x86)\Microchip\xc8\v1.45\sources\common\awmod.c"
 Parameters:    Size  Location     Type
  dividend        2    0[BANK3 ] int 
  divisor         2    2[BANK3 ] int 
 Auto vars:     Size  Location     Type
  sign            1    5[BANK3 ] unsigned char 
  counter         1    4[BANK3 ] unsigned char 
 Return value:  Size  Location     Type
                  2    0[BANK3 ] int 
 Registers used:
		wreg, status,2, status,0
 Tracked objects:
		On entry : 
		On exit  : 
		Unchanged: 
 Data sizes:     COMRAM   BANK0   BANK1   BANK2   BANK3   BANK4   BANK5   BANK6   BANK7   BANK8   BANK9  BANK10  BANK11  BANK12  BANK13
      Params:         0       0       0       0       4       0       0       0       0       0       0       0       0       0       0
      Locals:         0       0       0       0       2       0       0       0       0       0       0       0       0       0       0
      Temps:          0       0       0       0       0       0       0       0       0       0       0       0       0       0       0
      Totals:         0       0       0       0       6       0       0       0       0       0       0       0       0       0       0
Total ram usage:        6 bytes
 Hardware stack levels used:    1
 Hardware stack levels required when called:   19
 This function calls:
		Nothing
 This function is called by:
		_fround
		_scale
		__doprnt
 This function uses a non-reentrant model


 *************** function ___awdiv *****************
 Defined at:
		line 8 in file "C:\Program Files (x86)\Microchip\xc8\v1.45\sources\common\awdiv.c"
 Parameters:    Size  Location     Type
  dividend        2    6[BANK3 ] int 
  divisor         2    8[BANK3 ] int 
 Auto vars:     Size  Location     Type
  quotient        2   12[BANK3 ] int 
  sign            1   11[BANK3 ] unsigned char 
  counter         1   10[BANK3 ] unsigned char 
 Return value:  Size  Location     Type
                  2    6[BANK3 ] int 
 Registers used:
		wreg, status,2, status,0
 Tracked objects:
		On entry : 
		On exit  : 
		Unchanged: 
 Data sizes:     COMRAM   BANK0   BANK1   BANK2   BANK3   BANK4   BANK5   BANK6   BANK7   BANK8   BANK9  BANK10  BANK11  BANK12  BANK13
      Params:         0       0       0       0       4       0       0       0       0       0       0       0       0       0       0
      Locals:         0       0       0       0       4       0       0       0       0       0       0       0       0       0       0
      Temps:          0       0       0       0       0       0       0       0       0       0       0       0       0       0       0
      Totals:         0       0       0       0       8       0       0       0       0       0       0       0       0       0       0
Total ram usage:        8 bytes
 Hardware stack levels used:    1
 Hardware stack levels required when called:   19
 This function calls:
		Nothing
 This function is called by:
		_fround
		_scale
		__doprnt
 This function uses a non-reentrant model


 *************** function __tdiv_to_l_ *****************
 Defined at:
		line 60 in file "C:\Program Files (x86)\Microchip\xc8\v1.45\sources\common\ftdivl.c"
 Parameters:    Size  Location     Type
  f1              3    0[BANK3 ] float 
  f2              3    3[BANK3 ] float 
 Auto vars:     Size  Location     Type
  quot            4    9[BANK3 ] unsigned long 
  exp1            1   14[BANK3 ] unsigned char 
  cntr            1   13[BANK3 ] unsigned char 
 Return value:  Size  Location     Type
                  4    0[BANK3 ] unsigned long 
 Registers used:
		wreg, status,2, status,0
 Tracked objects:
		On entry : 
		On exit  : 
		Unchanged: 
 Data sizes:     COMRAM   BANK0   BANK1   BANK2   BANK3   BANK4   BANK5   BANK6   BANK7   BANK8   BANK9  BANK10  BANK11  BANK12  BANK13
      Params:         0       0       0       0       6       0       0       0       0       0       0       0       0       0       0
      Locals:         0       0       0       0       6       0       0       0       0       0       0       0       0       0       0
      Temps:          0       0       0       0       3       0       0       0       0       0       0       0       0       0       0
      Totals:         0       0       0       0      15       0       0       0       0       0       0       0       0       0       0
Total ram usage:       15 bytes
 Hardware stack levels used:    1
 Hardware stack levels required when called:   19
 This function calls:
		Nothing
 This function is called by:
		__doprnt
 This function uses a non-reentrant model


 *************** function __div_to_l_ *****************
 Defined at:
		line 60 in file "C:\Program Files (x86)\Microchip\xc8\v1.45\sources\common\fldivl.c"
 Parameters:    Size  Location     Type
  f1              4    0[BANK3 ] unsigned long 
  f2              4    4[BANK3 ] unsigned long 
 Auto vars:     Size  Location     Type
  quot            4    8[BANK3 ] unsigned long 
  exp1            1   13[BANK3 ] unsigned char 
  cntr            1   12[BANK3 ] unsigned char 
 Return value:  Size  Location     Type
                  4    0[BANK3 ] unsigned long 
 Registers used:
		wreg, status,2, status,0
 Tracked objects:
		On entry : 
		On exit  : 
		Unchanged: 
 Data sizes:     COMRAM   BANK0   BANK1   BANK2   BANK3   BANK4   BANK5   BANK6   BANK7   BANK8   BANK9  BANK10  BANK11  BANK12  BANK13
      Params:         0       0       0       0       8       0       0       0       0       0       0       0       0       0       0
      Locals:         0       0       0       0       6       0       0       0       0       0       0       0       0       0       0
      Temps:          0       0       0       0       0       0       0       0       0       0       0       0       0       0       0
      Totals:         0       0       0       0      14       0       0       0       0       0       0       0       0       0       0
Total ram usage:       14 bytes
 Hardware stack levels used:    1
 Hardware stack levels required when called:   19
 This function calls:
		Nothing
 This function is called by:
		__doprnt
 This function uses a non-reentrant model


 *************** function ___xxtofl *****************
 Defined at:
		line 10 in file "C:\Program Files (x86)\Microchip\xc8\v1.45\sources\common\xxtofl.c"
 Parameters:    Size  Location     Type
  sign            1    wreg     unsigned char 
  val             4   24[BANK3 ] long 
 Auto vars:     Size  Location     Type
  sign            1   32[BANK3 ] unsigned char 
  arg             4   34[BANK3 ] unsigned long 
  exp             1   33[BANK3 ] unsigned char 
 Return value:  Size  Location     Type
                  4   24[BANK3 ] unsigned char 
 Registers used:
		wreg, status,2, status,0
 Tracked objects:
		On entry : 
		On exit  : 
		Unchanged: 
 Data sizes:     COMRAM   BANK0   BANK1   BANK2   BANK3   BANK4   BANK5   BANK6   BANK7   BANK8   BANK9  BANK10  BANK11  BANK12  BANK13
      Params:         0       0       0       0       4       0       0       0       0       0       0       0       0       0       0
      Locals:         0       0       0       0       6       0       0       0       0       0       0       0       0       0       0
      Temps:          0       0       0       0       4       0       0       0       0       0       0       0       0       0       0
      Totals:         0       0       0       0      14       0       0       0       0       0       0       0       0       0       0
Total ram usage:       14 bytes
 Hardware stack levels used:    1
 Hardware stack levels required when called:   19
 This function calls:
		Nothing
 This function is called by:
		_ringBufferLUT
		__doprnt
		_trunc
 This function uses a non-reentrant model


 *************** function ___wmul *****************
 Defined at:
		line 15 in file "C:\Program Files (x86)\Microchip\xc8\v1.45\sources\common\Umul16.c"
 Parameters:    Size  Location     Type
  multiplier      2    0[BANK3 ] unsigned int 
  multiplicand    2    2[BANK3 ] unsigned int 
 Auto vars:     Size  Location     Type
  product         2    4[BANK3 ] unsigned int 
 Return value:  Size  Location     Type
                  2    0[BANK3 ] unsigned int 
 Registers used:
		wreg, status,2, status,0, prodl, prodh
 Tracked objects:
		On entry : 
		On exit  : 
		Unchanged: 
 Data sizes:     COMRAM   BANK0   BANK1   BANK2   BANK3   BANK4   BANK5   BANK6   BANK7   BANK8   BANK9  BANK10  BANK11  BANK12  BANK13
      Params:         0       0       0       0       4       0       0       0       0       0       0       0       0       0       0
      Locals:         0       0       0       0       2       0       0       0       0       0       0       0       0       0       0
      Temps:          0       0       0       0       0       0       0       0       0       0       0       0       0       0       0
      Totals:         0       0       0       0       6       0       0       0       0       0       0       0       0       0       0
Total ram usage:        6 bytes
 Hardware stack levels used:    1
 Hardware stack levels required when called:   19
 This function calls:
		Nothing
 This function is called by:
		_ringBufferLUT
		__doprnt
		_atoi
 This function uses a non-reentrant model


 *************** function ___llmod *****************
 Defined at:
		line 8 in file "C:\Program Files (x86)\Microchip\xc8\v1.45\sources\common\llmod.c"
 Parameters:    Size  Location     Type
  dividend        4   13[BANK3 ] unsigned long 
  divisor         4   17[BANK3 ] unsigned long 
 Auto vars:     Size  Location     Type
  counter         1   21[BANK3 ] unsigned char 
 Return value:  Size  Location     Type
                  4   13[BANK3 ] unsigned long 
 Registers used:
		wreg, status,2, status,0
 Tracked objects:
		On entry : 
		On exit  : 
		Unchanged: 
 Data sizes:     COMRAM   BANK0   BANK1   BANK2   BANK3   BANK4   BANK5   BANK6   BANK7   BANK8   BANK9  BANK10  BANK11  BANK12  BANK13
      Params:         0       0       0       0       8       0       0       0       0       0       0       0       0       0       0
      Locals:         0       0       0       0       1       0       0       0       0       0       0       0       0       0       0
      Temps:          0       0       0       0       0       0       0       0       0       0       0       0       0       0       0
      Totals:         0       0       0       0       9       0       0       0       0       0       0       0       0       0       0
Total ram usage:        9 bytes
 Hardware stack levels used:    1
 Hardware stack levels required when called:   19
 This function calls:
		Nothing
 This function is called by:
		__doprnt
 This function uses a non-reentrant model


 *************** function ___lldiv *****************
 Defined at:
		line 8 in file "C:\Program Files (x86)\Microchip\xc8\v1.45\sources\common\lldiv.c"
 Parameters:    Size  Location     Type
  dividend        4    0[BANK3 ] unsigned long 
  divisor         4    4[BANK3 ] unsigned long 
 Auto vars:     Size  Location     Type
  quotient        4    8[BANK3 ] unsigned long 
  counter         1   12[BANK3 ] unsigned char 
 Return value:  Size  Location     Type
                  4    0[BANK3 ] unsigned long 
 Registers used:
		wreg, status,2, status,0
 Tracked objects:
		On entry : 
		On exit  : 
		Unchanged: 
 Data sizes:     COMRAM   BANK0   BANK1   BANK2   BANK3   BANK4   BANK5   BANK6   BANK7   BANK8   BANK9  BANK10  BANK11  BANK12  BANK13
      Params:         0       0       0       0       8       0       0       0       0       0       0       0       0       0       0
      Locals:         0       0       0       0       5       0       0       0       0       0       0       0       0       0       0
      Temps:          0       0       0       0       0       0       0       0       0       0       0       0       0       0       0
      Totals:         0       0       0       0      13       0       0       0       0       0       0       0       0       0       0
Total ram usage:       13 bytes
 Hardware stack levels used:    1
 Hardware stack levels required when called:   19
 This function calls:
		Nothing
 This function is called by:
		__doprnt
 This function uses a non-reentrant model


 *************** function ___fltol *****************
 Defined at:
		line 43 in file "C:\Program Files (x86)\Microchip\xc8\v1.45\sources\common\fltol.c"
 Parameters:    Size  Location     Type
  f1              4   14[BANK3 ] unsigned long 
 Auto vars:     Size  Location     Type
  exp1            1   23[BANK3 ] unsigned char 
  sign1           1   22[BANK3 ] unsigned char 
 Return value:  Size  Location     Type
                  4   14[BANK3 ] long 
 Registers used:
		wreg, status,2, status,0
 Tracked objects:
		On entry : 
		On exit  : 
		Unchanged: 
 Data sizes:     COMRAM   BANK0   BANK1   BANK2   BANK3   BANK4   BANK5   BANK6   BANK7   BANK8   BANK9  BANK10  BANK11  BANK12  BANK13
      Params:         0       0       0       0       4       0       0       0       0       0       0       0       0       0       0
      Locals:         0       0       0       0       2       0       0       0       0       0       0       0       0       0       0
      Temps:          0       0       0       0       4       0       0       0       0       0       0       0       0       0       0
      Totals:         0       0       0       0      10       0       0       0       0       0       0       0       0       0       0
Total ram usage:       10 bytes
 Hardware stack levels used:    1
 Hardware stack levels required when called:   19
 This function calls:
		Nothing
 This function is called by:
		__doprnt
		_trunc
		_ftoa
 This function uses a non-reentrant model


 *************** function ___flsub *****************
 Defined at:
		line 245 in file "C:\Program Files (x86)\Microchip\xc8\v1.45\sources\common\sprcadd.c"
 Parameters:    Size  Location     Type
  b               4   72[BANK3 ] long 
  a               4   76[BANK3 ] long 
 Auto vars:     Size  Location     Type
		None
 Return value:  Size  Location     Type
                  4   72[BANK3 ] long 
 Registers used:
		wreg, status,2, status,0, cstack
 Tracked objects:
		On entry : 
		On exit  : 
		Unchanged: 
 Data sizes:     COMRAM   BANK0   BANK1   BANK2   BANK3   BANK4   BANK5   BANK6   BANK7   BANK8   BANK9  BANK10  BANK11  BANK12  BANK13
      Params:         0       0       0       0       8       0       0       0       0       0       0       0       0       0       0
      Locals:         0       0       0       0       0       0       0       0       0       0       0       0       0       0       0
      Temps:          0       0       0       0       0       0       0       0       0       0       0       0       0       0       0
      Totals:         0       0       0       0       8       0       0       0       0       0       0       0       0       0       0
Total ram usage:        8 bytes
 Hardware stack levels used:    1
 Hardware stack levels required when called:   20
 This function calls:
		___fladd
 This function is called by:
		__doprnt
 This function uses a non-reentrant model


 *************** function ___fladd *****************
 Defined at:
		line 10 in file "C:\Program Files (x86)\Microchip\xc8\v1.45\sources\common\sprcadd.c"
 Parameters:    Size  Location     Type
  b               4   52[BANK3 ] long 
  a               4   56[BANK3 ] long 
 Auto vars:     Size  Location     Type
  grs             1   71[BANK3 ] unsigned char 
  bexp            1   70[BANK3 ] unsigned char 
  aexp            1   69[BANK3 ] unsigned char 
  signs           1   68[BANK3 ] unsigned char 
 Return value:  Size  Location     Type
                  4   52[BANK3 ] unsigned char 
 Registers used:
		wreg, status,2, status,0
 Tracked objects:
		On entry : 
		On exit  : 
		Unchanged: 
 Data sizes:     COMRAM   BANK0   BANK1   BANK2   BANK3   BANK4   BANK5   BANK6   BANK7   BANK8   BANK9  BANK10  BANK11  BANK12  BANK13
      Params:         0       0       0       0       8       0       0       0       0       0       0       0       0       0       0
      Locals:         0       0       0       0       4       0       0       0       0       0       0       0       0       0       0
      Temps:          0       0       0       0       8       0       0       0       0       0       0       0       0       0       0
      Totals:         0       0       0       0      20       0       0       0       0       0       0       0       0       0       0
Total ram usage:       20 bytes
 Hardware stack levels used:    1
 Hardware stack levels required when called:   19
 This function calls:
		Nothing
 This function is called by:
		_OLED_updateCallback
		_ringBufferLUT
		__doprnt
		_acos
		_asin
		_atan
		_eval_poly
		_round
		___flsub
 This function uses a non-reentrant model


 *************** function ___flneg *****************
 Defined at:
		line 15 in file "C:\Program Files (x86)\Microchip\xc8\v1.45\sources\common\flneg.c"
 Parameters:    Size  Location     Type
  f1              4   48[BANK3 ] unsigned char 
 Auto vars:     Size  Location     Type
		None
 Return value:  Size  Location     Type
                  4   48[BANK3 ] unsigned char 
 Registers used:
		wreg, status,2, status,0
 Tracked objects:
		On entry : 
		On exit  : 
		Unchanged: 
 Data sizes:     COMRAM   BANK0   BANK1   BANK2   BANK3   BANK4   BANK5   BANK6   BANK7   BANK8   BANK9  BANK10  BANK11  BANK12  BANK13
      Params:         0       0       0       0       4       0       0       0       0       0       0       0       0       0       0
      Locals:         0       0       0       0       0       0       0       0       0       0       0       0       0       0       0
      Temps:          0       0       0       0       0       0       0       0       0       0       0       0       0       0       0
      Totals:         0       0       0       0       4       0       0       0       0       0       0       0       0       0       0
Total ram usage:        4 bytes
 Hardware stack levels used:    1
 Hardware stack levels required when called:   19
 This function calls:
		Nothing
 This function is called by:
		_OLED_updateCallback
		_ringBufferLUT
		__doprnt
		_acos
		_asin
		_atan
		_fabs
		_round
 This function uses a non-reentrant model


 *************** function ___fldiv *****************
 Defined at:
		line 11 in file "C:\Program Files (x86)\Microchip\xc8\v1.45\sources\common\sprcdiv.c"
 Parameters:    Size  Location     Type
  b               4   72[BANK3 ] unsigned char 
  a               4   76[BANK3 ] unsigned char 
 Auto vars:     Size  Location     Type
  grs             4   91[BANK3 ] unsigned long 
  rem             4   85[BANK3 ] unsigned long 
  new_exp         2   89[BANK3 ] int 
  aexp            1   96[BANK3 ] unsigned char 
  bexp            1   95[BANK3 ] unsigned char 
  sign            1   84[BANK3 ] unsigned char 
 Return value:  Size  Location     Type
                  4   72[BANK3 ] unsigned char 
 Registers used:
		wreg, status,2, status,0
 Tracked objects:
		On entry : 
		On exit  : 
		Unchanged: 
 Data sizes:     COMRAM   BANK0   BANK1   BANK2   BANK3   BANK4   BANK5   BANK6   BANK7   BANK8   BANK9  BANK10  BANK11  BANK12  BANK13
      Params:         0       0       0       0       8       0       0       0       0       0       0       0       0       0       0
      Locals:         0       0       0       0      13       0       0       0       0       0       0       0       0       0       0
      Temps:          0       0       0       0       4       0       0       0       0       0       0       0       0       0       0
      Totals:         0       0       0       0      25       0       0       0       0       0       0       0       0       0       0
Total ram usage:       25 bytes
 Hardware stack levels used:    1
 Hardware stack levels required when called:   19
 This function calls:
		Nothing
 This function is called by:
		_OLED_updateCallback
		_ringBufferLUT
		__doprnt
		_asin
		_atan
 This function uses a non-reentrant model


 *************** function _getUserID *****************
 Defined at:
		line 65 in file "device_IDs.c"
 Parameters:    Size  Location     Type
  inputUserID     1    wreg     unsigned char 
 Auto vars:     Size  Location     Type
  inputUserID     1   17[BANK3 ] unsigned char 
  initialOffse    4   13[BANK3 ] unsigned long 
  IDOffset        1   18[BANK3 ] unsigned char 
 Return value:  Size  Location     Type
                  2   11[BANK3 ] unsigned int 
 Registers used:
		wreg, status,2, status,0, prodl, prodh, cstack
 Tracked objects:
		On entry : 
		On exit  : 
		Unchanged: 
 Data sizes:     COMRAM   BANK0   BANK1   BANK2   BANK3   BANK4   BANK5   BANK6   BANK7   BANK8   BANK9  BANK10  BANK11  BANK12  BANK13
      Params:         0       0       0       0       2       0       0       0       0       0       0       0       0       0       0
      Locals:         0       0       0       0       6       0       0       0       0       0       0       0       0       0       0
      Temps:          0       0       0       0       0       0       0       0       0       0       0       0       0       0       0
      Totals:         0       0       0       0       8       0       0       0       0       0       0       0       0       0       0
Total ram usage:        8 bytes
 Hardware stack levels used:    1
 Hardware stack levels required when called:   21
 This function calls:
		_FLASH_ReadWord
 This function is called by:
		_ringBufferLUT
		_terminal_printResetMessage
 This function uses a non-reentrant model


 *************** function _getMinorRevisionID *****************
 Defined at:
		line 23 in file "device_IDs.c"
 Parameters:    Size  Location     Type
		None
 Auto vars:     Size  Location     Type
  REVID_RAW       2   11[BANK3 ] unsigned int 
 Return value:  Size  Location     Type
                  1    wreg      unsigned char 
 Registers used:
		wreg, status,2, status,0, cstack
 Tracked objects:
		On entry : 
		On exit  : 
		Unchanged: 
 Data sizes:     COMRAM   BANK0   BANK1   BANK2   BANK3   BANK4   BANK5   BANK6   BANK7   BANK8   BANK9  BANK10  BANK11  BANK12  BANK13
      Params:         0       0       0       0       0       0       0       0       0       0       0       0       0       0       0
      Locals:         0       0       0       0       2       0       0       0       0       0       0       0       0       0       0
      Temps:          0       0       0       0       0       0       0       0       0       0       0       0       0       0       0
      Totals:         0       0       0       0       2       0       0       0       0       0       0       0       0       0       0
Total ram usage:        2 bytes
 Hardware stack levels used:    1
 Hardware stack levels required when called:   21
 This function calls:
		_FLASH_ReadWord
 This function is called by:
		_OLED_updateCallback
		_ringBufferLUT
		_terminal_printResetMessage
 This function uses a non-reentrant model


 *************** function _getMajorRevisionID *****************
 Defined at:
		line 12 in file "device_IDs.c"
 Parameters:    Size  Location     Type
		None
 Auto vars:     Size  Location     Type
  REVID_RAW       2   14[BANK3 ] unsigned int 
 Return value:  Size  Location     Type
                  1    wreg      unsigned char 
 Registers used:
		wreg, status,2, status,0, cstack
 Tracked objects:
		On entry : 
		On exit  : 
		Unchanged: 
 Data sizes:     COMRAM   BANK0   BANK1   BANK2   BANK3   BANK4   BANK5   BANK6   BANK7   BANK8   BANK9  BANK10  BANK11  BANK12  BANK13
      Params:         0       0       0       0       0       0       0       0       0       0       0       0       0       0       0
      Locals:         0       0       0       0       2       0       0       0       0       0       0       0       0       0       0
      Temps:          0       0       0       0       3       0       0       0       0       0       0       0       0       0       0
      Totals:         0       0       0       0       5       0       0       0       0       0       0       0       0       0       0
Total ram usage:        5 bytes
 Hardware stack levels used:    1
 Hardware stack levels required when called:   21
 This function calls:
		_FLASH_ReadWord
 This function is called by:
		_OLED_updateCallback
		_ringBufferLUT
		_terminal_printResetMessage
 This function uses a non-reentrant model


 *************** function _getDeviceIDString *****************
 Defined at:
		line 34 in file "device_IDs.c"
 Parameters:    Size  Location     Type
  inputDevID      2   13[BANK3 ] unsigned int 
 Auto vars:     Size  Location     Type
  strings         6   17[BANK3 ] PTR const unsigned char 
		 -> STR_319(10), STR_318(13), STR_317(12), 
 Return value:  Size  Location     Type
                  2   13[BANK3 ] PTR inline unsigned char
 Registers used:
		wreg, fsr1l, fsr1h, fsr2l, fsr2h, status,2, status,0
 Tracked objects:
		On entry : 
		On exit  : 
		Unchanged: 
 Data sizes:     COMRAM   BANK0   BANK1   BANK2   BANK3   BANK4   BANK5   BANK6   BANK7   BANK8   BANK9  BANK10  BANK11  BANK12  BANK13
      Params:         0       0       0       0       2       0       0       0       0       0       0       0       0       0       0
      Locals:         0       0       0       0       6       0       0       0       0       0       0       0       0       0       0
      Temps:          0       0       0       0       2       0       0       0       0       0       0       0       0       0       0
      Totals:         0       0       0       0      10       0       0       0       0       0       0       0       0       0       0
Total ram usage:       10 bytes
 Hardware stack levels used:    1
 Hardware stack levels required when called:   19
 This function calls:
		Nothing
 This function is called by:
		_ringBufferLUT
		_terminal_printResetMessage
 This function uses a non-reentrant model


 *************** function _getDeviceID *****************
 Defined at:
		line 4 in file "device_IDs.c"
 Parameters:    Size  Location     Type
		None
 Auto vars:     Size  Location     Type
		None
 Return value:  Size  Location     Type
                  2   11[BANK3 ] unsigned int 
 Registers used:
		wreg, status,2, status,0, cstack
 Tracked objects:
		On entry : 
		On exit  : 
		Unchanged: 
 Data sizes:     COMRAM   BANK0   BANK1   BANK2   BANK3   BANK4   BANK5   BANK6   BANK7   BANK8   BANK9  BANK10  BANK11  BANK12  BANK13
      Params:         0       0       0       0       2       0       0       0       0       0       0       0       0       0       0
      Locals:         0       0       0       0       0       0       0       0       0       0       0       0       0       0       0
      Temps:          0       0       0       0       0       0       0       0       0       0       0       0       0       0       0
      Totals:         0       0       0       0       2       0       0       0       0       0       0       0       0       0       0
Total ram usage:        2 bytes
 Hardware stack levels used:    1
 Hardware stack levels required when called:   21
 This function calls:
		_FLASH_ReadWord
 This function is called by:
		_OLED_updateCallback
		_ringBufferLUT
		_terminal_printResetMessage
 This function uses a non-reentrant model


 *************** function _FLASH_ReadWord *****************
 Defined at:
		line 71 in file "mcc_generated_files/memory.c"
 Parameters:    Size  Location     Type
  flashAddr       4    4[BANK3 ] unsigned long 
 Auto vars:     Size  Location     Type
		None
 Return value:  Size  Location     Type
                  2    4[BANK3 ] unsigned int 
 Registers used:
		wreg, status,2, status,0, cstack
 Tracked objects:
		On entry : 
		On exit  : 
		Unchanged: 
 Data sizes:     COMRAM   BANK0   BANK1   BANK2   BANK3   BANK4   BANK5   BANK6   BANK7   BANK8   BANK9  BANK10  BANK11  BANK12  BANK13
      Params:         0       0       0       0       4       0       0       0       0       0       0       0       0       0       0
      Locals:         0       0       0       0       0       0       0       0       0       0       0       0       0       0       0
      Temps:          0       0       0       0       3       0       0       0       0       0       0       0       0       0       0
      Totals:         0       0       0       0       7       0       0       0       0       0       0       0       0       0       0
Total ram usage:        7 bytes
 Hardware stack levels used:    1
 Hardware stack levels required when called:   20
 This function calls:
		_FLASH_ReadByte
 This function is called by:
		_getDeviceID
		_getMajorRevisionID
		_getMinorRevisionID
		_getUserID
 This function uses a non-reentrant model


 *************** function _FLASH_ReadByte *****************
 Defined at:
		line 59 in file "mcc_generated_files/memory.c"
 Parameters:    Size  Location     Type
  flashAddr       4    0[BANK3 ] unsigned long 
 Auto vars:     Size  Location     Type
		None
 Return value:  Size  Location     Type
                  1    wreg      unsigned char 
 Registers used:
		wreg, status,2
 Tracked objects:
		On entry : 
		On exit  : 
		Unchanged: 
 Data sizes:     COMRAM   BANK0   BANK1   BANK2   BANK3   BANK4   BANK5   BANK6   BANK7   BANK8   BANK9  BANK10  BANK11  BANK12  BANK13
      Params:         0       0       0       0       4       0       0       0       0       0       0       0       0       0       0
      Locals:         0       0       0       0       0       0       0       0       0       0       0       0       0       0       0
      Temps:          0       0       0       0       0       0       0       0       0       0       0       0       0       0       0
      Totals:         0       0       0       0       4       0       0       0       0       0       0       0       0       0       0
Total ram usage:        4 bytes
 Hardware stack levels used:    1
 Hardware stack levels required when called:   19
 This function calls:
		Nothing
 This function is called by:
		_FLASH_ReadWord
		_FLASH_WriteByte
 This function uses a non-reentrant model


 *************** function _getCauseOfResetString *****************
 Defined at:
		line 87 in file "cause_of_reset.c"
 Parameters:    Size  Location     Type
  r               1    wreg     enum E17455
 Auto vars:     Size  Location     Type
  r               1    2[BANK3 ] enum E17455
 Return value:  Size  Location     Type
                  2    0[BANK3 ] PTR inline unsigned char
 Registers used:
		wreg, fsr2l, fsr2h, status,2, status,0, prodl, prodh
 Tracked objects:
		On entry : 
		On exit  : 
		Unchanged: 
 Data sizes:     COMRAM   BANK0   BANK1   BANK2   BANK3   BANK4   BANK5   BANK6   BANK7   BANK8   BANK9  BANK10  BANK11  BANK12  BANK13
      Params:         0       0       0       0       2       0       0       0       0       0       0       0       0       0       0
      Locals:         0       0       0       0       1       0       0       0       0       0       0       0       0       0       0
      Temps:          0       0       0       0       0       0       0       0       0       0       0       0       0       0       0
      Totals:         0       0       0       0       3       0       0       0       0       0       0       0       0       0       0
Total ram usage:        3 bytes
 Hardware stack levels used:    1
 Hardware stack levels required when called:   19
 This function calls:
		Nothing
 This function is called by:
		_ringBufferLUT
		_terminal_printResetMessage
 This function uses a non-reentrant model


 *************** function _getCOMMError *****************
 Defined at:
		line 35 in file "error_handling.c"
 Parameters:    Size  Location     Type
		None
 Auto vars:     Size  Location     Type
		None
 Return value:  Size  Location     Type
                  1    wreg      unsigned char 
 Registers used:
		wreg, status,2
 Tracked objects:
		On entry : 
		On exit  : 
		Unchanged: 
 Data sizes:     COMRAM   BANK0   BANK1   BANK2   BANK3   BANK4   BANK5   BANK6   BANK7   BANK8   BANK9  BANK10  BANK11  BANK12  BANK13
      Params:         0       0       0       0       0       0       0       0       0       0       0       0       0       0       0
      Locals:         0       0       0       0       0       0       0       0       0       0       0       0       0       0       0
      Temps:          0       0       0       0       0       0       0       0       0       0       0       0       0       0       0
      Totals:         0       0       0       0       0       0       0       0       0       0       0       0       0       0       0
Total ram usage:        0 bytes
 Hardware stack levels used:    1
 Hardware stack levels required when called:   19
 This function calls:
		Nothing
 This function is called by:
		_ringBufferLUT
		_terminal_printResetMessage
		_updateErrorLEDs
 This function uses a non-reentrant model


 *************** function _getADCError *****************
 Defined at:
		line 11 in file "error_handling.c"
 Parameters:    Size  Location     Type
		None
 Auto vars:     Size  Location     Type
		None
 Return value:  Size  Location     Type
                  1    wreg      unsigned char 
 Registers used:
		wreg, status,2
 Tracked objects:
		On entry : 
		On exit  : 
		Unchanged: 
 Data sizes:     COMRAM   BANK0   BANK1   BANK2   BANK3   BANK4   BANK5   BANK6   BANK7   BANK8   BANK9  BANK10  BANK11  BANK12  BANK13
      Params:         0       0       0       0       0       0       0       0       0       0       0       0       0       0       0
      Locals:         0       0       0       0       0       0       0       0       0       0       0       0       0       0       0
      Temps:          0       0       0       0       0       0       0       0       0       0       0       0       0       0       0
      Totals:         0       0       0       0       0       0       0       0       0       0       0       0       0       0       0
Total ram usage:        0 bytes
 Hardware stack levels used:    1
 Hardware stack levels required when called:   19
 This function calls:
		Nothing
 This function is called by:
		_ringBufferLUT
		_terminal_printResetMessage
		_updateErrorLEDs
 This function uses a non-reentrant model


 *************** function _saveSRAMMaxToEEPROM *****************
 Defined at:
		line 161 in file "main.c"
 Parameters:    Size  Location     Type
		None
 Auto vars:     Size  Location     Type
		None
 Return value:  Size  Location     Type
                  1    wreg      void 
 Registers used:
		wreg, fsr2l, fsr2h, status,2, status,0, tblptrl, tblptrh, tblptru, cstack
 Tracked objects:
		On entry : 
		On exit  : 
		Unchanged: 
 Data sizes:     COMRAM   BANK0   BANK1   BANK2   BANK3   BANK4   BANK5   BANK6   BANK7   BANK8   BANK9  BANK10  BANK11  BANK12  BANK13
      Params:         0       0       0       0       0       0       0       0       0       0       0       0       0       0       0
      Locals:         0       0       0       0       0       0       0       0       0       0       0       0       0       0       0
      Temps:          0       0       0       0       0       0       0       0       0       0       0       0       0       0       0
      Totals:         0       0       0       0       0       0       0       0       0       0       0       0       0       0       0
Total ram usage:        0 bytes
 Hardware stack levels used:    1
 Hardware stack levels required when called:   21
 This function calls:
		___flge
		_writeDoubleToEEPROM
 This function is called by:
		_main
 This function uses a non-reentrant model


 *************** function _writeDoubleToEEPROM *****************
 Defined at:
		line 6 in file "double_to_EEPROM.c"
 Parameters:    Size  Location     Type
  input_double    4    4[BANK3 ] void 
  starting_add    2    8[BANK3 ] unsigned int 
 Auto vars:     Size  Location     Type
  byte_index      2   14[BANK3 ] int 
  input_data      4   10[BANK3 ] struct .
 Return value:  Size  Location     Type
                  1    wreg      void 
 Registers used:
		wreg, fsr2l, fsr2h, status,2, status,0, cstack
 Tracked objects:
		On entry : 
		On exit  : 
		Unchanged: 
 Data sizes:     COMRAM   BANK0   BANK1   BANK2   BANK3   BANK4   BANK5   BANK6   BANK7   BANK8   BANK9  BANK10  BANK11  BANK12  BANK13
      Params:         0       0       0       0       6       0       0       0       0       0       0       0       0       0       0
      Locals:         0       0       0       0       6       0       0       0       0       0       0       0       0       0       0
      Temps:          0       0       0       0       0       0       0       0       0       0       0       0       0       0       0
      Totals:         0       0       0       0      12       0       0       0       0       0       0       0       0       0       0
Total ram usage:       12 bytes
 Hardware stack levels used:    1
 Hardware stack levels required when called:   20
 This function calls:
		_DATAEE_WriteByte
 This function is called by:
		_saveSRAMMaxToEEPROM
		_ringBufferLUT
 This function uses a non-reentrant model


 *************** function _DATAEE_WriteByte *****************
 Defined at:
		line 168 in file "mcc_generated_files/memory.c"
 Parameters:    Size  Location     Type
  bAdd            2    0[BANK3 ] unsigned int 
  bData           1    2[BANK3 ] unsigned char 
 Auto vars:     Size  Location     Type
  GIEBitValue     1    3[BANK3 ] unsigned char 
 Return value:  Size  Location     Type
                  1    wreg      void 
 Registers used:
		wreg, status,2, status,0
 Tracked objects:
		On entry : 
		On exit  : 
		Unchanged: 
 Data sizes:     COMRAM   BANK0   BANK1   BANK2   BANK3   BANK4   BANK5   BANK6   BANK7   BANK8   BANK9  BANK10  BANK11  BANK12  BANK13
      Params:         0       0       0       0       3       0       0       0       0       0       0       0       0       0       0
      Locals:         0       0       0       0       1       0       0       0       0       0       0       0       0       0       0
      Temps:          0       0       0       0       0       0       0       0       0       0       0       0       0       0       0
      Totals:         0       0       0       0       4       0       0       0       0       0       0       0       0       0       0
Total ram usage:        4 bytes
 Hardware stack levels used:    1
 Hardware stack levels required when called:   19
 This function calls:
		Nothing
 This function is called by:
		_writeDoubleToEEPROM
 This function uses a non-reentrant model


 *************** function ___flge *****************
 Defined at:
		line 4 in file "C:\Program Files (x86)\Microchip\xc8\v1.45\sources\common\flge.c"
 Parameters:    Size  Location     Type
  ff1             4   72[BANK3 ] void 
  ff2             4   76[BANK3 ] void 
 Auto vars:     Size  Location     Type
		None
 Return value:  Size  Location     Type
		None               void
 Registers used:
		wreg, status,2, status,0
 Tracked objects:
		On entry : 
		On exit  : 
		Unchanged: 
 Data sizes:     COMRAM   BANK0   BANK1   BANK2   BANK3   BANK4   BANK5   BANK6   BANK7   BANK8   BANK9  BANK10  BANK11  BANK12  BANK13
      Params:         0       0       0       0       8       0       0       0       0       0       0       0       0       0       0
      Locals:         0       0       0       0       0       0       0       0       0       0       0       0       0       0       0
      Temps:          0       0       0       0       4       0       0       0       0       0       0       0       0       0       0
      Totals:         0       0       0       0      12       0       0       0       0       0       0       0       0       0       0
Total ram usage:       12 bytes
 Hardware stack levels used:    1
 Hardware stack levels required when called:   19
 This function calls:
		Nothing
 This function is called by:
		_saveSRAMMaxToEEPROM
		_OLED_updateCallback
		_ringBufferLUT
		__doprnt
		_asin
		_atan
 This function uses a non-reentrant model


 *************** function _recoverSRAMMaxFromEEPROM *****************
 Defined at:
		line 198 in file "main.c"
 Parameters:    Size  Location     Type
		None
 Auto vars:     Size  Location     Type
		None
 Return value:  Size  Location     Type
                  1    wreg      void 
 Registers used:
		wreg, fsr2l, fsr2h, status,2, status,0, tblptrl, tblptrh, tblptru, cstack
 Tracked objects:
		On entry : 
		On exit  : 
		Unchanged: 
 Data sizes:     COMRAM   BANK0   BANK1   BANK2   BANK3   BANK4   BANK5   BANK6   BANK7   BANK8   BANK9  BANK10  BANK11  BANK12  BANK13
      Params:         0       0       0       0       0       0       0       0       0       0       0       0       0       0       0
      Locals:         0       0       0       0       0       0       0       0       0       0       0       0       0       0       0
      Temps:          0       0       0       0       0       0       0       0       0       0       0       0       0       0       0
      Totals:         0       0       0       0       0       0       0       0       0       0       0       0       0       0       0
Total ram usage:        0 bytes
 Hardware stack levels used:    1
 Hardware stack levels required when called:   21
 This function calls:
		_readDoubleFromEEPROM
 This function is called by:
		_main
 This function uses a non-reentrant model


 *************** function _readDoubleFromEEPROM *****************
 Defined at:
		line 22 in file "double_to_EEPROM.c"
 Parameters:    Size  Location     Type
  starting_add    2    2[BANK3 ] unsigned int 
 Auto vars:     Size  Location     Type
  byte_index      2   10[BANK3 ] int 
  output_data     4    6[BANK3 ] struct .
 Return value:  Size  Location     Type
                  4    2[BANK3 ] struct .
 Registers used:
		wreg, fsr2l, fsr2h, status,2, status,0, cstack
 Tracked objects:
		On entry : 
		On exit  : 
		Unchanged: 
 Data sizes:     COMRAM   BANK0   BANK1   BANK2   BANK3   BANK4   BANK5   BANK6   BANK7   BANK8   BANK9  BANK10  BANK11  BANK12  BANK13
      Params:         0       0       0       0       4       0       0       0       0       0       0       0       0       0       0
      Locals:         0       0       0       0       6       0       0       0       0       0       0       0       0       0       0
      Temps:          0       0       0       0       0       0       0       0       0       0       0       0       0       0       0
      Totals:         0       0       0       0      10       0       0       0       0       0       0       0       0       0       0
Total ram usage:       10 bytes
 Hardware stack levels used:    1
 Hardware stack levels required when called:   20
 This function calls:
		_DATAEE_ReadByte
 This function is called by:
		_recoverSRAMMaxFromEEPROM
		_ringBufferLUT
 This function uses a non-reentrant model


 *************** function _DATAEE_ReadByte *****************
 Defined at:
		line 190 in file "mcc_generated_files/memory.c"
 Parameters:    Size  Location     Type
  bAdd            2    0[BANK3 ] unsigned int 
 Auto vars:     Size  Location     Type
		None
 Return value:  Size  Location     Type
                  1    wreg      unsigned char 
 Registers used:
		wreg, status,2, status,0
 Tracked objects:
		On entry : 
		On exit  : 
		Unchanged: 
 Data sizes:     COMRAM   BANK0   BANK1   BANK2   BANK3   BANK4   BANK5   BANK6   BANK7   BANK8   BANK9  BANK10  BANK11  BANK12  BANK13
      Params:         0       0       0       0       2       0       0       0       0       0       0       0       0       0       0
      Locals:         0       0       0       0       0       0       0       0       0       0       0       0       0       0       0
      Temps:          0       0       0       0       0       0       0       0       0       0       0       0       0       0       0
      Totals:         0       0       0       0       2       0       0       0       0       0       0       0       0       0       0
Total ram usage:        2 bytes
 Hardware stack levels used:    1
 Hardware stack levels required when called:   19
 This function calls:
		Nothing
 This function is called by:
		_readDoubleFromEEPROM
 This function uses a non-reentrant model


 *************** function _getCauseOfReset *****************
 Defined at:
		line 11 in file "cause_of_reset.c"
 Parameters:    Size  Location     Type
		None
 Auto vars:     Size  Location     Type
  return_reset    1    0[BANK3 ] enum E17455
 Return value:  Size  Location     Type
                  1    wreg      enum E18205
 Registers used:
		wreg, status,2
 Tracked objects:
		On entry : 
		On exit  : 
		Unchanged: 
 Data sizes:     COMRAM   BANK0   BANK1   BANK2   BANK3   BANK4   BANK5   BANK6   BANK7   BANK8   BANK9  BANK10  BANK11  BANK12  BANK13
      Params:         0       0       0       0       0       0       0       0       0       0       0       0       0       0       0
      Locals:         0       0       0       0       1       0       0       0       0       0       0       0       0       0       0
      Temps:          0       0       0       0       0       0       0       0       0       0       0       0       0       0       0
      Totals:         0       0       0       0       1       0       0       0       0       0       0       0       0       0       0
Total ram usage:        1 bytes
 Hardware stack levels used:    1
 Hardware stack levels required when called:   19
 This function calls:
		Nothing
 This function is called by:
		_main
 This function uses a non-reentrant model


 *************** function _SYSTEM_Initialize *****************
 Defined at:
		line 50 in file "mcc_generated_files/mcc.c"
 Parameters:    Size  Location     Type
		None
 Auto vars:     Size  Location     Type
		None
 Return value:  Size  Location     Type
                  1    wreg      void 
 Registers used:
		wreg, status,2, status,0, cstack
 Tracked objects:
		On entry : 
		On exit  : 
		Unchanged: 
 Data sizes:     COMRAM   BANK0   BANK1   BANK2   BANK3   BANK4   BANK5   BANK6   BANK7   BANK8   BANK9  BANK10  BANK11  BANK12  BANK13
      Params:         0       0       0       0       0       0       0       0       0       0       0       0       0       0       0
      Locals:         0       0       0       0       0       0       0       0       0       0       0       0       0       0       0
      Temps:          0       0       0       0       0       0       0       0       0       0       0       0       0       0       0
      Totals:         0       0       0       0       0       0       0       0       0       0       0       0       0       0       0
Total ram usage:        0 bytes
 Hardware stack levels used:    1
 Hardware stack levels required when called:   21
 This function calls:
		_ADCC_Initialize
		_EUSART2_Initialize
		_EXT_INT_Initialize
		_FVR_Initialize
		_HLVD_Initialize
		_I2C1_Initialize
		_INTERRUPT_Initialize
		_OSCILLATOR_Initialize
		_PIN_MANAGER_Initialize
		_PMD_Initialize
		_TMR2_Initialize
		_TMR4_Initialize
		_TMR5_Initialize
		_TMR6_Initialize
		_TMR7_Initialize
 This function is called by:
		_main
 This function uses a non-reentrant model


 *************** function _TMR7_Initialize *****************
 Defined at:
		line 64 in file "mcc_generated_files/tmr7.c"
 Parameters:    Size  Location     Type
		None
 Auto vars:     Size  Location     Type
		None
 Return value:  Size  Location     Type
                  1    wreg      void 
 Registers used:
		wreg, status,2, status,0, cstack
 Tracked objects:
		On entry : 
		On exit  : 
		Unchanged: 
 Data sizes:     COMRAM   BANK0   BANK1   BANK2   BANK3   BANK4   BANK5   BANK6   BANK7   BANK8   BANK9  BANK10  BANK11  BANK12  BANK13
      Params:         0       0       0       0       0       0       0       0       0       0       0       0       0       0       0
      Locals:         0       0       0       0       0       0       0       0       0       0       0       0       0       0       0
      Temps:          0       0       0       0       2       0       0       0       0       0       0       0       0       0       0
      Totals:         0       0       0       0       2       0       0       0       0       0       0       0       0       0       0
Total ram usage:        2 bytes
 Hardware stack levels used:    1
 Hardware stack levels required when called:   20
 This function calls:
		_TMR7_SetInterruptHandler
 This function is called by:
		_SYSTEM_Initialize
 This function uses a non-reentrant model


 *************** function _TMR7_SetInterruptHandler *****************
 Defined at:
		line 178 in file "mcc_generated_files/tmr7.c"
 Parameters:    Size  Location     Type
  InterruptHan    3    0[BANK3 ] PTR FTN()void 
		 -> acquisitionTimerCallback(1), TMR7_DefaultInterruptHandler(1), 
 Auto vars:     Size  Location     Type
		None
 Return value:  Size  Location     Type
                  1    wreg      void 
 Registers used:
		wreg, status,2, status,0
 Tracked objects:
		On entry : 
		On exit  : 
		Unchanged: 
 Data sizes:     COMRAM   BANK0   BANK1   BANK2   BANK3   BANK4   BANK5   BANK6   BANK7   BANK8   BANK9  BANK10  BANK11  BANK12  BANK13
      Params:         0       0       0       0       3       0       0       0       0       0       0       0       0       0       0
      Locals:         0       0       0       0       0       0       0       0       0       0       0       0       0       0       0
      Temps:          0       0       0       0       0       0       0       0       0       0       0       0       0       0       0
      Totals:         0       0       0       0       3       0       0       0       0       0       0       0       0       0       0
Total ram usage:        3 bytes
 Hardware stack levels used:    1
 Hardware stack levels required when called:   19
 This function calls:
		Nothing
 This function is called by:
		_TMR7_Initialize
		_main
 This function uses a non-reentrant model


 *************** function _TMR6_Initialize *****************
 Defined at:
		line 64 in file "mcc_generated_files/tmr6.c"
 Parameters:    Size  Location     Type
		None
 Auto vars:     Size  Location     Type
		None
 Return value:  Size  Location     Type
                  1    wreg      void 
 Registers used:
		wreg, status,2, status,0, cstack
 Tracked objects:
		On entry : 
		On exit  : 
		Unchanged: 
 Data sizes:     COMRAM   BANK0   BANK1   BANK2   BANK3   BANK4   BANK5   BANK6   BANK7   BANK8   BANK9  BANK10  BANK11  BANK12  BANK13
      Params:         0       0       0       0       0       0       0       0       0       0       0       0       0       0       0
      Locals:         0       0       0       0       0       0       0       0       0       0       0       0       0       0       0
      Temps:          0       0       0       0       0       0       0       0       0       0       0       0       0       0       0
      Totals:         0       0       0       0       0       0       0       0       0       0       0       0       0       0       0
Total ram usage:        0 bytes
 Hardware stack levels used:    1
 Hardware stack levels required when called:   20
 This function calls:
		_TMR6_SetInterruptHandler
 This function is called by:
		_SYSTEM_Initialize
 This function uses a non-reentrant model


 *************** function _TMR6_SetInterruptHandler *****************
 Defined at:
		line 178 in file "mcc_generated_files/tmr6.c"
 Parameters:    Size  Location     Type
  InterruptHan    3    0[BANK3 ] PTR FTN()void 
		 -> heartbeatTimerCallback(1), TMR6_DefaultInterruptHandler(1), 
 Auto vars:     Size  Location     Type
		None
 Return value:  Size  Location     Type
                  1    wreg      void 
 Registers used:
		wreg, status,2, status,0
 Tracked objects:
		On entry : 
		On exit  : 
		Unchanged: 
 Data sizes:     COMRAM   BANK0   BANK1   BANK2   BANK3   BANK4   BANK5   BANK6   BANK7   BANK8   BANK9  BANK10  BANK11  BANK12  BANK13
      Params:         0       0       0       0       3       0       0       0       0       0       0       0       0       0       0
      Locals:         0       0       0       0       0       0       0       0       0       0       0       0       0       0       0
      Temps:          0       0       0       0       0       0       0       0       0       0       0       0       0       0       0
      Totals:         0       0       0       0       3       0       0       0       0       0       0       0       0       0       0
Total ram usage:        3 bytes
 Hardware stack levels used:    1
 Hardware stack levels required when called:   19
 This function calls:
		Nothing
 This function is called by:
		_TMR6_Initialize
		_main
 This function uses a non-reentrant model


 *************** function _TMR5_Initialize *****************
 Defined at:
		line 64 in file "mcc_generated_files/tmr5.c"
 Parameters:    Size  Location     Type
		None
 Auto vars:     Size  Location     Type
		None
 Return value:  Size  Location     Type
                  1    wreg      void 
 Registers used:
		wreg, status,2, status,0, cstack
 Tracked objects:
		On entry : 
		On exit  : 
		Unchanged: 
 Data sizes:     COMRAM   BANK0   BANK1   BANK2   BANK3   BANK4   BANK5   BANK6   BANK7   BANK8   BANK9  BANK10  BANK11  BANK12  BANK13
      Params:         0       0       0       0       0       0       0       0       0       0       0       0       0       0       0
      Locals:         0       0       0       0       0       0       0       0       0       0       0       0       0       0       0
      Temps:          0       0       0       0       2       0       0       0       0       0       0       0       0       0       0
      Totals:         0       0       0       0       2       0       0       0       0       0       0       0       0       0       0
Total ram usage:        2 bytes
 Hardware stack levels used:    1
 Hardware stack levels required when called:   20
 This function calls:
		_TMR5_SetInterruptHandler
 This function is called by:
		_SYSTEM_Initialize
 This function uses a non-reentrant model


 *************** function _TMR5_SetInterruptHandler *****************
 Defined at:
		line 178 in file "mcc_generated_files/tmr5.c"
 Parameters:    Size  Location     Type
  InterruptHan    3    0[BANK3 ] PTR FTN()void 
		 -> dimmingOnTimeCallback(1), TMR5_DefaultInterruptHandler(1), 
 Auto vars:     Size  Location     Type
		None
 Return value:  Size  Location     Type
                  1    wreg      void 
 Registers used:
		wreg, status,2, status,0
 Tracked objects:
		On entry : 
		On exit  : 
		Unchanged: 
 Data sizes:     COMRAM   BANK0   BANK1   BANK2   BANK3   BANK4   BANK5   BANK6   BANK7   BANK8   BANK9  BANK10  BANK11  BANK12  BANK13
      Params:         0       0       0       0       3       0       0       0       0       0       0       0       0       0       0
      Locals:         0       0       0       0       0       0       0       0       0       0       0       0       0       0       0
      Temps:          0       0       0       0       0       0       0       0       0       0       0       0       0       0       0
      Totals:         0       0       0       0       3       0       0       0       0       0       0       0       0       0       0
Total ram usage:        3 bytes
 Hardware stack levels used:    1
 Hardware stack levels required when called:   19
 This function calls:
		Nothing
 This function is called by:
		_TMR5_Initialize
		_main
 This function uses a non-reentrant model


 *************** function _TMR4_Initialize *****************
 Defined at:
		line 64 in file "mcc_generated_files/tmr4.c"
 Parameters:    Size  Location     Type
		None
 Auto vars:     Size  Location     Type
		None
 Return value:  Size  Location     Type
                  1    wreg      void 
 Registers used:
		wreg, status,2, status,0, cstack
 Tracked objects:
		On entry : 
		On exit  : 
		Unchanged: 
 Data sizes:     COMRAM   BANK0   BANK1   BANK2   BANK3   BANK4   BANK5   BANK6   BANK7   BANK8   BANK9  BANK10  BANK11  BANK12  BANK13
      Params:         0       0       0       0       0       0       0       0       0       0       0       0       0       0       0
      Locals:         0       0       0       0       0       0       0       0       0       0       0       0       0       0       0
      Temps:          0       0       0       0       0       0       0       0       0       0       0       0       0       0       0
      Totals:         0       0       0       0       0       0       0       0       0       0       0       0       0       0       0
Total ram usage:        0 bytes
 Hardware stack levels used:    1
 Hardware stack levels required when called:   20
 This function calls:
		_TMR4_SetInterruptHandler
 This function is called by:
		_SYSTEM_Initialize
 This function uses a non-reentrant model


 *************** function _TMR4_SetInterruptHandler *****************
 Defined at:
		line 193 in file "mcc_generated_files/tmr4.c"
 Parameters:    Size  Location     Type
  InterruptHan    3    0[BANK3 ] PTR FTN()void 
		 -> writeEnergyToEEPROMCallback(1), TMR4_DefaultInterruptHandler(1), 
 Auto vars:     Size  Location     Type
		None
 Return value:  Size  Location     Type
                  1    wreg      void 
 Registers used:
		wreg, status,2, status,0
 Tracked objects:
		On entry : 
		On exit  : 
		Unchanged: 
 Data sizes:     COMRAM   BANK0   BANK1   BANK2   BANK3   BANK4   BANK5   BANK6   BANK7   BANK8   BANK9  BANK10  BANK11  BANK12  BANK13
      Params:         0       0       0       0       3       0       0       0       0       0       0       0       0       0       0
      Locals:         0       0       0       0       0       0       0       0       0       0       0       0       0       0       0
      Temps:          0       0       0       0       0       0       0       0       0       0       0       0       0       0       0
      Totals:         0       0       0       0       3       0       0       0       0       0       0       0       0       0       0
Total ram usage:        3 bytes
 Hardware stack levels used:    1
 Hardware stack levels required when called:   19
 This function calls:
		Nothing
 This function is called by:
		_TMR4_Initialize
		_main
 This function uses a non-reentrant model


 *************** function _TMR2_Initialize *****************
 Defined at:
		line 64 in file "mcc_generated_files/tmr2.c"
 Parameters:    Size  Location     Type
		None
 Auto vars:     Size  Location     Type
		None
 Return value:  Size  Location     Type
                  1    wreg      void 
 Registers used:
		wreg, status,2, status,0, cstack
 Tracked objects:
		On entry : 
		On exit  : 
		Unchanged: 
 Data sizes:     COMRAM   BANK0   BANK1   BANK2   BANK3   BANK4   BANK5   BANK6   BANK7   BANK8   BANK9  BANK10  BANK11  BANK12  BANK13
      Params:         0       0       0       0       0       0       0       0       0       0       0       0       0       0       0
      Locals:         0       0       0       0       0       0       0       0       0       0       0       0       0       0       0
      Temps:          0       0       0       0       0       0       0       0       0       0       0       0       0       0       0
      Totals:         0       0       0       0       0       0       0       0       0       0       0       0       0       0       0
Total ram usage:        0 bytes
 Hardware stack levels used:    1
 Hardware stack levels required when called:   20
 This function calls:
		_TMR2_SetInterruptHandler
 This function is called by:
		_SYSTEM_Initialize
 This function uses a non-reentrant model


 *************** function _TMR2_SetInterruptHandler *****************
 Defined at:
		line 192 in file "mcc_generated_files/tmr2.c"
 Parameters:    Size  Location     Type
  InterruptHan    3    0[BANK3 ] PTR FTN()void 
		 -> OLED_updateCallback(1), TMR2_DefaultInterruptHandler(1), 
 Auto vars:     Size  Location     Type
		None
 Return value:  Size  Location     Type
                  1    wreg      void 
 Registers used:
		wreg, status,2, status,0
 Tracked objects:
		On entry : 
		On exit  : 
		Unchanged: 
 Data sizes:     COMRAM   BANK0   BANK1   BANK2   BANK3   BANK4   BANK5   BANK6   BANK7   BANK8   BANK9  BANK10  BANK11  BANK12  BANK13
      Params:         0       0       0       0       3       0       0       0       0       0       0       0       0       0       0
      Locals:         0       0       0       0       0       0       0       0       0       0       0       0       0       0       0
      Temps:          0       0       0       0       0       0       0       0       0       0       0       0       0       0       0
      Totals:         0       0       0       0       3       0       0       0       0       0       0       0       0       0       0
Total ram usage:        3 bytes
 Hardware stack levels used:    1
 Hardware stack levels required when called:   19
 This function calls:
		Nothing
 This function is called by:
		_TMR2_Initialize
		_main
 This function uses a non-reentrant model


 *************** function _PMD_Initialize *****************
 Defined at:
		line 87 in file "mcc_generated_files/mcc.c"
 Parameters:    Size  Location     Type
		None
 Auto vars:     Size  Location     Type
		None
 Return value:  Size  Location     Type
                  1    wreg      void 
 Registers used:
		wreg, status,2
 Tracked objects:
		On entry : 
		On exit  : 
		Unchanged: 
 Data sizes:     COMRAM   BANK0   BANK1   BANK2   BANK3   BANK4   BANK5   BANK6   BANK7   BANK8   BANK9  BANK10  BANK11  BANK12  BANK13
      Params:         0       0       0       0       0       0       0       0       0       0       0       0       0       0       0
      Locals:         0       0       0       0       0       0       0       0       0       0       0       0       0       0       0
      Temps:          0       0       0       0       0       0       0       0       0       0       0       0       0       0       0
      Totals:         0       0       0       0       0       0       0       0       0       0       0       0       0       0       0
Total ram usage:        0 bytes
 Hardware stack levels used:    1
 Hardware stack levels required when called:   19
 This function calls:
		Nothing
 This function is called by:
		_SYSTEM_Initialize
 This function uses a non-reentrant model


 *************** function _PIN_MANAGER_Initialize *****************
 Defined at:
		line 57 in file "mcc_generated_files/pin_manager.c"
 Parameters:    Size  Location     Type
		None
 Auto vars:     Size  Location     Type
		None
 Return value:  Size  Location     Type
                  1    wreg      void 
 Registers used:
		wreg, status,2
 Tracked objects:
		On entry : 
		On exit  : 
		Unchanged: 
 Data sizes:     COMRAM   BANK0   BANK1   BANK2   BANK3   BANK4   BANK5   BANK6   BANK7   BANK8   BANK9  BANK10  BANK11  BANK12  BANK13
      Params:         0       0       0       0       0       0       0       0       0       0       0       0       0       0       0
      Locals:         0       0       0       0       0       0       0       0       0       0       0       0       0       0       0
      Temps:          0       0       0       0       0       0       0       0       0       0       0       0       0       0       0
      Totals:         0       0       0       0       0       0       0       0       0       0       0       0       0       0       0
Total ram usage:        0 bytes
 Hardware stack levels used:    1
 Hardware stack levels required when called:   19
 This function calls:
		Nothing
 This function is called by:
		_SYSTEM_Initialize
 This function uses a non-reentrant model


 *************** function _OSCILLATOR_Initialize *****************
 Defined at:
		line 69 in file "mcc_generated_files/mcc.c"
 Parameters:    Size  Location     Type
		None
 Auto vars:     Size  Location     Type
		None
 Return value:  Size  Location     Type
                  1    wreg      void 
 Registers used:
		wreg, status,2
 Tracked objects:
		On entry : 
		On exit  : 
		Unchanged: 
 Data sizes:     COMRAM   BANK0   BANK1   BANK2   BANK3   BANK4   BANK5   BANK6   BANK7   BANK8   BANK9  BANK10  BANK11  BANK12  BANK13
      Params:         0       0       0       0       0       0       0       0       0       0       0       0       0       0       0
      Locals:         0       0       0       0       0       0       0       0       0       0       0       0       0       0       0
      Temps:          0       0       0       0       0       0       0       0       0       0       0       0       0       0       0
      Totals:         0       0       0       0       0       0       0       0       0       0       0       0       0       0       0
Total ram usage:        0 bytes
 Hardware stack levels used:    1
 Hardware stack levels required when called:   19
 This function calls:
		Nothing
 This function is called by:
		_SYSTEM_Initialize
 This function uses a non-reentrant model


 *************** function _INTERRUPT_Initialize *****************
 Defined at:
		line 52 in file "mcc_generated_files/interrupt_manager.c"
 Parameters:    Size  Location     Type
		None
 Auto vars:     Size  Location     Type
		None
 Return value:  Size  Location     Type
                  1    wreg      void 
 Registers used:
		None
 Tracked objects:
		On entry : 
		On exit  : 
		Unchanged: 
 Data sizes:     COMRAM   BANK0   BANK1   BANK2   BANK3   BANK4   BANK5   BANK6   BANK7   BANK8   BANK9  BANK10  BANK11  BANK12  BANK13
      Params:         0       0       0       0       0       0       0       0       0       0       0       0       0       0       0
      Locals:         0       0       0       0       0       0       0       0       0       0       0       0       0       0       0
      Temps:          0       0       0       0       0       0       0       0       0       0       0       0       0       0       0
      Totals:         0       0       0       0       0       0       0       0       0       0       0       0       0       0       0
Total ram usage:        0 bytes
 Hardware stack levels used:    1
 Hardware stack levels required when called:   19
 This function calls:
		Nothing
 This function is called by:
		_SYSTEM_Initialize
 This function uses a non-reentrant model


 *************** function _I2C1_Initialize *****************
 Defined at:
		line 198 in file "mcc_generated_files/i2c1.c"
 Parameters:    Size  Location     Type
		None
 Auto vars:     Size  Location     Type
		None
 Return value:  Size  Location     Type
                  1    wreg      void 
 Registers used:
		wreg, status,2, status,0
 Tracked objects:
		On entry : 
		On exit  : 
		Unchanged: 
 Data sizes:     COMRAM   BANK0   BANK1   BANK2   BANK3   BANK4   BANK5   BANK6   BANK7   BANK8   BANK9  BANK10  BANK11  BANK12  BANK13
      Params:         0       0       0       0       0       0       0       0       0       0       0       0       0       0       0
      Locals:         0       0       0       0       0       0       0       0       0       0       0       0       0       0       0
      Temps:          0       0       0       0       0       0       0       0       0       0       0       0       0       0       0
      Totals:         0       0       0       0       0       0       0       0       0       0       0       0       0       0       0
Total ram usage:        0 bytes
 Hardware stack levels used:    1
 Hardware stack levels required when called:   19
 This function calls:
		Nothing
 This function is called by:
		_SYSTEM_Initialize
 This function uses a non-reentrant model


 *************** function _HLVD_Initialize *****************
 Defined at:
		line 61 in file "mcc_generated_files/hlvd.c"
 Parameters:    Size  Location     Type
		None
 Auto vars:     Size  Location     Type
		None
 Return value:  Size  Location     Type
                  1    wreg      void 
 Registers used:
		wreg, status,2
 Tracked objects:
		On entry : 
		On exit  : 
		Unchanged: 
 Data sizes:     COMRAM   BANK0   BANK1   BANK2   BANK3   BANK4   BANK5   BANK6   BANK7   BANK8   BANK9  BANK10  BANK11  BANK12  BANK13
      Params:         0       0       0       0       0       0       0       0       0       0       0       0       0       0       0
      Locals:         0       0       0       0       0       0       0       0       0       0       0       0       0       0       0
      Temps:          0       0       0       0       0       0       0       0       0       0       0       0       0       0       0
      Totals:         0       0       0       0       0       0       0       0       0       0       0       0       0       0       0
Total ram usage:        0 bytes
 Hardware stack levels used:    1
 Hardware stack levels required when called:   19
 This function calls:
		Nothing
 This function is called by:
		_SYSTEM_Initialize
 This function uses a non-reentrant model


 *************** function _FVR_Initialize *****************
 Defined at:
		line 58 in file "mcc_generated_files/fvr.c"
 Parameters:    Size  Location     Type
		None
 Auto vars:     Size  Location     Type
		None
 Return value:  Size  Location     Type
                  1    wreg      void 
 Registers used:
		wreg, status,2
 Tracked objects:
		On entry : 
		On exit  : 
		Unchanged: 
 Data sizes:     COMRAM   BANK0   BANK1   BANK2   BANK3   BANK4   BANK5   BANK6   BANK7   BANK8   BANK9  BANK10  BANK11  BANK12  BANK13
      Params:         0       0       0       0       0       0       0       0       0       0       0       0       0       0       0
      Locals:         0       0       0       0       0       0       0       0       0       0       0       0       0       0       0
      Temps:          0       0       0       0       0       0       0       0       0       0       0       0       0       0       0
      Totals:         0       0       0       0       0       0       0       0       0       0       0       0       0       0       0
Total ram usage:        0 bytes
 Hardware stack levels used:    1
 Hardware stack levels required when called:   19
 This function calls:
		Nothing
 This function is called by:
		_SYSTEM_Initialize
 This function uses a non-reentrant model


 *************** function _EXT_INT_Initialize *****************
 Defined at:
		line 59 in file "mcc_generated_files/ext_int.c"
 Parameters:    Size  Location     Type
		None
 Auto vars:     Size  Location     Type
		None
 Return value:  Size  Location     Type
                  1    wreg      void 
 Registers used:
		wreg, status,2, status,0, cstack
 Tracked objects:
		On entry : 
		On exit  : 
		Unchanged: 
 Data sizes:     COMRAM   BANK0   BANK1   BANK2   BANK3   BANK4   BANK5   BANK6   BANK7   BANK8   BANK9  BANK10  BANK11  BANK12  BANK13
      Params:         0       0       0       0       0       0       0       0       0       0       0       0       0       0       0
      Locals:         0       0       0       0       0       0       0       0       0       0       0       0       0       0       0
      Temps:          0       0       0       0       0       0       0       0       0       0       0       0       0       0       0
      Totals:         0       0       0       0       0       0       0       0       0       0       0       0       0       0       0
Total ram usage:        0 bytes
 Hardware stack levels used:    1
 Hardware stack levels required when called:   20
 This function calls:
		_INT0_SetInterruptHandler
 This function is called by:
		_SYSTEM_Initialize
 This function uses a non-reentrant model


 *************** function _INT0_SetInterruptHandler *****************
 Defined at:
		line 50 in file "mcc_generated_files/ext_int.c"
 Parameters:    Size  Location     Type
  InterruptHan    3    0[BANK3 ] PTR FTN()void 
		 -> dimmingOffTimeCallback(1), INT0_DefaultInterruptHandler(1), 
 Auto vars:     Size  Location     Type
		None
 Return value:  Size  Location     Type
                  1    wreg      void 
 Registers used:
		wreg, status,2, status,0
 Tracked objects:
		On entry : 
		On exit  : 
		Unchanged: 
 Data sizes:     COMRAM   BANK0   BANK1   BANK2   BANK3   BANK4   BANK5   BANK6   BANK7   BANK8   BANK9  BANK10  BANK11  BANK12  BANK13
      Params:         0       0       0       0       3       0       0       0       0       0       0       0       0       0       0
      Locals:         0       0       0       0       0       0       0       0       0       0       0       0       0       0       0
      Temps:          0       0       0       0       0       0       0       0       0       0       0       0       0       0       0
      Totals:         0       0       0       0       3       0       0       0       0       0       0       0       0       0       0
Total ram usage:        3 bytes
 Hardware stack levels used:    1
 Hardware stack levels required when called:   19
 This function calls:
		Nothing
 This function is called by:
		_EXT_INT_Initialize
		_main
 This function uses a non-reentrant model


 *************** function _EUSART2_Initialize *****************
 Defined at:
		line 79 in file "mcc_generated_files/eusart2.c"
 Parameters:    Size  Location     Type
		None
 Auto vars:     Size  Location     Type
		None
 Return value:  Size  Location     Type
                  1    wreg      void 
 Registers used:
		wreg, status,2, status,0, cstack
 Tracked objects:
		On entry : 
		On exit  : 
		Unchanged: 
 Data sizes:     COMRAM   BANK0   BANK1   BANK2   BANK3   BANK4   BANK5   BANK6   BANK7   BANK8   BANK9  BANK10  BANK11  BANK12  BANK13
      Params:         0       0       0       0       0       0       0       0       0       0       0       0       0       0       0
      Locals:         0       0       0       0       0       0       0       0       0       0       0       0       0       0       0
      Temps:          0       0       0       0       0       0       0       0       0       0       0       0       0       0       0
      Totals:         0       0       0       0       0       0       0       0       0       0       0       0       0       0       0
Total ram usage:        0 bytes
 Hardware stack levels used:    1
 Hardware stack levels required when called:   20
 This function calls:
		_EUSART2_SetRxInterruptHandler
		_EUSART2_SetTxInterruptHandler
 This function is called by:
		_SYSTEM_Initialize
 This function uses a non-reentrant model


 *************** function _EUSART2_SetTxInterruptHandler *****************
 Defined at:
		line 269 in file "mcc_generated_files/eusart2.c"
 Parameters:    Size  Location     Type
  interruptHan    3    0[BANK3 ] PTR FTN()void 
		 -> EUSART2_Transmit_ISR(1), 
 Auto vars:     Size  Location     Type
		None
 Return value:  Size  Location     Type
                  1    wreg      void 
 Registers used:
		wreg, status,2, status,0
 Tracked objects:
		On entry : 
		On exit  : 
		Unchanged: 
 Data sizes:     COMRAM   BANK0   BANK1   BANK2   BANK3   BANK4   BANK5   BANK6   BANK7   BANK8   BANK9  BANK10  BANK11  BANK12  BANK13
      Params:         0       0       0       0       3       0       0       0       0       0       0       0       0       0       0
      Locals:         0       0       0       0       0       0       0       0       0       0       0       0       0       0       0
      Temps:          0       0       0       0       0       0       0       0       0       0       0       0       0       0       0
      Totals:         0       0       0       0       3       0       0       0       0       0       0       0       0       0       0
Total ram usage:        3 bytes
 Hardware stack levels used:    1
 Hardware stack levels required when called:   19
 This function calls:
		Nothing
 This function is called by:
		_EUSART2_Initialize
 This function uses a non-reentrant model


 *************** function _EUSART2_SetRxInterruptHandler *****************
 Defined at:
		line 273 in file "mcc_generated_files/eusart2.c"
 Parameters:    Size  Location     Type
  interruptHan    3    0[BANK3 ] PTR FTN()void 
		 -> EUSART2_Receive_ISR(1), 
 Auto vars:     Size  Location     Type
		None
 Return value:  Size  Location     Type
                  1    wreg      void 
 Registers used:
		wreg, status,2, status,0
 Tracked objects:
		On entry : 
		On exit  : 
		Unchanged: 
 Data sizes:     COMRAM   BANK0   BANK1   BANK2   BANK3   BANK4   BANK5   BANK6   BANK7   BANK8   BANK9  BANK10  BANK11  BANK12  BANK13
      Params:         0       0       0       0       3       0       0       0       0       0       0       0       0       0       0
      Locals:         0       0       0       0       0       0       0       0       0       0       0       0       0       0       0
      Temps:          0       0       0       0       0       0       0       0       0       0       0       0       0       0       0
      Totals:         0       0       0       0       3       0       0       0       0       0       0       0       0       0       0
Total ram usage:        3 bytes
 Hardware stack levels used:    1
 Hardware stack levels required when called:   19
 This function calls:
		Nothing
 This function is called by:
		_EUSART2_Initialize
 This function uses a non-reentrant model


 *************** function _ADCC_Initialize *****************
 Defined at:
		line 63 in file "mcc_generated_files/adcc.c"
 Parameters:    Size  Location     Type
		None
 Auto vars:     Size  Location     Type
		None
 Return value:  Size  Location     Type
                  1    wreg      void 
 Registers used:
		wreg, status,2, status,0, cstack
 Tracked objects:
		On entry : 
		On exit  : 
		Unchanged: 
 Data sizes:     COMRAM   BANK0   BANK1   BANK2   BANK3   BANK4   BANK5   BANK6   BANK7   BANK8   BANK9  BANK10  BANK11  BANK12  BANK13
      Params:         0       0       0       0       0       0       0       0       0       0       0       0       0       0       0
      Locals:         0       0       0       0       0       0       0       0       0       0       0       0       0       0       0
      Temps:          0       0       0       0       0       0       0       0       0       0       0       0       0       0       0
      Totals:         0       0       0       0       0       0       0       0       0       0       0       0       0       0       0
Total ram usage:        0 bytes
 Hardware stack levels used:    1
 Hardware stack levels required when called:   20
 This function calls:
		_ADCC_SetADTIInterruptHandler
 This function is called by:
		_SYSTEM_Initialize
 This function uses a non-reentrant model


 *************** function _ADCC_SetADTIInterruptHandler *****************
 Defined at:
		line 310 in file "mcc_generated_files/adcc.c"
 Parameters:    Size  Location     Type
  InterruptHan    3    0[BANK3 ] PTR FTN()void 
		 -> ADC_PostProcessingCallback(1), ADCC_DefaultInterruptHandler(1), 
 Auto vars:     Size  Location     Type
		None
 Return value:  Size  Location     Type
                  1    wreg      void 
 Registers used:
		wreg, status,2, status,0
 Tracked objects:
		On entry : 
		On exit  : 
		Unchanged: 
 Data sizes:     COMRAM   BANK0   BANK1   BANK2   BANK3   BANK4   BANK5   BANK6   BANK7   BANK8   BANK9  BANK10  BANK11  BANK12  BANK13
      Params:         0       0       0       0       3       0       0       0       0       0       0       0       0       0       0
      Locals:         0       0       0       0       0       0       0       0       0       0       0       0       0       0       0
      Temps:          0       0       0       0       0       0       0       0       0       0       0       0       0       0       0
      Totals:         0       0       0       0       3       0       0       0       0       0       0       0       0       0       0
Total ram usage:        3 bytes
 Hardware stack levels used:    1
 Hardware stack levels required when called:   19
 This function calls:
		Nothing
 This function is called by:
		_ADCC_Initialize
		_main
 This function uses a non-reentrant model


 *************** function _OLED_Init *****************
 Defined at:
		line 162 in file "oled.c"
 Parameters:    Size  Location     Type
		None
 Auto vars:     Size  Location     Type
		None
 Return value:  Size  Location     Type
                  1    wreg      void 
 Registers used:
		wreg, fsr2l, fsr2h, status,2, status,0, cstack
 Tracked objects:
		On entry : 
		On exit  : 
		Unchanged: 
 Data sizes:     COMRAM   BANK0   BANK1   BANK2   BANK3   BANK4   BANK5   BANK6   BANK7   BANK8   BANK9  BANK10  BANK11  BANK12  BANK13
      Params:         0       0       0       0       0       0       0       0       0       0       0       0       0       0       0
      Locals:         0       0       0       0       0       0       0       0       0       0       0       0       0       0       0
      Temps:          0       0       0       0       0       0       0       0       0       0       0       0       0       0       0
      Totals:         0       0       0       0       0       0       0       0       0       0       0       0       0       0       0
Total ram usage:        0 bytes
 Hardware stack levels used:    1
 Hardware stack levels required when called:   23
 This function calls:
		_OLED_Command
 This function is called by:
		_main
 This function uses a non-reentrant model


 *************** function _OLED_Command *****************
 Defined at:
		line 110 in file "oled.c"
 Parameters:    Size  Location     Type
  temp            1    wreg     unsigned char 
 Auto vars:     Size  Location     Type
  temp            1   16[BANK3 ] unsigned char 
  data_array      2   18[BANK3 ] unsigned char [2]
  length          1   17[BANK3 ] unsigned char 
 Return value:  Size  Location     Type
                  1    wreg      void 
 Registers used:
		wreg, fsr2l, fsr2h, status,2, status,0, cstack
 Tracked objects:
		On entry : 
		On exit  : 
		Unchanged: 
 Data sizes:     COMRAM   BANK0   BANK1   BANK2   BANK3   BANK4   BANK5   BANK6   BANK7   BANK8   BANK9  BANK10  BANK11  BANK12  BANK13
      Params:         0       0       0       0       0       0       0       0       0       0       0       0       0       0       0
      Locals:         0       0       0       0       4       0       0       0       0       0       0       0       0       0       0
      Temps:          0       0       0       0       0       0       0       0       0       0       0       0       0       0       0
      Totals:         0       0       0       0       4       0       0       0       0       0       0       0       0       0       0
Total ram usage:        4 bytes
 Hardware stack levels used:    1
 Hardware stack levels required when called:   22
 This function calls:
		_I2C1_MasterWrite
 This function is called by:
		_OLED_Init
		_OLED_YX
 This function uses a non-reentrant model


 *************** function _I2C1_MasterWrite *****************
 Defined at:
		line 600 in file "mcc_generated_files/i2c1.c"
 Parameters:    Size  Location     Type
  pdata           2    9[BANK3 ] PTR unsigned char 
		 -> OLED_PutChar@data_array(9), OLED_Data@data_array(2), OLED_Command@data_array(2), 
  length          1   11[BANK3 ] unsigned char 
  address         2   12[BANK3 ] unsigned int 
  pflag           2   14[BANK3 ] PTR enum E17311
		 -> OLED_I2C_Status(1), 
 Auto vars:     Size  Location     Type
		None
 Return value:  Size  Location     Type
                  1    wreg      void 
 Registers used:
		wreg, fsr2l, fsr2h, status,2, status,0, cstack
 Tracked objects:
		On entry : 
		On exit  : 
		Unchanged: 
 Data sizes:     COMRAM   BANK0   BANK1   BANK2   BANK3   BANK4   BANK5   BANK6   BANK7   BANK8   BANK9  BANK10  BANK11  BANK12  BANK13
      Params:         0       0       0       0       7       0       0       0       0       0       0       0       0       0       0
      Locals:         0       0       0       0       0       0       0       0       0       0       0       0       0       0       0
      Temps:          0       0       0       0       0       0       0       0       0       0       0       0       0       0       0
      Totals:         0       0       0       0       7       0       0       0       0       0       0       0       0       0       0
Total ram usage:        7 bytes
 Hardware stack levels used:    1
 Hardware stack levels required when called:   21
 This function calls:
		_I2C1_MasterTRBInsert
		_I2C1_MasterWriteTRBBuild
 This function is called by:
		_OLED_Command
		_OLED_PutChar
		_OLED_Data
 This function uses a non-reentrant model


 *************** function _I2C1_MasterWriteTRBBuild *****************
 Defined at:
		line 721 in file "mcc_generated_files/i2c1.c"
 Parameters:    Size  Location     Type
  ptrb            2    0[BANK3 ] PTR struct .
		 -> I2C1_MasterWrite@trBlock(5), 
  pdata           2    2[BANK3 ] PTR unsigned char 
		 -> OLED_PutChar@data_array(9), OLED_Data@data_array(2), OLED_Command@data_array(2), 
  length          1    4[BANK3 ] unsigned char 
  address         2    5[BANK3 ] unsigned int 
 Auto vars:     Size  Location     Type
		None
 Return value:  Size  Location     Type
                  1    wreg      void 
 Registers used:
		wreg, fsr2l, fsr2h, status,2, status,0
 Tracked objects:
		On entry : 
		On exit  : 
		Unchanged: 
 Data sizes:     COMRAM   BANK0   BANK1   BANK2   BANK3   BANK4   BANK5   BANK6   BANK7   BANK8   BANK9  BANK10  BANK11  BANK12  BANK13
      Params:         0       0       0       0       7       0       0       0       0       0       0       0       0       0       0
      Locals:         0       0       0       0       0       0       0       0       0       0       0       0       0       0       0
      Temps:          0       0       0       0       2       0       0       0       0       0       0       0       0       0       0
      Totals:         0       0       0       0       9       0       0       0       0       0       0       0       0       0       0
Total ram usage:        9 bytes
 Hardware stack levels used:    1
 Hardware stack levels required when called:   19
 This function calls:
		Nothing
 This function is called by:
		_I2C1_MasterWrite
 This function uses a non-reentrant model


 *************** function _I2C1_MasterTRBInsert *****************
 Defined at:
		line 654 in file "mcc_generated_files/i2c1.c"
 Parameters:    Size  Location     Type
  count           1    wreg     unsigned char 
  ptrb_list       2    0[BANK3 ] PTR struct .
		 -> I2C1_MasterRead@trBlock(5), I2C1_MasterWrite@trBlock(5), 
  pflag           2    2[BANK3 ] PTR enum E17311
		 -> OLED_I2C_Status(1), 
 Auto vars:     Size  Location     Type
  count           1    5[BANK3 ] unsigned char 
 Return value:  Size  Location     Type
                  1    wreg      void 
 Registers used:
		wreg, fsr2l, fsr2h, status,2, status,0, cstack
 Tracked objects:
		On entry : 
		On exit  : 
		Unchanged: 
 Data sizes:     COMRAM   BANK0   BANK1   BANK2   BANK3   BANK4   BANK5   BANK6   BANK7   BANK8   BANK9  BANK10  BANK11  BANK12  BANK13
      Params:         0       0       0       0       4       0       0       0       0       0       0       0       0       0       0
      Locals:         0       0       0       0       1       0       0       0       0       0       0       0       0       0       0
      Temps:          0       0       0       0       1       0       0       0       0       0       0       0       0       0       0
      Totals:         0       0       0       0       6       0       0       0       0       0       0       0       0       0       0
Total ram usage:        6 bytes
 Hardware stack levels used:    1
 Hardware stack levels required when called:   20
 This function calls:
		_I2C1_WaitForLastPacketToComplete
 This function is called by:
		_I2C1_MasterWrite
		_I2C1_MasterRead
 This function uses a non-reentrant model


 *************** function _I2C1_WaitForLastPacketToComplete *****************
 Defined at:
		line 644 in file "mcc_generated_files/i2c1.c"
 Parameters:    Size  Location     Type
		None
 Auto vars:     Size  Location     Type
		None
 Return value:  Size  Location     Type
                  1    wreg      void 
 Registers used:
		wreg, status,2
 Tracked objects:
		On entry : 
		On exit  : 
		Unchanged: 
 Data sizes:     COMRAM   BANK0   BANK1   BANK2   BANK3   BANK4   BANK5   BANK6   BANK7   BANK8   BANK9  BANK10  BANK11  BANK12  BANK13
      Params:         0       0       0       0       0       0       0       0       0       0       0       0       0       0       0
      Locals:         0       0       0       0       0       0       0       0       0       0       0       0       0       0       0
      Temps:          0       0       0       0       0       0       0       0       0       0       0       0       0       0       0
      Totals:         0       0       0       0       0       0       0       0       0       0       0       0       0       0       0
Total ram usage:        0 bytes
 Hardware stack levels used:    1
 Hardware stack levels required when called:   19
 This function calls:
		Nothing
 This function is called by:
		_I2C1_MasterTRBInsert
 This function uses a non-reentrant model


 *************** function _INTERRUPT_InterruptManagerLow *****************
 Defined at:
		line 143 in file "mcc_generated_files/interrupt_manager.c"
 Parameters:    Size  Location     Type
		None
 Auto vars:     Size  Location     Type
		None
 Return value:  Size  Location     Type
                  1    wreg      void 
 Registers used:
		wreg, fsr0l, fsr0h, fsr2l, fsr2h, status,2, status,0, pclath, tosl, tblptrl, tblptrh, tblptru, prodl, prodh, cstack
 Tracked objects:
		On entry : 
		On exit  : 
		Unchanged: 
 Data sizes:     COMRAM   BANK0   BANK1   BANK2   BANK3   BANK4   BANK5   BANK6   BANK7   BANK8   BANK9  BANK10  BANK11  BANK12  BANK13
      Params:         0       0       0       0       0       0       0       0       0       0       0       0       0       0       0
      Locals:         0       0       0       0       0       0       0       0       0       0       0       0       0       0       0
      Temps:          0       0      21       0       0       0       0       0       0       0       0       0       0       0       0
      Totals:         0       0      21       0       0       0       0       0       0       0       0       0       0       0       0
Total ram usage:       21 bytes
 Hardware stack levels used:    1
 Hardware stack levels required when called:   18
 This function calls:
		_TMR2_ISR
		_TMR6_ISR
		_TMR7_ISR
 This function is called by:
		Interrupt level 1
 This function uses a non-reentrant model


 *************** function _TMR7_ISR *****************
 Defined at:
		line 164 in file "mcc_generated_files/tmr7.c"
 Parameters:    Size  Location     Type
		None
 Auto vars:     Size  Location     Type
		None
 Return value:  Size  Location     Type
                  1    wreg      void 
 Registers used:
		wreg, status,2, status,0, pclath, tosl, cstack
 Tracked objects:
		On entry : 
		On exit  : 
		Unchanged: 
 Data sizes:     COMRAM   BANK0   BANK1   BANK2   BANK3   BANK4   BANK5   BANK6   BANK7   BANK8   BANK9  BANK10  BANK11  BANK12  BANK13
      Params:         0       0       0       0       0       0       0       0       0       0       0       0       0       0       0
      Locals:         0       0       0       0       0       0       0       0       0       0       0       0       0       0       0
      Temps:          0       0       0       0       0       0       0       0       0       0       0       0       0       0       0
      Totals:         0       0       0       0       0       0       0       0       0       0       0       0       0       0       0
Total ram usage:        0 bytes
 Hardware stack levels used:    1
 Hardware stack levels required when called:   11
 This function calls:
		Absolute function
		_TMR7_DefaultInterruptHandler
		_TMR7_WriteTimer
		_acquisitionTimerCallback
 This function is called by:
		_INTERRUPT_InterruptManagerLow
 This function uses a non-reentrant model


 *************** function _TMR7_DefaultInterruptHandler *****************
 Defined at:
		line 182 in file "mcc_generated_files/tmr7.c"
 Parameters:    Size  Location     Type
		None
 Auto vars:     Size  Location     Type
		None
 Return value:  Size  Location     Type
                  1    wreg      void 
 Registers used:
		None
 Tracked objects:
		On entry : 
		On exit  : 
		Unchanged: 
 Data sizes:     COMRAM   BANK0   BANK1   BANK2   BANK3   BANK4   BANK5   BANK6   BANK7   BANK8   BANK9  BANK10  BANK11  BANK12  BANK13
      Params:         0       0       0       0       0       0       0       0       0       0       0       0       0       0       0
      Locals:         0       0       0       0       0       0       0       0       0       0       0       0       0       0       0
      Temps:          0       0       0       0       0       0       0       0       0       0       0       0       0       0       0
      Totals:         0       0       0       0       0       0       0       0       0       0       0       0       0       0       0
Total ram usage:        0 bytes
 Hardware stack levels used:    1
 Hardware stack levels required when called:    9
 This function calls:
		Nothing
 This function is called by:
		_TMR7_Initialize
		_TMR7_ISR
 This function uses a non-reentrant model


 *************** function _acquisitionTimerCallback *****************
 Defined at:
		line 416 in file "main.c"
 Parameters:    Size  Location     Type
		None
 Auto vars:     Size  Location     Type
		None
 Return value:  Size  Location     Type
                  1    wreg      void 
 Registers used:
		wreg, status,2, cstack
 Tracked objects:
		On entry : 
		On exit  : 
		Unchanged: 
 Data sizes:     COMRAM   BANK0   BANK1   BANK2   BANK3   BANK4   BANK5   BANK6   BANK7   BANK8   BANK9  BANK10  BANK11  BANK12  BANK13
      Params:         0       0       0       0       0       0       0       0       0       0       0       0       0       0       0
      Locals:         0       0       0       0       0       0       0       0       0       0       0       0       0       0       0
      Temps:          0       0       0       0       0       0       0       0       0       0       0       0       0       0       0
      Totals:         0       0       0       0       0       0       0       0       0       0       0       0       0       0       0
Total ram usage:        0 bytes
 Hardware stack levels used:    1
 Hardware stack levels required when called:   10
 This function calls:
		_ADCC_ClearAccumulator
		_ADCC_DischargeSampleCapacitor
		_ADCC_StartConversion
 This function is called by:
		_main
		_TMR7_ISR
 This function uses a non-reentrant model


 *************** function _ADCC_StartConversion *****************
 Defined at:
		line 115 in file "mcc_generated_files/adcc.c"
 Parameters:    Size  Location     Type
  channel         1    wreg     enum E17863
 Auto vars:     Size  Location     Type
  channel         1    0[BANK1 ] enum E17863
 Return value:  Size  Location     Type
                  1    wreg      void 
 Registers used:
		wreg
 Tracked objects:
		On entry : 
		On exit  : 
		Unchanged: 
 Data sizes:     COMRAM   BANK0   BANK1   BANK2   BANK3   BANK4   BANK5   BANK6   BANK7   BANK8   BANK9  BANK10  BANK11  BANK12  BANK13
      Params:         0       0       0       0       0       0       0       0       0       0       0       0       0       0       0
      Locals:         0       0       1       0       0       0       0       0       0       0       0       0       0       0       0
      Temps:          0       0       0       0       0       0       0       0       0       0       0       0       0       0       0
      Totals:         0       0       1       0       0       0       0       0       0       0       0       0       0       0       0
Total ram usage:        1 bytes
 Hardware stack levels used:    1
 Hardware stack levels required when called:    9
 This function calls:
		Nothing
 This function is called by:
		_acquisitionTimerCallback
 This function uses a non-reentrant model


 *************** function _ADCC_DischargeSampleCapacitor *****************
 Defined at:
		line 177 in file "mcc_generated_files/adcc.c"
 Parameters:    Size  Location     Type
		None
 Auto vars:     Size  Location     Type
		None
 Return value:  Size  Location     Type
                  1    wreg      void 
 Registers used:
		wreg, status,2
 Tracked objects:
		On entry : 
		On exit  : 
		Unchanged: 
 Data sizes:     COMRAM   BANK0   BANK1   BANK2   BANK3   BANK4   BANK5   BANK6   BANK7   BANK8   BANK9  BANK10  BANK11  BANK12  BANK13
      Params:         0       0       0       0       0       0       0       0       0       0       0       0       0       0       0
      Locals:         0       0       0       0       0       0       0       0       0       0       0       0       0       0       0
      Temps:          0       0       0       0       0       0       0       0       0       0       0       0       0       0       0
      Totals:         0       0       0       0       0       0       0       0       0       0       0       0       0       0       0
Total ram usage:        0 bytes
 Hardware stack levels used:    1
 Hardware stack levels required when called:    9
 This function calls:
		Nothing
 This function is called by:
		_acquisitionTimerCallback
 This function uses a non-reentrant model


 *************** function _ADCC_ClearAccumulator *****************
 Defined at:
		line 207 in file "mcc_generated_files/adcc.c"
 Parameters:    Size  Location     Type
		None
 Auto vars:     Size  Location     Type
		None
 Return value:  Size  Location     Type
                  1    wreg      void 
 Registers used:
		None
 Tracked objects:
		On entry : 
		On exit  : 
		Unchanged: 
 Data sizes:     COMRAM   BANK0   BANK1   BANK2   BANK3   BANK4   BANK5   BANK6   BANK7   BANK8   BANK9  BANK10  BANK11  BANK12  BANK13
      Params:         0       0       0       0       0       0       0       0       0       0       0       0       0       0       0
      Locals:         0       0       0       0       0       0       0       0       0       0       0       0       0       0       0
      Temps:          0       0       0       0       0       0       0       0       0       0       0       0       0       0       0
      Totals:         0       0       0       0       0       0       0       0       0       0       0       0       0       0       0
Total ram usage:        0 bytes
 Hardware stack levels used:    1
 Hardware stack levels required when called:    9
 This function calls:
		Nothing
 This function is called by:
		_acquisitionTimerCallback
 This function uses a non-reentrant model


 *************** function _TMR7_WriteTimer *****************
 Defined at:
		line 127 in file "mcc_generated_files/tmr7.c"
 Parameters:    Size  Location     Type
  timerVal        2    0[BANK1 ] unsigned int 
 Auto vars:     Size  Location     Type
		None
 Return value:  Size  Location     Type
                  1    wreg      void 
 Registers used:
		wreg, status,2
 Tracked objects:
		On entry : 
		On exit  : 
		Unchanged: 
 Data sizes:     COMRAM   BANK0   BANK1   BANK2   BANK3   BANK4   BANK5   BANK6   BANK7   BANK8   BANK9  BANK10  BANK11  BANK12  BANK13
      Params:         0       0       2       0       0       0       0       0       0       0       0       0       0       0       0
      Locals:         0       0       0       0       0       0       0       0       0       0       0       0       0       0       0
      Temps:          0       0       0       0       0       0       0       0       0       0       0       0       0       0       0
      Totals:         0       0       2       0       0       0       0       0       0       0       0       0       0       0       0
Total ram usage:        2 bytes
 Hardware stack levels used:    1
 Hardware stack levels required when called:    9
 This function calls:
		Nothing
 This function is called by:
		_TMR7_ISR
		_TMR7_Reload
 This function uses a non-reentrant model


 *************** function _TMR6_ISR *****************
 Defined at:
		line 165 in file "mcc_generated_files/tmr6.c"
 Parameters:    Size  Location     Type
		None
 Auto vars:     Size  Location     Type
		None
 Return value:  Size  Location     Type
                  1    wreg      void 
 Registers used:
		wreg, status,2, status,0, pclath, tosl, cstack
 Tracked objects:
		On entry : 
		On exit  : 
		Unchanged: 
 Data sizes:     COMRAM   BANK0   BANK1   BANK2   BANK3   BANK4   BANK5   BANK6   BANK7   BANK8   BANK9  BANK10  BANK11  BANK12  BANK13
      Params:         0       0       0       0       0       0       0       0       0       0       0       0       0       0       0
      Locals:         0       0       0       0       0       0       0       0       0       0       0       0       0       0       0
      Temps:          0       0       0       0       0       0       0       0       0       0       0       0       0       0       0
      Totals:         0       0       0       0       0       0       0       0       0       0       0       0       0       0       0
Total ram usage:        0 bytes
 Hardware stack levels used:    1
 Hardware stack levels required when called:   10
 This function calls:
		Absolute function
		_TMR6_DefaultInterruptHandler
		_heartbeatTimerCallback
 This function is called by:
		_INTERRUPT_InterruptManagerLow
 This function uses a non-reentrant model


 *************** function _TMR6_DefaultInterruptHandler *****************
 Defined at:
		line 182 in file "mcc_generated_files/tmr6.c"
 Parameters:    Size  Location     Type
		None
 Auto vars:     Size  Location     Type
		None
 Return value:  Size  Location     Type
                  1    wreg      void 
 Registers used:
		None
 Tracked objects:
		On entry : 
		On exit  : 
		Unchanged: 
 Data sizes:     COMRAM   BANK0   BANK1   BANK2   BANK3   BANK4   BANK5   BANK6   BANK7   BANK8   BANK9  BANK10  BANK11  BANK12  BANK13
      Params:         0       0       0       0       0       0       0       0       0       0       0       0       0       0       0
      Locals:         0       0       0       0       0       0       0       0       0       0       0       0       0       0       0
      Temps:          0       0       0       0       0       0       0       0       0       0       0       0       0       0       0
      Totals:         0       0       0       0       0       0       0       0       0       0       0       0       0       0       0
Total ram usage:        0 bytes
 Hardware stack levels used:    1
 Hardware stack levels required when called:    9
 This function calls:
		Nothing
 This function is called by:
		_TMR6_Initialize
		_TMR6_ISR
 This function uses a non-reentrant model


 *************** function _heartbeatTimerCallback *****************
 Defined at:
		line 221 in file "main.c"
 Parameters:    Size  Location     Type
		None
 Auto vars:     Size  Location     Type
		None
 Return value:  Size  Location     Type
                  1    wreg      void 
 Registers used:
		wreg, status,2, status,0
 Tracked objects:
		On entry : 
		On exit  : 
		Unchanged: 
 Data sizes:     COMRAM   BANK0   BANK1   BANK2   BANK3   BANK4   BANK5   BANK6   BANK7   BANK8   BANK9  BANK10  BANK11  BANK12  BANK13
      Params:         0       0       0       0       0       0       0       0       0       0       0       0       0       0       0
      Locals:         0       0       0       0       0       0       0       0       0       0       0       0       0       0       0
      Temps:          0       0       1       0       0       0       0       0       0       0       0       0       0       0       0
      Totals:         0       0       1       0       0       0       0       0       0       0       0       0       0       0       0
Total ram usage:        1 bytes
 Hardware stack levels used:    1
 Hardware stack levels required when called:    9
 This function calls:
		Nothing
 This function is called by:
		_main
		_TMR6_ISR
 This function uses a non-reentrant model


 *************** function _TMR2_ISR *****************
 Defined at:
		line 165 in file "mcc_generated_files/tmr2.c"
 Parameters:    Size  Location     Type
		None
 Auto vars:     Size  Location     Type
		None
 Return value:  Size  Location     Type
                  1    wreg      void 
 Registers used:
		wreg, fsr0l, fsr0h, fsr2l, fsr2h, status,2, status,0, pclath, tosl, tblptrl, tblptrh, tblptru, prodl, prodh, cstack
 Tracked objects:
		On entry : 
		On exit  : 
		Unchanged: 
 Data sizes:     COMRAM   BANK0   BANK1   BANK2   BANK3   BANK4   BANK5   BANK6   BANK7   BANK8   BANK9  BANK10  BANK11  BANK12  BANK13
      Params:         0       0       0       0       0       0       0       0       0       0       0       0       0       0       0
      Locals:         0       0       0       0       0       0       0       0       0       0       0       0       0       0       0
      Temps:          0       0       0       0       0       0       0       0       0       0       0       0       0       0       0
      Totals:         0       0       0       0       0       0       0       0       0       0       0       0       0       0       0
Total ram usage:        0 bytes
 Hardware stack levels used:    1
 Hardware stack levels required when called:   17
 This function calls:
		_TMR2_CallBack
 This function is called by:
		_INTERRUPT_InterruptManagerLow
 This function uses a non-reentrant model


 *************** function _TMR2_CallBack *****************
 Defined at:
		line 182 in file "mcc_generated_files/tmr2.c"
 Parameters:    Size  Location     Type
		None
 Auto vars:     Size  Location     Type
		None
 Return value:  Size  Location     Type
                  1    wreg      void 
 Registers used:
		wreg, fsr0l, fsr0h, fsr2l, fsr2h, status,2, status,0, pclath, tosl, tblptrl, tblptrh, tblptru, prodl, prodh, cstack
 Tracked objects:
		On entry : 
		On exit  : 
		Unchanged: 
 Data sizes:     COMRAM   BANK0   BANK1   BANK2   BANK3   BANK4   BANK5   BANK6   BANK7   BANK8   BANK9  BANK10  BANK11  BANK12  BANK13
      Params:         0       0       0       0       0       0       0       0       0       0       0       0       0       0       0
      Locals:         0       0       0       0       0       0       0       0       0       0       0       0       0       0       0
      Temps:          0       0       0       0       0       0       0       0       0       0       0       0       0       0       0
      Totals:         0       0       0       0       0       0       0       0       0       0       0       0       0       0       0
Total ram usage:        0 bytes
 Hardware stack levels used:    1
 Hardware stack levels required when called:   16
 This function calls:
		Absolute function
		_TMR2_DefaultInterruptHandler
		i1_OLED_updateCallback
 This function is called by:
		_TMR2_ISR
 This function uses a non-reentrant model


 *************** function _TMR2_DefaultInterruptHandler *****************
 Defined at:
		line 196 in file "mcc_generated_files/tmr2.c"
 Parameters:    Size  Location     Type
		None
 Auto vars:     Size  Location     Type
		None
 Return value:  Size  Location     Type
                  1    wreg      void 
 Registers used:
		None
 Tracked objects:
		On entry : 
		On exit  : 
		Unchanged: 
 Data sizes:     COMRAM   BANK0   BANK1   BANK2   BANK3   BANK4   BANK5   BANK6   BANK7   BANK8   BANK9  BANK10  BANK11  BANK12  BANK13
      Params:         0       0       0       0       0       0       0       0       0       0       0       0       0       0       0
      Locals:         0       0       0       0       0       0       0       0       0       0       0       0       0       0       0
      Temps:          0       0       0       0       0       0       0       0       0       0       0       0       0       0       0
      Totals:         0       0       0       0       0       0       0       0       0       0       0       0       0       0       0
Total ram usage:        0 bytes
 Hardware stack levels used:    1
 Hardware stack levels required when called:    9
 This function calls:
		Nothing
 This function is called by:
		_TMR2_Initialize
		_TMR2_CallBack
 This function uses a non-reentrant model


 *************** function i1_OLED_updateCallback *****************
 Defined at:
		line 487 in file "main.c"
 Parameters:    Size  Location     Type
		None
 Auto vars:     Size  Location     Type
  OLED_updateC   17   51[BANK2 ] unsigned char [17]
  OLED_updateC   17   34[BANK2 ] unsigned char [17]
  OLED_updateC   17   17[BANK2 ] unsigned char [17]
  OLED_updateC   17    0[BANK2 ] unsigned char [17]
  OLED_updateC    4   78[BANK2 ] unsigned char [17]
  OLED_updateC    3   86[BANK2 ] float 
  OLED_updateC    3   75[BANK2 ] float 
  OLED_updateC    3   72[BANK2 ] float 
 Return value:  Size  Location     Type
                  1    wreg      void 
 Registers used:
		wreg, fsr0l, fsr0h, fsr2l, fsr2h, status,2, status,0, pclath, tosl, tblptrl, tblptrh, tblptru, prodl, prodh, cstack
 Tracked objects:
		On entry : 
		On exit  : 
		Unchanged: 
 Data sizes:     COMRAM   BANK0   BANK1   BANK2   BANK3   BANK4   BANK5   BANK6   BANK7   BANK8   BANK9  BANK10  BANK11  BANK12  BANK13
      Params:         0       0       0       0       0       0       0       0       0       0       0       0       0       0       0
      Locals:         0       0       0      89       0       0       0       0       0       0       0       0       0       0       0
      Temps:          0       0       7       0       0       0       0       0       0       0       0       0       0       0       0
      Totals:         0       0       7      89       0       0       0       0       0       0       0       0       0       0       0
Total ram usage:       96 bytes
 Hardware stack levels used:    1
 Hardware stack levels required when called:   15
 This function calls:
		i1_OLED_UpdateFromRAMBuffer
		i1_TMR2_Period8BitSet
		i1_TMR2_StartTimer
		i1_TMR2_StopTimer
		i1_TMR2_WriteTimer
		i1___fladd
		i1___fldiv
		i1___flge
		i1___flmul
		i1___flneg
		i1___ftdiv
		i1___lwtoft
		i1_acos
		i1_getCauseOfResetStringSmall
		i1_getDeviceID
		i1_getMajorRevisionID
		i1_getMinorRevisionID
		i1_printf
		i1_round
		i1_sprintf
		i1_strcpy
		i1_terminal_clearTerminal
		i1_terminal_printNewline
		i1_terminal_setCursorHome
		i1_terminal_textAttributes
		i1_terminal_textAttributesReset
 This function is called by:
 This function uses a non-reentrant model


 *************** function i1_terminal_textAttributesReset *****************
 Defined at:
		line 196 in file "ring_buffer_interface.c"
 Parameters:    Size  Location     Type
		None
 Auto vars:     Size  Location     Type
		None
 Return value:  Size  Location     Type
                  1    wreg      void 
 Registers used:
		wreg, fsr0l, fsr0h, fsr2l, fsr2h, status,2, status,0, pclath, tosl, tblptrl, tblptrh, tblptru, prodl, prodh, cstack
 Tracked objects:
		On entry : 
		On exit  : 
		Unchanged: 
 Data sizes:     COMRAM   BANK0   BANK1   BANK2   BANK3   BANK4   BANK5   BANK6   BANK7   BANK8   BANK9  BANK10  BANK11  BANK12  BANK13
      Params:         0       0       0       0       0       0       0       0       0       0       0       0       0       0       0
      Locals:         0       0       0       0       0       0       0       0       0       0       0       0       0       0       0
      Temps:          0       0       0       0       0       0       0       0       0       0       0       0       0       0       0
      Totals:         0       0       0       0       0       0       0       0       0       0       0       0       0       0       0
Total ram usage:        0 bytes
 Hardware stack levels used:    1
 Hardware stack levels required when called:   14
 This function calls:
		i1_terminal_textAttributes
 This function is called by:
		i1_OLED_updateCallback
 This function uses a non-reentrant model


 *************** function i1_terminal_textAttributes *****************
 Defined at:
		line 88 in file "ring_buffer_interface.c"
 Parameters:    Size  Location     Type
  foreground_c    1    wreg     enum E18152
  background_c    1  194[BANK1 ] enum E18152
  input_attrib    1  195[BANK1 ] enum E18144
 Auto vars:     Size  Location     Type
  foreground_c    1  196[BANK1 ] enum E18152
  terminal_tex   15  197[BANK1 ] unsigned char [15]
 Return value:  Size  Location     Type
                  1    wreg      void 
 Registers used:
		wreg, fsr0l, fsr0h, fsr2l, fsr2h, status,2, status,0, pclath, tosl, tblptrl, tblptrh, tblptru, prodl, prodh, cstack
 Tracked objects:
		On entry : 
		On exit  : 
		Unchanged: 
 Data sizes:     COMRAM   BANK0   BANK1   BANK2   BANK3   BANK4   BANK5   BANK6   BANK7   BANK8   BANK9  BANK10  BANK11  BANK12  BANK13
      Params:         0       0       2       0       0       0       0       0       0       0       0       0       0       0       0
      Locals:         0       0      16       0       0       0       0       0       0       0       0       0       0       0       0
      Temps:          0       0       0       0       0       0       0       0       0       0       0       0       0       0       0
      Totals:         0       0      18       0       0       0       0       0       0       0       0       0       0       0       0
Total ram usage:       18 bytes
 Hardware stack levels used:    1
 Hardware stack levels required when called:   13
 This function calls:
		i1_printf
		i1_strcat
		i1_strncpy
 This function is called by:
		i1_OLED_updateCallback
		i1_terminal_textAttributesReset
 This function uses a non-reentrant model


 *************** function i1_strncpy *****************
 Defined at:
		line 8 in file "C:\Program Files (x86)\Microchip\xc8\v1.45\sources\common\strncpy.c"
 Parameters:    Size  Location     Type
  to              2    0[BANK1 ] PTR unsigned char 
		 -> terminal_textAttributes@output_buff(15), 
  from            2    2[BANK1 ] PTR const unsigned char 
		 -> STR_63(3), 
  size            2    4[BANK1 ] unsigned int 
 Auto vars:     Size  Location     Type
  strncpy         2    6[BANK1 ] PTR unsigned char 
		 -> terminal_textAttributes@output_buff(15), 
 Return value:  Size  Location     Type
                  2    0[BANK1 ] PTR unsigned char 
 Registers used:
		wreg, fsr2l, fsr2h, status,2, status,0, tblptrl, tblptrh, tblptru
 Tracked objects:
		On entry : 
		On exit  : 
		Unchanged: 
 Data sizes:     COMRAM   BANK0   BANK1   BANK2   BANK3   BANK4   BANK5   BANK6   BANK7   BANK8   BANK9  BANK10  BANK11  BANK12  BANK13
      Params:         0       0       6       0       0       0       0       0       0       0       0       0       0       0       0
      Locals:         0       0       2       0       0       0       0       0       0       0       0       0       0       0       0
      Temps:          0       0       0       0       0       0       0       0       0       0       0       0       0       0       0
      Totals:         0       0       8       0       0       0       0       0       0       0       0       0       0       0       0
Total ram usage:        8 bytes
 Hardware stack levels used:    1
 Hardware stack levels required when called:    9
 This function calls:
		Nothing
 This function is called by:
		i1_terminal_textAttributes
 This function uses a non-reentrant model


 *************** function i1_strcat *****************
 Defined at:
		line 8 in file "C:\Program Files (x86)\Microchip\xc8\v1.45\sources\common\strcat.c"
 Parameters:    Size  Location     Type
  to              2    0[BANK1 ] PTR unsigned char 
		 -> terminal_textAttributes@output_buff(15), 
  from            2    2[BANK1 ] PTR const unsigned char 
		 -> STR_91(2), STR_90(3), STR_89(3), STR_88(3), 
		 -> STR_87(3), STR_86(3), STR_85(3), STR_84(3), 
		 -> STR_83(3), STR_82(3), STR_81(2), STR_80(3), 
		 -> STR_79(3), STR_78(3), STR_77(3), STR_76(3), 
		 -> STR_75(3), STR_74(3), STR_73(3), STR_72(3), 
		 -> STR_71(2), STR_70(2), STR_69(2), STR_68(2), 
		 -> STR_67(2), STR_66(2), STR_65(2), STR_64(2), 
 Auto vars:     Size  Location     Type
  strcat          2    4[BANK1 ] PTR unsigned char 
		 -> terminal_textAttributes@output_buff(15), 
 Return value:  Size  Location     Type
                  2    0[BANK1 ] PTR unsigned char 
 Registers used:
		wreg, fsr2l, fsr2h, status,2, status,0, tblptrl, tblptrh, tblptru
 Tracked objects:
		On entry : 
		On exit  : 
		Unchanged: 
 Data sizes:     COMRAM   BANK0   BANK1   BANK2   BANK3   BANK4   BANK5   BANK6   BANK7   BANK8   BANK9  BANK10  BANK11  BANK12  BANK13
      Params:         0       0       4       0       0       0       0       0       0       0       0       0       0       0       0
      Locals:         0       0       2       0       0       0       0       0       0       0       0       0       0       0       0
      Temps:          0       0       0       0       0       0       0       0       0       0       0       0       0       0       0
      Totals:         0       0       6       0       0       0       0       0       0       0       0       0       0       0       0
Total ram usage:        6 bytes
 Hardware stack levels used:    1
 Hardware stack levels required when called:    9
 This function calls:
		Nothing
 This function is called by:
		i1_terminal_textAttributes
 This function uses a non-reentrant model


 *************** function i1_terminal_setCursorHome *****************
 Defined at:
		line 58 in file "ring_buffer_interface.c"
 Parameters:    Size  Location     Type
		None
 Auto vars:     Size  Location     Type
		None
 Return value:  Size  Location     Type
                  1    wreg      void 
 Registers used:
		wreg, fsr0l, fsr0h, fsr2l, fsr2h, status,2, status,0, pclath, tosl, tblptrl, tblptrh, tblptru, prodl, prodh, cstack
 Tracked objects:
		On entry : 
		On exit  : 
		Unchanged: 
 Data sizes:     COMRAM   BANK0   BANK1   BANK2   BANK3   BANK4   BANK5   BANK6   BANK7   BANK8   BANK9  BANK10  BANK11  BANK12  BANK13
      Params:         0       0       0       0       0       0       0       0       0       0       0       0       0       0       0
      Locals:         0       0       0       0       0       0       0       0       0       0       0       0       0       0       0
      Temps:          0       0       0       0       0       0       0       0       0       0       0       0       0       0       0
      Totals:         0       0       0       0       0       0       0       0       0       0       0       0       0       0       0
Total ram usage:        0 bytes
 Hardware stack levels used:    1
 Hardware stack levels required when called:   13
 This function calls:
		i1_printf
 This function is called by:
		i1_OLED_updateCallback
 This function uses a non-reentrant model


 *************** function i1_terminal_printNewline *****************
 Defined at:
		line 203 in file "ring_buffer_interface.c"
 Parameters:    Size  Location     Type
		None
 Auto vars:     Size  Location     Type
		None
 Return value:  Size  Location     Type
                  1    wreg      void 
 Registers used:
		wreg, fsr0l, fsr0h, fsr2l, fsr2h, status,2, status,0, pclath, tosl, tblptrl, tblptrh, tblptru, prodl, prodh, cstack
 Tracked objects:
		On entry : 
		On exit  : 
		Unchanged: 
 Data sizes:     COMRAM   BANK0   BANK1   BANK2   BANK3   BANK4   BANK5   BANK6   BANK7   BANK8   BANK9  BANK10  BANK11  BANK12  BANK13
      Params:         0       0       0       0       0       0       0       0       0       0       0       0       0       0       0
      Locals:         0       0       0       0       0       0       0       0       0       0       0       0       0       0       0
      Temps:          0       0       0       0       0       0       0       0       0       0       0       0       0       0       0
      Totals:         0       0       0       0       0       0       0       0       0       0       0       0       0       0       0
Total ram usage:        0 bytes
 Hardware stack levels used:    1
 Hardware stack levels required when called:   13
 This function calls:
		i1_printf
 This function is called by:
		i1_OLED_updateCallback
 This function uses a non-reentrant model


 *************** function i1_terminal_clearTerminal *****************
 Defined at:
		line 53 in file "ring_buffer_interface.c"
 Parameters:    Size  Location     Type
		None
 Auto vars:     Size  Location     Type
		None
 Return value:  Size  Location     Type
                  1    wreg      void 
 Registers used:
		wreg, fsr0l, fsr0h, fsr2l, fsr2h, status,2, status,0, pclath, tosl, tblptrl, tblptrh, tblptru, prodl, prodh, cstack
 Tracked objects:
		On entry : 
		On exit  : 
		Unchanged: 
 Data sizes:     COMRAM   BANK0   BANK1   BANK2   BANK3   BANK4   BANK5   BANK6   BANK7   BANK8   BANK9  BANK10  BANK11  BANK12  BANK13
      Params:         0       0       0       0       0       0       0       0       0       0       0       0       0       0       0
      Locals:         0       0       0       0       0       0       0       0       0       0       0       0       0       0       0
      Temps:          0       0       0       0       0       0       0       0       0       0       0       0       0       0       0
      Totals:         0       0       0       0       0       0       0       0       0       0       0       0       0       0       0
Total ram usage:        0 bytes
 Hardware stack levels used:    1
 Hardware stack levels required when called:   13
 This function calls:
		i1_printf
 This function is called by:
		i1_OLED_updateCallback
 This function uses a non-reentrant model


 *************** function i1_printf *****************
 Defined at:
		line 13 in file "C:\Program Files (x86)\Microchip\xc8\v1.45\sources\common\printf.c"
 Parameters:    Size  Location     Type
  f               2  177[BANK1 ] PTR const unsigned char 
		 -> STR_316(14), STR_315(99), STR_314(30), STR_313(58), 
		 -> STR_312(36), STR_311(36), STR_310(37), STR_309(28), 
		 -> STR_308(38), STR_307(60), STR_306(32), STR_305(23), 
		 -> STR_304(65), STR_303(27), STR_302(48), STR_301(15), 
		 -> STR_300(13), STR_299(12), STR_298(11), STR_297(10), 
		 -> STR_296(11), STR_295(24), STR_294(46), STR_293(25), 
		 -> STR_292(56), STR_291(64), STR_290(59), STR_289(85), 
		 -> STR_288(30), STR_287(55), STR_286(46), STR_285(39), 
		 -> STR_284(62), STR_283(21), STR_282(31), STR_281(49), 
		 -> STR_280(36), STR_279(99), STR_278(88), STR_277(37), 
		 -> STR_276(13), STR_275(29), STR_274(26), STR_273(26), 
		 -> STR_272(426), STR_270(30), STR_269(46), STR_268(39), 
		 -> STR_267(62), STR_266(55), STR_265(470), STR_263(3357), 
		 -> STR_261(492), STR_259(915), STR_257(720), STR_255(1080), 
		 -> STR_253(32), STR_252(36), STR_250(46), STR_249(51), 
		 -> STR_248(73), STR_247(73), STR_246(73), STR_245(56), 
		 -> STR_244(34), STR_243(34), STR_242(53), STR_241(42), 
		 -> STR_240(53), STR_239(39), STR_238(31), STR_236(54), 
		 -> STR_235(45), STR_234(51), STR_233(52), STR_232(30), 
		 -> STR_231(58), STR_230(36), STR_229(36), STR_228(37), 
		 -> STR_227(38), STR_226(60), STR_225(32), STR_224(23), 
		 -> STR_223(65), STR_222(27), STR_221(48), STR_220(15), 
		 -> STR_219(13), STR_218(12), STR_217(11), STR_216(10), 
		 -> STR_215(11), STR_214(24), STR_213(46), STR_212(25), 
		 -> STR_211(58), STR_210(56), STR_209(64), STR_208(59), 
		 -> STR_207(85), STR_206(26), STR_204(54), STR_202(54), 
		 -> STR_200(45), STR_198(51), STR_196(52), STR_194(46), 
		 -> STR_192(51), STR_190(53), STR_188(58), STR_186(71), 
		 -> STR_185(63), STR_184(37), STR_183(46), STR_182(102), 
		 -> STR_181(86), STR_179(25), STR_177(42), STR_176(53), 
		 -> STR_175(31), STR_173(29), STR_172(28), STR_170(42), 
		 -> STR_168(41), STR_166(44), STR_165(19), STR_164(34), 
		 -> STR_162(53), STR_161(50), STR_160(105), STR_159(105), 
		 -> STR_157(59), STR_155(73), STR_154(73), STR_153(73), 
		 -> STR_151(56), STR_149(34), STR_147(34), STR_145(32), 
		 -> STR_143(30), STR_141(58), STR_139(36), STR_137(36), 
		 -> STR_135(37), STR_133(34), STR_131(38), STR_130(60), 
		 -> STR_129(32), STR_128(23), STR_127(65), STR_125(23), 
		 -> STR_123(27), STR_122(48), STR_121(15), STR_120(13), 
		 -> STR_119(12), STR_118(11), STR_117(10), STR_116(11), 
		 -> STR_115(24), STR_114(46), STR_113(25), STR_111(56), 
		 -> STR_110(64), STR_108(59), STR_106(85), STR_104(47), 
		 -> STR_103(17), STR_100(52), STR_98(4), STR_97(5), 
		 -> STR_95(4), STR_94(5), STR_92(3), terminal_textAttributes@output_buff(15), 
		 -> STR_62(4), STR_61(4), STR_60(4), STR_59(4), 
		 -> STR_58(5), STR_57(26), STR_56(46), STR_55(51), 
		 -> STR_54(32), STR_53(63), STR_52(39), STR_51(31), 
		 -> STR_50(73), STR_49(73), STR_48(73), STR_47(56), 
		 -> STR_46(34), STR_45(34), STR_44(53), STR_43(28), 
		 -> STR_1(4), 
 Auto vars:     Size  Location     Type
  printf          5  189[BANK1 ] struct __prbuf
  printf          2  187[BANK1 ] PTR void [1]
		 -> ?i2_printf(2), ?i1_printf(2), ?_sprintf(2), ?_printf(2), 
 Return value:  Size  Location     Type
                  2  177[BANK1 ] int 
 Registers used:
		wreg, fsr0l, fsr0h, fsr2l, fsr2h, status,2, status,0, pclath, tosl, tblptrl, tblptrh, tblptru, prodl, prodh, cstack
 Tracked objects:
		On entry : 
		On exit  : 
		Unchanged: 
 Data sizes:     COMRAM   BANK0   BANK1   BANK2   BANK3   BANK4   BANK5   BANK6   BANK7   BANK8   BANK9  BANK10  BANK11  BANK12  BANK13
      Params:         0       0      10       0       0       0       0       0       0       0       0       0       0       0       0
      Locals:         0       0       7       0       0       0       0       0       0       0       0       0       0       0       0
      Temps:          0       0       0       0       0       0       0       0       0       0       0       0       0       0       0
      Totals:         0       0      17       0       0       0       0       0       0       0       0       0       0       0       0
Total ram usage:       17 bytes
 Hardware stack levels used:    1
 Hardware stack levels required when called:   12
 This function calls:
		i1__doprnt
 This function is called by:
		i1_OLED_updateCallback
		i1_terminal_clearTerminal
		i1_terminal_setCursorHome
		i1_terminal_textAttributes
		i1_terminal_printNewline
 This function uses a non-reentrant model


 *************** function i1_strcpy *****************
 Defined at:
		line 8 in file "C:\Program Files (x86)\Microchip\xc8\v1.45\sources\common\strcpy.c"
 Parameters:    Size  Location     Type
  to              2    3[BANK1 ] PTR unsigned char 
		 -> OLED_RAM_Buffer(68), 
  from            2    5[BANK1 ] PTR const unsigned char 
		 -> STR_339(10), STR_338(11), STR_337(11), STR_336(15), 
		 -> STR_335(11), STR_334(10), STR_333(11), STR_332(10), 
		 -> STR_331(10), STR_330(10), print_Energy_str(17), print_Power_str(17), 
		 -> print_Vrms_str(17), print_Irms_str(17), OLED_updateCallback@angle_string(17), STR_35(13), 
		 -> OLED_updateCallback@percentage_string(17), STR_33(17), STR_32(2), STR_31(2), 
		 -> STR_30(2), STR_29(17), STR_28(2), STR_27(2), 
		 -> STR_26(2), STR_25(16), STR_24(2), STR_23(2), 
		 -> STR_22(2), STR_21(14), STR_20(2), STR_19(2), 
		 -> STR_18(2), STR_17(13), STR_16(16), STR_15(14), 
		 -> STR_14(14), STR_13(14), STR_12(15), STR_11(16), 
		 -> STR_10(10), STR_9(16), OLED_updateCallback@rev_id_str(17), STR_7(13), 
		 -> OLED_updateCallback@dev_id_str(17), STR_5(11), STR_4(14), STR_3(10), 
		 -> STR_2(15), 
 Auto vars:     Size  Location     Type
  strcpy          2    7[BANK1 ] PTR unsigned char 
		 -> OLED_RAM_Buffer(68), 
 Return value:  Size  Location     Type
                  2    3[BANK1 ] PTR unsigned char 
 Registers used:
		wreg, fsr0l, fsr0h, fsr2l, fsr2h, status,2, status,0, tblptrl, tblptrh, tblptru
 Tracked objects:
		On entry : 
		On exit  : 
		Unchanged: 
 Data sizes:     COMRAM   BANK0   BANK1   BANK2   BANK3   BANK4   BANK5   BANK6   BANK7   BANK8   BANK9  BANK10  BANK11  BANK12  BANK13
      Params:         0       0       4       0       0       0       0       0       0       0       0       0       0       0       0
      Locals:         0       0       2       0       0       0       0       0       0       0       0       0       0       0       0
      Temps:          0       0       0       0       0       0       0       0       0       0       0       0       0       0       0
      Totals:         0       0       6       0       0       0       0       0       0       0       0       0       0       0       0
Total ram usage:        6 bytes
 Hardware stack levels used:    1
 Hardware stack levels required when called:    9
 This function calls:
		Nothing
 This function is called by:
		i1_OLED_updateCallback
 This function uses a non-reentrant model


 *************** function i1_sprintf *****************
 Defined at:
		line 13 in file "C:\Program Files (x86)\Microchip\xc8\v1.45\sources\common\sprintf.c"
 Parameters:    Size  Location     Type
  wh              2  177[BANK1 ] PTR unsigned char 
		 -> ftoa@buf(17), print_Energy_str(17), print_Power_str(17), print_Vrms_str(17), 
		 -> print_Irms_str(17), OLED_updateCallback@angle_string(17), OLED_updateCallback@percentage_string(17), OLED_updateCallback@rev_id_str(17), 
		 -> OLED_updateCallback@dev_id_str(17), 
  f               2  179[BANK1 ] PTR const unsigned char 
		 -> STR_344(11), STR_42(12), STR_41(12), STR_40(12), 
		 -> STR_39(11), STR_38(10), STR_37(10), STR_36(9), 
		 -> STR_34(13), STR_8(7), STR_6(5), 
 Auto vars:     Size  Location     Type
  sprintf         5  187[BANK1 ] struct __prbuf
  sprintf         2  185[BANK1 ] PTR void [1]
		 -> ?i1_sprintf(2), ?_sprintf(2), ?_printf(2), 
 Return value:  Size  Location     Type
                  2  177[BANK1 ] int 
 Registers used:
		wreg, fsr0l, fsr0h, fsr2l, fsr2h, status,2, status,0, pclath, tosl, tblptrl, tblptrh, tblptru, prodl, prodh, cstack
 Tracked objects:
		On entry : 
		On exit  : 
		Unchanged: 
 Data sizes:     COMRAM   BANK0   BANK1   BANK2   BANK3   BANK4   BANK5   BANK6   BANK7   BANK8   BANK9  BANK10  BANK11  BANK12  BANK13
      Params:         0       0       8       0       0       0       0       0       0       0       0       0       0       0       0
      Locals:         0       0       7       0       0       0       0       0       0       0       0       0       0       0       0
      Temps:          0       0       0       0       0       0       0       0       0       0       0       0       0       0       0
      Totals:         0       0      15       0       0       0       0       0       0       0       0       0       0       0       0
Total ram usage:       15 bytes
 Hardware stack levels used:    1
 Hardware stack levels required when called:   12
 This function calls:
		i1__doprnt
 This function is called by:
		i1_OLED_updateCallback
 This function uses a non-reentrant model


 *************** function i1__doprnt *****************
 Defined at:
		line 458 in file "C:\Program Files (x86)\Microchip\xc8\v1.45\sources\common\doprnt.c"
 Parameters:    Size  Location     Type
  pb              2  135[BANK1 ] PTR struct __prbuf
		 -> sprintf@pb(5), printf@pb(5), 
  f               2  137[BANK1 ] PTR const unsigned char 
		 -> STR_344(11), STR_316(14), STR_315(99), STR_314(30), 
		 -> STR_313(58), STR_312(36), STR_311(36), STR_310(37), 
		 -> STR_309(28), STR_308(38), STR_307(60), STR_306(32), 
		 -> STR_305(23), STR_304(65), STR_303(27), STR_302(48), 
		 -> STR_301(15), STR_300(13), STR_299(12), STR_298(11), 
		 -> STR_297(10), STR_296(11), STR_295(24), STR_294(46), 
		 -> STR_293(25), STR_292(56), STR_291(64), STR_290(59), 
		 -> STR_289(85), STR_288(30), STR_287(55), STR_286(46), 
		 -> STR_285(39), STR_284(62), STR_283(21), STR_282(31), 
		 -> STR_281(49), STR_280(36), STR_279(99), STR_278(88), 
		 -> STR_277(37), STR_276(13), STR_275(29), STR_274(26), 
		 -> STR_273(26), STR_272(426), STR_270(30), STR_269(46), 
		 -> STR_268(39), STR_267(62), STR_266(55), STR_265(470), 
		 -> STR_263(3357), STR_261(492), STR_259(915), STR_257(720), 
		 -> STR_255(1080), STR_253(32), STR_252(36), STR_250(46), 
		 -> STR_249(51), STR_248(73), STR_247(73), STR_246(73), 
		 -> STR_245(56), STR_244(34), STR_243(34), STR_242(53), 
		 -> STR_241(42), STR_240(53), STR_239(39), STR_238(31), 
		 -> STR_236(54), STR_235(45), STR_234(51), STR_233(52), 
		 -> STR_232(30), STR_231(58), STR_230(36), STR_229(36), 
		 -> STR_228(37), STR_227(38), STR_226(60), STR_225(32), 
		 -> STR_224(23), STR_223(65), STR_222(27), STR_221(48), 
		 -> STR_220(15), STR_219(13), STR_218(12), STR_217(11), 
		 -> STR_216(10), STR_215(11), STR_214(24), STR_213(46), 
		 -> STR_212(25), STR_211(58), STR_210(56), STR_209(64), 
		 -> STR_208(59), STR_207(85), STR_206(26), STR_204(54), 
		 -> STR_202(54), STR_200(45), STR_198(51), STR_196(52), 
		 -> STR_194(46), STR_192(51), STR_190(53), STR_188(58), 
		 -> STR_186(71), STR_185(63), STR_184(37), STR_183(46), 
		 -> STR_182(102), STR_181(86), STR_179(25), STR_177(42), 
		 -> STR_176(53), STR_175(31), STR_173(29), STR_172(28), 
		 -> STR_170(42), STR_168(41), STR_166(44), STR_165(19), 
		 -> STR_164(34), STR_162(53), STR_161(50), STR_160(105), 
		 -> STR_159(105), STR_157(59), STR_155(73), STR_154(73), 
		 -> STR_153(73), STR_151(56), STR_149(34), STR_147(34), 
		 -> STR_145(32), STR_143(30), STR_141(58), STR_139(36), 
		 -> STR_137(36), STR_135(37), STR_133(34), STR_131(38), 
		 -> STR_130(60), STR_129(32), STR_128(23), STR_127(65), 
		 -> STR_125(23), STR_123(27), STR_122(48), STR_121(15), 
		 -> STR_120(13), STR_119(12), STR_118(11), STR_117(10), 
		 -> STR_116(11), STR_115(24), STR_114(46), STR_113(25), 
		 -> STR_111(56), STR_110(64), STR_108(59), STR_106(85), 
		 -> STR_104(47), STR_103(17), STR_100(52), STR_98(4), 
		 -> STR_97(5), STR_95(4), STR_94(5), STR_92(3), 
		 -> terminal_textAttributes@output_buff(15), STR_62(4), STR_61(4), STR_60(4), 
		 -> STR_59(4), STR_58(5), STR_57(26), STR_56(46), 
		 -> STR_55(51), STR_54(32), STR_53(63), STR_52(39), 
		 -> STR_51(31), STR_50(73), STR_49(73), STR_48(73), 
		 -> STR_47(56), STR_46(34), STR_45(34), STR_44(53), 
		 -> STR_43(28), STR_42(12), STR_41(12), STR_40(12), 
		 -> STR_39(11), STR_38(10), STR_37(10), STR_36(9), 
		 -> STR_34(13), STR_8(7), STR_6(5), STR_1(4), 
  ap              2  139[BANK1 ] PTR PTR void 
		 -> sprintf@ap(2), printf@ap(2), 
 Auto vars:     Size  Location     Type
  _doprnt         4  170[BANK1 ] PTR PTR void 
  _doprnt         4  162[BANK1 ] unsigned long 
  _doprnt         4  156[BANK1 ] struct .
  _doprnt         2  174[BANK1 ] int 
  _doprnt         2  168[BANK1 ] unsigned short 
  _doprnt         2  166[BANK1 ] int 
  _doprnt         2  160[BANK1 ] int 
  _doprnt         2  154[BANK1 ] unsigned int 
  _doprnt         2  152[BANK1 ] PTR const unsigned char 
		 -> ?_sprintf(2), ?_printf(2), ftoa@buf(17), STR_342(7), 
		 -> _doprnt@c(1), STR_329(16), STR_328(22), STR_327(21), 
		 -> STR_326(27), STR_325(41), STR_324(32), STR_323(19), 
		 -> STR_322(16), STR_321(15), STR_320(16), STR_319(10), 
		 -> STR_318(13), STR_317(12), print_Energy_str(17), print_Power_str(17), 
		 -> print_Vrms_str(17), print_Irms_str(17), OLED_updateCallback@angle_string(17), OLED_updateCallback@percentage_string(17), 
		 -> OLED_updateCallback@rev_id_str(17), OLED_updateCallback@dev_id_str(17), TRIAC_Firing_Angle(4), sp__acos(4), 
		 -> NULL(0), 
  _doprnt         1  176[BANK1 ] char 
  _doprnt         1  151[BANK1 ] unsigned char 
  _doprnt         1    0        unsigned char 
 Return value:  Size  Location     Type
                  2  135[BANK1 ] int 
 Registers used:
		wreg, fsr0l, fsr0h, fsr2l, fsr2h, status,2, status,0, pclath, tosl, tblptrl, tblptrh, tblptru, prodl, prodh, cstack
 Tracked objects:
		On entry : 
		On exit  : 
		Unchanged: 
 Data sizes:     COMRAM   BANK0   BANK1   BANK2   BANK3   BANK4   BANK5   BANK6   BANK7   BANK8   BANK9  BANK10  BANK11  BANK12  BANK13
      Params:         0       0       6       0       0       0       0       0       0       0       0       0       0       0       0
      Locals:         0       0      30       0       0       0       0       0       0       0       0       0       0       0       0
      Temps:          0       0       6       0       0       0       0       0       0       0       0       0       0       0       0
      Totals:         0       0      42       0       0       0       0       0       0       0       0       0       0       0       0
Total ram usage:       42 bytes
 Hardware stack levels used:    1
 Hardware stack levels required when called:   11
 This function calls:
		Absolute function
		i1___awdiv
		i1___awmod
		i1___fladd
		i1___fldiv
		i1___flge
		i1___flmul
		i1___flneg
		i1___flsub
		i1___fltol
		i1___lldiv
		i1___llmod
		i1___wmul
		i1___xxtofl
		i1__div_to_l_
		i1__tdiv_to_l_
		i1_fround
		i1_isdigit
		i1_putch
		i1_scale
 This function is called by:
		i1_printf
		i1_sprintf
 This function uses a non-reentrant model


 *************** function i1_scale *****************
 Defined at:
		line 425 in file "C:\Program Files (x86)\Microchip\xc8\v1.45\sources\common\doprnt.c"
 Parameters:    Size  Location     Type
  scl             1    wreg     char 
 Auto vars:     Size  Location     Type
  scl             1  130[BANK1 ] char 
 Return value:  Size  Location     Type
                  4  122[BANK1 ] char 
 Registers used:
		wreg, status,2, status,0, tblptrl, tblptrh, tblptru, prodl, prodh, cstack
 Tracked objects:
		On entry : 
		On exit  : 
		Unchanged: 
 Data sizes:     COMRAM   BANK0   BANK1   BANK2   BANK3   BANK4   BANK5   BANK6   BANK7   BANK8   BANK9  BANK10  BANK11  BANK12  BANK13
      Params:         0       0       4       0       0       0       0       0       0       0       0       0       0       0       0
      Locals:         0       0       5       0       0       0       0       0       0       0       0       0       0       0       0
      Temps:          0       0       0       0       0       0       0       0       0       0       0       0       0       0       0
      Totals:         0       0       9       0       0       0       0       0       0       0       0       0       0       0       0
Total ram usage:        9 bytes
 Hardware stack levels used:    1
 Hardware stack levels required when called:   10
 This function calls:
		i1___awdiv
		i1___awmod
		i1___flmul
 This function is called by:
		i1__doprnt
 This function uses a non-reentrant model


 *************** function i1_putch *****************
 Defined at:
		line 184 in file "mcc_generated_files/eusart2.c"
 Parameters:    Size  Location     Type
  txData          1    wreg     unsigned char 
 Auto vars:     Size  Location     Type
  txData          1    1[BANK1 ] unsigned char 
 Return value:  Size  Location     Type
                  1    wreg      void 
 Registers used:
		wreg, fsr2l, fsr2h, status,2, status,0, prodl, prodh, cstack
 Tracked objects:
		On entry : 
		On exit  : 
		Unchanged: 
 Data sizes:     COMRAM   BANK0   BANK1   BANK2   BANK3   BANK4   BANK5   BANK6   BANK7   BANK8   BANK9  BANK10  BANK11  BANK12  BANK13
      Params:         0       0       0       0       0       0       0       0       0       0       0       0       0       0       0
      Locals:         0       0       1       0       0       0       0       0       0       0       0       0       0       0       0
      Temps:          0       0       0       0       0       0       0       0       0       0       0       0       0       0       0
      Totals:         0       0       1       0       0       0       0       0       0       0       0       0       0       0       0
Total ram usage:        1 bytes
 Hardware stack levels used:    1
 Hardware stack levels required when called:   10
 This function calls:
		i1_EUSART2_Write
 This function is called by:
		i1_printf
 This function uses a non-reentrant model


 *************** function i1_EUSART2_Write *****************
 Defined at:
		line 155 in file "mcc_generated_files/eusart2.c"
 Parameters:    Size  Location     Type
  txData          1    wreg     unsigned char 
 Auto vars:     Size  Location     Type
  txData          1    0[BANK1 ] unsigned char 
 Return value:  Size  Location     Type
                  1    wreg      void 
 Registers used:
		wreg, fsr2l, fsr2h, status,2, status,0, prodl, prodh
 Tracked objects:
		On entry : 
		On exit  : 
		Unchanged: 
 Data sizes:     COMRAM   BANK0   BANK1   BANK2   BANK3   BANK4   BANK5   BANK6   BANK7   BANK8   BANK9  BANK10  BANK11  BANK12  BANK13
      Params:         0       0       0       0       0       0       0       0       0       0       0       0       0       0       0
      Locals:         0       0       1       0       0       0       0       0       0       0       0       0       0       0       0
      Temps:          0       0       0       0       0       0       0       0       0       0       0       0       0       0       0
      Totals:         0       0       1       0       0       0       0       0       0       0       0       0       0       0       0
Total ram usage:        1 bytes
 Hardware stack levels used:    1
 Hardware stack levels required when called:    9
 This function calls:
		Nothing
 This function is called by:
		i1_putch
 This function uses a non-reentrant model


 *************** function i1_isdigit *****************
 Defined at:
		line 8 in file "C:\Program Files (x86)\Microchip\xc8\v1.45\sources\common\isdigit.c"
 Parameters:    Size  Location     Type
  c               1    wreg     unsigned char 
 Auto vars:     Size  Location     Type
  c               1    2[BANK1 ] unsigned char 
 Return value:  Size  Location     Type
		None               void
 Registers used:
		wreg, status,2, status,0
 Tracked objects:
		On entry : 
		On exit  : 
		Unchanged: 
 Data sizes:     COMRAM   BANK0   BANK1   BANK2   BANK3   BANK4   BANK5   BANK6   BANK7   BANK8   BANK9  BANK10  BANK11  BANK12  BANK13
      Params:         0       0       0       0       0       0       0       0       0       0       0       0       0       0       0
      Locals:         0       0       2       0       0       0       0       0       0       0       0       0       0       0       0
      Temps:          0       0       1       0       0       0       0       0       0       0       0       0       0       0       0
      Totals:         0       0       3       0       0       0       0       0       0       0       0       0       0       0       0
Total ram usage:        3 bytes
 Hardware stack levels used:    1
 Hardware stack levels required when called:    9
 This function calls:
		Nothing
 This function is called by:
		i1__doprnt
 This function uses a non-reentrant model


 *************** function i1_fround *****************
 Defined at:
		line 409 in file "C:\Program Files (x86)\Microchip\xc8\v1.45\sources\common\doprnt.c"
 Parameters:    Size  Location     Type
  prec            1    wreg     unsigned char 
 Auto vars:     Size  Location     Type
  prec            1  134[BANK1 ] unsigned char 
 Return value:  Size  Location     Type
                  4  122[BANK1 ] unsigned char 
 Registers used:
		wreg, status,2, status,0, tblptrl, tblptrh, tblptru, prodl, prodh, cstack
 Tracked objects:
		On entry : 
		On exit  : 
		Unchanged: 
 Data sizes:     COMRAM   BANK0   BANK1   BANK2   BANK3   BANK4   BANK5   BANK6   BANK7   BANK8   BANK9  BANK10  BANK11  BANK12  BANK13
      Params:         0       0       4       0       0       0       0       0       0       0       0       0       0       0       0
      Locals:         0       0       9       0       0       0       0       0       0       0       0       0       0       0       0
      Temps:          0       0       0       0       0       0       0       0       0       0       0       0       0       0       0
      Totals:         0       0      13       0       0       0       0       0       0       0       0       0       0       0       0
Total ram usage:       13 bytes
 Hardware stack levels used:    1
 Hardware stack levels required when called:   10
 This function calls:
		i1___awdiv
		i1___awmod
		i1___flmul
 This function is called by:
		i1__doprnt
 This function uses a non-reentrant model


 *************** function i1___awmod *****************
 Defined at:
		line 8 in file "C:\Program Files (x86)\Microchip\xc8\v1.45\sources\common\awmod.c"
 Parameters:    Size  Location     Type
  dividend        2    0[BANK1 ] int 
  divisor         2    2[BANK1 ] int 
 Auto vars:     Size  Location     Type
  __awmod         1    5[BANK1 ] unsigned char 
  __awmod         1    4[BANK1 ] unsigned char 
 Return value:  Size  Location     Type
                  2    0[BANK1 ] int 
 Registers used:
		wreg, status,2, status,0
 Tracked objects:
		On entry : 
		On exit  : 
		Unchanged: 
 Data sizes:     COMRAM   BANK0   BANK1   BANK2   BANK3   BANK4   BANK5   BANK6   BANK7   BANK8   BANK9  BANK10  BANK11  BANK12  BANK13
      Params:         0       0       4       0       0       0       0       0       0       0       0       0       0       0       0
      Locals:         0       0       2       0       0       0       0       0       0       0       0       0       0       0       0
      Temps:          0       0       0       0       0       0       0       0       0       0       0       0       0       0       0
      Totals:         0       0       6       0       0       0       0       0       0       0       0       0       0       0       0
Total ram usage:        6 bytes
 Hardware stack levels used:    1
 Hardware stack levels required when called:    9
 This function calls:
		Nothing
 This function is called by:
		i1_fround
		i1_scale
		i1__doprnt
 This function uses a non-reentrant model


 *************** function i1___awdiv *****************
 Defined at:
		line 8 in file "C:\Program Files (x86)\Microchip\xc8\v1.45\sources\common\awdiv.c"
 Parameters:    Size  Location     Type
  dividend        2    6[BANK1 ] int 
  divisor         2    8[BANK1 ] int 
 Auto vars:     Size  Location     Type
  __awdiv         2   12[BANK1 ] int 
  __awdiv         1   11[BANK1 ] unsigned char 
  __awdiv         1   10[BANK1 ] unsigned char 
 Return value:  Size  Location     Type
                  2    6[BANK1 ] int 
 Registers used:
		wreg, status,2, status,0
 Tracked objects:
		On entry : 
		On exit  : 
		Unchanged: 
 Data sizes:     COMRAM   BANK0   BANK1   BANK2   BANK3   BANK4   BANK5   BANK6   BANK7   BANK8   BANK9  BANK10  BANK11  BANK12  BANK13
      Params:         0       0       4       0       0       0       0       0       0       0       0       0       0       0       0
      Locals:         0       0       4       0       0       0       0       0       0       0       0       0       0       0       0
      Temps:          0       0       0       0       0       0       0       0       0       0       0       0       0       0       0
      Totals:         0       0       8       0       0       0       0       0       0       0       0       0       0       0       0
Total ram usage:        8 bytes
 Hardware stack levels used:    1
 Hardware stack levels required when called:    9
 This function calls:
		Nothing
 This function is called by:
		i1_fround
		i1_scale
		i1__doprnt
 This function uses a non-reentrant model


 *************** function i1__tdiv_to_l_ *****************
 Defined at:
		line 60 in file "C:\Program Files (x86)\Microchip\xc8\v1.45\sources\common\ftdivl.c"
 Parameters:    Size  Location     Type
  f1              3    0[BANK1 ] float 
  f2              3    3[BANK1 ] float 
 Auto vars:     Size  Location     Type
  _tdiv_to_l_     4    9[BANK1 ] unsigned long 
  _tdiv_to_l_     1   14[BANK1 ] unsigned char 
  _tdiv_to_l_     1   13[BANK1 ] unsigned char 
 Return value:  Size  Location     Type
                  4    0[BANK1 ] unsigned long 
 Registers used:
		wreg, status,2, status,0
 Tracked objects:
		On entry : 
		On exit  : 
		Unchanged: 
 Data sizes:     COMRAM   BANK0   BANK1   BANK2   BANK3   BANK4   BANK5   BANK6   BANK7   BANK8   BANK9  BANK10  BANK11  BANK12  BANK13
      Params:         0       0       6       0       0       0       0       0       0       0       0       0       0       0       0
      Locals:         0       0       6       0       0       0       0       0       0       0       0       0       0       0       0
      Temps:          0       0       3       0       0       0       0       0       0       0       0       0       0       0       0
      Totals:         0       0      15       0       0       0       0       0       0       0       0       0       0       0       0
Total ram usage:       15 bytes
 Hardware stack levels used:    1
 Hardware stack levels required when called:    9
 This function calls:
		Nothing
 This function is called by:
		i1__doprnt
 This function uses a non-reentrant model


 *************** function i1__div_to_l_ *****************
 Defined at:
		line 60 in file "C:\Program Files (x86)\Microchip\xc8\v1.45\sources\common\fldivl.c"
 Parameters:    Size  Location     Type
  f1              4    0[BANK1 ] unsigned long 
  f2              4    4[BANK1 ] unsigned long 
 Auto vars:     Size  Location     Type
  _div_to_l_      4    8[BANK1 ] unsigned long 
  _div_to_l_      1   13[BANK1 ] unsigned char 
  _div_to_l_      1   12[BANK1 ] unsigned char 
 Return value:  Size  Location     Type
                  4    0[BANK1 ] unsigned long 
 Registers used:
		wreg, status,2, status,0
 Tracked objects:
		On entry : 
		On exit  : 
		Unchanged: 
 Data sizes:     COMRAM   BANK0   BANK1   BANK2   BANK3   BANK4   BANK5   BANK6   BANK7   BANK8   BANK9  BANK10  BANK11  BANK12  BANK13
      Params:         0       0       8       0       0       0       0       0       0       0       0       0       0       0       0
      Locals:         0       0       6       0       0       0       0       0       0       0       0       0       0       0       0
      Temps:          0       0       0       0       0       0       0       0       0       0       0       0       0       0       0
      Totals:         0       0      14       0       0       0       0       0       0       0       0       0       0       0       0
Total ram usage:       14 bytes
 Hardware stack levels used:    1
 Hardware stack levels required when called:    9
 This function calls:
		Nothing
 This function is called by:
		i1__doprnt
 This function uses a non-reentrant model


 *************** function i1___wmul *****************
 Defined at:
		line 15 in file "C:\Program Files (x86)\Microchip\xc8\v1.45\sources\common\Umul16.c"
 Parameters:    Size  Location     Type
  multiplier      2    0[BANK1 ] unsigned int 
  multiplicand    2    2[BANK1 ] unsigned int 
 Auto vars:     Size  Location     Type
  __wmul          2    4[BANK1 ] unsigned int 
 Return value:  Size  Location     Type
                  2    0[BANK1 ] unsigned int 
 Registers used:
		wreg, status,2, status,0, prodl, prodh
 Tracked objects:
		On entry : 
		On exit  : 
		Unchanged: 
 Data sizes:     COMRAM   BANK0   BANK1   BANK2   BANK3   BANK4   BANK5   BANK6   BANK7   BANK8   BANK9  BANK10  BANK11  BANK12  BANK13
      Params:         0       0       4       0       0       0       0       0       0       0       0       0       0       0       0
      Locals:         0       0       2       0       0       0       0       0       0       0       0       0       0       0       0
      Temps:          0       0       0       0       0       0       0       0       0       0       0       0       0       0       0
      Totals:         0       0       6       0       0       0       0       0       0       0       0       0       0       0       0
Total ram usage:        6 bytes
 Hardware stack levels used:    1
 Hardware stack levels required when called:    9
 This function calls:
		Nothing
 This function is called by:
		i1__doprnt
 This function uses a non-reentrant model


 *************** function i1___llmod *****************
 Defined at:
		line 8 in file "C:\Program Files (x86)\Microchip\xc8\v1.45\sources\common\llmod.c"
 Parameters:    Size  Location     Type
  dividend        4   13[BANK1 ] unsigned long 
  divisor         4   17[BANK1 ] unsigned long 
 Auto vars:     Size  Location     Type
  __llmod         1   21[BANK1 ] unsigned char 
 Return value:  Size  Location     Type
                  4   13[BANK1 ] unsigned long 
 Registers used:
		wreg, status,2, status,0
 Tracked objects:
		On entry : 
		On exit  : 
		Unchanged: 
 Data sizes:     COMRAM   BANK0   BANK1   BANK2   BANK3   BANK4   BANK5   BANK6   BANK7   BANK8   BANK9  BANK10  BANK11  BANK12  BANK13
      Params:         0       0       8       0       0       0       0       0       0       0       0       0       0       0       0
      Locals:         0       0       1       0       0       0       0       0       0       0       0       0       0       0       0
      Temps:          0       0       0       0       0       0       0       0       0       0       0       0       0       0       0
      Totals:         0       0       9       0       0       0       0       0       0       0       0       0       0       0       0
Total ram usage:        9 bytes
 Hardware stack levels used:    1
 Hardware stack levels required when called:    9
 This function calls:
		Nothing
 This function is called by:
		i1__doprnt
 This function uses a non-reentrant model


 *************** function i1___lldiv *****************
 Defined at:
		line 8 in file "C:\Program Files (x86)\Microchip\xc8\v1.45\sources\common\lldiv.c"
 Parameters:    Size  Location     Type
  dividend        4    0[BANK1 ] unsigned long 
  divisor         4    4[BANK1 ] unsigned long 
 Auto vars:     Size  Location     Type
  __lldiv         4    8[BANK1 ] unsigned long 
  __lldiv         1   12[BANK1 ] unsigned char 
 Return value:  Size  Location     Type
                  4    0[BANK1 ] unsigned long 
 Registers used:
		wreg, status,2, status,0
 Tracked objects:
		On entry : 
		On exit  : 
		Unchanged: 
 Data sizes:     COMRAM   BANK0   BANK1   BANK2   BANK3   BANK4   BANK5   BANK6   BANK7   BANK8   BANK9  BANK10  BANK11  BANK12  BANK13
      Params:         0       0       8       0       0       0       0       0       0       0       0       0       0       0       0
      Locals:         0       0       5       0       0       0       0       0       0       0       0       0       0       0       0
      Temps:          0       0       0       0       0       0       0       0       0       0       0       0       0       0       0
      Totals:         0       0      13       0       0       0       0       0       0       0       0       0       0       0       0
Total ram usage:       13 bytes
 Hardware stack levels used:    1
 Hardware stack levels required when called:    9
 This function calls:
		Nothing
 This function is called by:
		i1__doprnt
 This function uses a non-reentrant model


 *************** function i1___flsub *****************
 Defined at:
		line 245 in file "C:\Program Files (x86)\Microchip\xc8\v1.45\sources\common\sprcadd.c"
 Parameters:    Size  Location     Type
  b               4   72[BANK1 ] unsigned long 
  a               4   76[BANK1 ] unsigned long 
 Auto vars:     Size  Location     Type
		None
 Return value:  Size  Location     Type
                  4   72[BANK1 ] unsigned long 
 Registers used:
		wreg, status,2, status,0, cstack
 Tracked objects:
		On entry : 
		On exit  : 
		Unchanged: 
 Data sizes:     COMRAM   BANK0   BANK1   BANK2   BANK3   BANK4   BANK5   BANK6   BANK7   BANK8   BANK9  BANK10  BANK11  BANK12  BANK13
      Params:         0       0       8       0       0       0       0       0       0       0       0       0       0       0       0
      Locals:         0       0       0       0       0       0       0       0       0       0       0       0       0       0       0
      Temps:          0       0       0       0       0       0       0       0       0       0       0       0       0       0       0
      Totals:         0       0       8       0       0       0       0       0       0       0       0       0       0       0       0
Total ram usage:        8 bytes
 Hardware stack levels used:    1
 Hardware stack levels required when called:   10
 This function calls:
		i1___fladd
 This function is called by:
		i1__doprnt
 This function uses a non-reentrant model


 *************** function i1_round *****************
 Defined at:
		line 6 in file "C:\Program Files (x86)\Microchip\xc8\v1.45\sources\common\round.c"
 Parameters:    Size  Location     Type
  x               4  191[BANK1 ] unsigned long 
 Auto vars:     Size  Location     Type
  round           4  195[BANK1 ] unsigned long 
 Return value:  Size  Location     Type
                  4  191[BANK1 ] unsigned long 
 Registers used:
		wreg, fsr2l, fsr2h, status,2, status,0, cstack
 Tracked objects:
		On entry : 
		On exit  : 
		Unchanged: 
 Data sizes:     COMRAM   BANK0   BANK1   BANK2   BANK3   BANK4   BANK5   BANK6   BANK7   BANK8   BANK9  BANK10  BANK11  BANK12  BANK13
      Params:         0       0       4       0       0       0       0       0       0       0       0       0       0       0       0
      Locals:         0       0       4       0       0       0       0       0       0       0       0       0       0       0       0
      Temps:          0       0       0       0       0       0       0       0       0       0       0       0       0       0       0
      Totals:         0       0       8       0       0       0       0       0       0       0       0       0       0       0       0
Total ram usage:        8 bytes
 Hardware stack levels used:    1
 Hardware stack levels required when called:   11
 This function calls:
		i1___fladd
		i1___flneg
		i1_trunc
 This function is called by:
		i1_OLED_updateCallback
 This function uses a non-reentrant model


 *************** function i1_trunc *****************
 Defined at:
		line 13 in file "C:\Program Files (x86)\Microchip\xc8\v1.45\sources\common\trunc.c"
 Parameters:    Size  Location     Type
  x               4   38[BANK1 ] unsigned long 
 Auto vars:     Size  Location     Type
  trunc           4   42[BANK1 ] unsigned long 
  trunc           2   46[BANK1 ] int 
 Return value:  Size  Location     Type
                  4   38[BANK1 ] int 
 Registers used:
		wreg, fsr2l, fsr2h, status,2, status,0, cstack
 Tracked objects:
		On entry : 
		On exit  : 
		Unchanged: 
 Data sizes:     COMRAM   BANK0   BANK1   BANK2   BANK3   BANK4   BANK5   BANK6   BANK7   BANK8   BANK9  BANK10  BANK11  BANK12  BANK13
      Params:         0       0       4       0       0       0       0       0       0       0       0       0       0       0       0
      Locals:         0       0       6       0       0       0       0       0       0       0       0       0       0       0       0
      Temps:          0       0       0       0       0       0       0       0       0       0       0       0       0       0       0
      Totals:         0       0      10       0       0       0       0       0       0       0       0       0       0       0       0
Total ram usage:       10 bytes
 Hardware stack levels used:    1
 Hardware stack levels required when called:   10
 This function calls:
		i1___fltol
		i1___xxtofl
		i1_frexp
 This function is called by:
		i1_round
 This function uses a non-reentrant model


 *************** function i1_frexp *****************
 Defined at:
		line 254 in file "C:\Program Files (x86)\Microchip\xc8\v1.45\sources\common\frexp.c"
 Parameters:    Size  Location     Type
  value           4    0[BANK1 ] int 
  eptr            2    4[BANK1 ] PTR int 
		 -> floor@expon(2), trunc@expon(2), 
 Auto vars:     Size  Location     Type
		None
 Return value:  Size  Location     Type
                  4    0[BANK1 ] PTR int 
 Registers used:
		wreg, fsr2l, fsr2h, status,2, status,0
 Tracked objects:
		On entry : 
		On exit  : 
		Unchanged: 
 Data sizes:     COMRAM   BANK0   BANK1   BANK2   BANK3   BANK4   BANK5   BANK6   BANK7   BANK8   BANK9  BANK10  BANK11  BANK12  BANK13
      Params:         0       0       6       0       0       0       0       0       0       0       0       0       0       0       0
      Locals:         0       0       0       0       0       0       0       0       0       0       0       0       0       0       0
      Temps:          0       0       2       0       0       0       0       0       0       0       0       0       0       0       0
      Totals:         0       0       8       0       0       0       0       0       0       0       0       0       0       0       0
Total ram usage:        8 bytes
 Hardware stack levels used:    1
 Hardware stack levels required when called:    9
 This function calls:
		Nothing
 This function is called by:
		i1_trunc
 This function uses a non-reentrant model


 *************** function i1___xxtofl *****************
 Defined at:
		line 10 in file "C:\Program Files (x86)\Microchip\xc8\v1.45\sources\common\xxtofl.c"
 Parameters:    Size  Location     Type
  sign            1    wreg     unsigned char 
  val             4   24[BANK1 ] long 
 Auto vars:     Size  Location     Type
  sign            1   32[BANK1 ] unsigned char 
  __xxtofl        4   34[BANK1 ] unsigned long 
  __xxtofl        1   33[BANK1 ] unsigned char 
 Return value:  Size  Location     Type
                  4   24[BANK1 ] unsigned char 
 Registers used:
		wreg, status,2, status,0
 Tracked objects:
		On entry : 
		On exit  : 
		Unchanged: 
 Data sizes:     COMRAM   BANK0   BANK1   BANK2   BANK3   BANK4   BANK5   BANK6   BANK7   BANK8   BANK9  BANK10  BANK11  BANK12  BANK13
      Params:         0       0       4       0       0       0       0       0       0       0       0       0       0       0       0
      Locals:         0       0       6       0       0       0       0       0       0       0       0       0       0       0       0
      Temps:          0       0       4       0       0       0       0       0       0       0       0       0       0       0       0
      Totals:         0       0      14       0       0       0       0       0       0       0       0       0       0       0       0
Total ram usage:       14 bytes
 Hardware stack levels used:    1
 Hardware stack levels required when called:    9
 This function calls:
		Nothing
 This function is called by:
		i1__doprnt
		i1_trunc
 This function uses a non-reentrant model


 *************** function i1___fltol *****************
 Defined at:
		line 43 in file "C:\Program Files (x86)\Microchip\xc8\v1.45\sources\common\fltol.c"
 Parameters:    Size  Location     Type
  f1              4   14[BANK1 ] unsigned char 
 Auto vars:     Size  Location     Type
  __fltol         1   23[BANK1 ] unsigned char 
  __fltol         1   22[BANK1 ] unsigned char 
 Return value:  Size  Location     Type
                  4   14[BANK1 ] long 
 Registers used:
		wreg, status,2, status,0
 Tracked objects:
		On entry : 
		On exit  : 
		Unchanged: 
 Data sizes:     COMRAM   BANK0   BANK1   BANK2   BANK3   BANK4   BANK5   BANK6   BANK7   BANK8   BANK9  BANK10  BANK11  BANK12  BANK13
      Params:         0       0       4       0       0       0       0       0       0       0       0       0       0       0       0
      Locals:         0       0       2       0       0       0       0       0       0       0       0       0       0       0       0
      Temps:          0       0       4       0       0       0       0       0       0       0       0       0       0       0       0
      Totals:         0       0      10       0       0       0       0       0       0       0       0       0       0       0       0
Total ram usage:       10 bytes
 Hardware stack levels used:    1
 Hardware stack levels required when called:    9
 This function calls:
		Nothing
 This function is called by:
		i1__doprnt
		i1_trunc
 This function uses a non-reentrant model


 *************** function i1_getMinorRevisionID *****************
 Defined at:
		line 23 in file "device_IDs.c"
 Parameters:    Size  Location     Type
		None
 Auto vars:     Size  Location     Type
  getMinorRevi    2   11[BANK1 ] unsigned int 
 Return value:  Size  Location     Type
                  1    wreg      unsigned char 
 Registers used:
		wreg, status,2, status,0, cstack
 Tracked objects:
		On entry : 
		On exit  : 
		Unchanged: 
 Data sizes:     COMRAM   BANK0   BANK1   BANK2   BANK3   BANK4   BANK5   BANK6   BANK7   BANK8   BANK9  BANK10  BANK11  BANK12  BANK13
      Params:         0       0       0       0       0       0       0       0       0       0       0       0       0       0       0
      Locals:         0       0       2       0       0       0       0       0       0       0       0       0       0       0       0
      Temps:          0       0       0       0       0       0       0       0       0       0       0       0       0       0       0
      Totals:         0       0       2       0       0       0       0       0       0       0       0       0       0       0       0
Total ram usage:        2 bytes
 Hardware stack levels used:    1
 Hardware stack levels required when called:   11
 This function calls:
		i1_FLASH_ReadWord
 This function is called by:
		i1_OLED_updateCallback
 This function uses a non-reentrant model


 *************** function i1_getMajorRevisionID *****************
 Defined at:
		line 12 in file "device_IDs.c"
 Parameters:    Size  Location     Type
		None
 Auto vars:     Size  Location     Type
  getMajorRevi    2   14[BANK1 ] unsigned int 
 Return value:  Size  Location     Type
                  1    wreg      unsigned char 
 Registers used:
		wreg, status,2, status,0, cstack
 Tracked objects:
		On entry : 
		On exit  : 
		Unchanged: 
 Data sizes:     COMRAM   BANK0   BANK1   BANK2   BANK3   BANK4   BANK5   BANK6   BANK7   BANK8   BANK9  BANK10  BANK11  BANK12  BANK13
      Params:         0       0       0       0       0       0       0       0       0       0       0       0       0       0       0
      Locals:         0       0       2       0       0       0       0       0       0       0       0       0       0       0       0
      Temps:          0       0       3       0       0       0       0       0       0       0       0       0       0       0       0
      Totals:         0       0       5       0       0       0       0       0       0       0       0       0       0       0       0
Total ram usage:        5 bytes
 Hardware stack levels used:    1
 Hardware stack levels required when called:   11
 This function calls:
		i1_FLASH_ReadWord
 This function is called by:
		i1_OLED_updateCallback
 This function uses a non-reentrant model


 *************** function i1_getDeviceID *****************
 Defined at:
		line 4 in file "device_IDs.c"
 Parameters:    Size  Location     Type
		None
 Auto vars:     Size  Location     Type
		None
 Return value:  Size  Location     Type
                  2   11[BANK1 ] unsigned int 
 Registers used:
		wreg, status,2, status,0, cstack
 Tracked objects:
		On entry : 
		On exit  : 
		Unchanged: 
 Data sizes:     COMRAM   BANK0   BANK1   BANK2   BANK3   BANK4   BANK5   BANK6   BANK7   BANK8   BANK9  BANK10  BANK11  BANK12  BANK13
      Params:         0       0       2       0       0       0       0       0       0       0       0       0       0       0       0
      Locals:         0       0       0       0       0       0       0       0       0       0       0       0       0       0       0
      Temps:          0       0       0       0       0       0       0       0       0       0       0       0       0       0       0
      Totals:         0       0       2       0       0       0       0       0       0       0       0       0       0       0       0
Total ram usage:        2 bytes
 Hardware stack levels used:    1
 Hardware stack levels required when called:   11
 This function calls:
		i1_FLASH_ReadWord
 This function is called by:
		i1_OLED_updateCallback
 This function uses a non-reentrant model


 *************** function i1_FLASH_ReadWord *****************
 Defined at:
		line 71 in file "mcc_generated_files/memory.c"
 Parameters:    Size  Location     Type
  flashAddr       4    4[BANK1 ] unsigned long 
 Auto vars:     Size  Location     Type
		None
 Return value:  Size  Location     Type
                  2    4[BANK1 ] unsigned int 
 Registers used:
		wreg, status,2, status,0, cstack
 Tracked objects:
		On entry : 
		On exit  : 
		Unchanged: 
 Data sizes:     COMRAM   BANK0   BANK1   BANK2   BANK3   BANK4   BANK5   BANK6   BANK7   BANK8   BANK9  BANK10  BANK11  BANK12  BANK13
      Params:         0       0       4       0       0       0       0       0       0       0       0       0       0       0       0
      Locals:         0       0       0       0       0       0       0       0       0       0       0       0       0       0       0
      Temps:          0       0       3       0       0       0       0       0       0       0       0       0       0       0       0
      Totals:         0       0       7       0       0       0       0       0       0       0       0       0       0       0       0
Total ram usage:        7 bytes
 Hardware stack levels used:    1
 Hardware stack levels required when called:   10
 This function calls:
		i1_FLASH_ReadByte
 This function is called by:
		i1_getDeviceID
		i1_getMajorRevisionID
		i1_getMinorRevisionID
 This function uses a non-reentrant model


 *************** function i1_FLASH_ReadByte *****************
 Defined at:
		line 59 in file "mcc_generated_files/memory.c"
 Parameters:    Size  Location     Type
  flashAddr       4    0[BANK1 ] unsigned long 
 Auto vars:     Size  Location     Type
		None
 Return value:  Size  Location     Type
                  1    wreg      unsigned char 
 Registers used:
		wreg, status,2
 Tracked objects:
		On entry : 
		On exit  : 
		Unchanged: 
 Data sizes:     COMRAM   BANK0   BANK1   BANK2   BANK3   BANK4   BANK5   BANK6   BANK7   BANK8   BANK9  BANK10  BANK11  BANK12  BANK13
      Params:         0       0       4       0       0       0       0       0       0       0       0       0       0       0       0
      Locals:         0       0       0       0       0       0       0       0       0       0       0       0       0       0       0
      Temps:          0       0       0       0       0       0       0       0       0       0       0       0       0       0       0
      Totals:         0       0       4       0       0       0       0       0       0       0       0       0       0       0       0
Total ram usage:        4 bytes
 Hardware stack levels used:    1
 Hardware stack levels required when called:    9
 This function calls:
		Nothing
 This function is called by:
		i1_FLASH_ReadWord
 This function uses a non-reentrant model


 *************** function i1_getCauseOfResetStringSmall *****************
 Defined at:
		line 118 in file "cause_of_reset.c"
 Parameters:    Size  Location     Type
  r               1    wreg     enum E17455
 Auto vars:     Size  Location     Type
  r               1    2[BANK1 ] enum E17455
 Return value:  Size  Location     Type
                  2    0[BANK1 ] PTR inline unsigned char
 Registers used:
		wreg, fsr2l, fsr2h, status,2, status,0, prodl, prodh
 Tracked objects:
		On entry : 
		On exit  : 
		Unchanged: 
 Data sizes:     COMRAM   BANK0   BANK1   BANK2   BANK3   BANK4   BANK5   BANK6   BANK7   BANK8   BANK9  BANK10  BANK11  BANK12  BANK13
      Params:         0       0       2       0       0       0       0       0       0       0       0       0       0       0       0
      Locals:         0       0       1       0       0       0       0       0       0       0       0       0       0       0       0
      Temps:          0       0       0       0       0       0       0       0       0       0       0       0       0       0       0
      Totals:         0       0       3       0       0       0       0       0       0       0       0       0       0       0       0
Total ram usage:        3 bytes
 Hardware stack levels used:    1
 Hardware stack levels required when called:    9
 This function calls:
		Nothing
 This function is called by:
		i1_OLED_updateCallback
 This function uses a non-reentrant model


 *************** function i1_acos *****************
 Defined at:
		line 8 in file "C:\Program Files (x86)\Microchip\xc8\v1.45\sources\common\acos.c"
 Parameters:    Size  Location     Type
  x               4  183[BANK1 ] PTR inline unsigned char
 Auto vars:     Size  Location     Type
		None
 Return value:  Size  Location     Type
                  4  183[BANK1 ] PTR inline unsigned char
 Registers used:
		wreg, status,2, status,0, tblptrl, tblptrh, tblptru, prodl, prodh, cstack
 Tracked objects:
		On entry : 
		On exit  : 
		Unchanged: 
 Data sizes:     COMRAM   BANK0   BANK1   BANK2   BANK3   BANK4   BANK5   BANK6   BANK7   BANK8   BANK9  BANK10  BANK11  BANK12  BANK13
      Params:         0       0       4       0       0       0       0       0       0       0       0       0       0       0       0
      Locals:         0       0       4       0       0       0       0       0       0       0       0       0       0       0       0
      Temps:          0       0       0       0       0       0       0       0       0       0       0       0       0       0       0
      Totals:         0       0       8       0       0       0       0       0       0       0       0       0       0       0       0
Total ram usage:        8 bytes
 Hardware stack levels used:    1
 Hardware stack levels required when called:   13
 This function calls:
		i1___fladd
		i1___flneg
		i1_asin
 This function is called by:
		i1_OLED_updateCallback
 This function uses a non-reentrant model


 *************** function i1_asin *****************
 Defined at:
		line 9 in file "C:\Program Files (x86)\Microchip\xc8\v1.45\sources\common\asin.c"
 Parameters:    Size  Location     Type
  x               4  159[BANK1 ] PTR inline unsigned char
 Auto vars:     Size  Location     Type
  asin            4  175[BANK1 ] PTR inline unsigned char
  asin            4  163[BANK1 ] PTR inline unsigned char
 Return value:  Size  Location     Type
                  4  159[BANK1 ] PTR inline unsigned char
 Registers used:
		wreg, status,2, status,0, tblptrl, tblptrh, tblptru, prodl, prodh, cstack
 Tracked objects:
		On entry : 
		On exit  : 
		Unchanged: 
 Data sizes:     COMRAM   BANK0   BANK1   BANK2   BANK3   BANK4   BANK5   BANK6   BANK7   BANK8   BANK9  BANK10  BANK11  BANK12  BANK13
      Params:         0       0       4       0       0       0       0       0       0       0       0       0       0       0       0
      Locals:         0       0      20       0       0       0       0       0       0       0       0       0       0       0       0
      Temps:          0       0       0       0       0       0       0       0       0       0       0       0       0       0       0
      Totals:         0       0      24       0       0       0       0       0       0       0       0       0       0       0       0
Total ram usage:       24 bytes
 Hardware stack levels used:    1
 Hardware stack levels required when called:   12
 This function calls:
		i1___fladd
		i1___fldiv
		i1___flge
		i1___flmul
		i1___flneg
		i1_atan
		i1_fabs
		i1_sqrt
 This function is called by:
		i1_acos
 This function uses a non-reentrant model


 *************** function i1_sqrt *****************
 Defined at:
		line 9 in file "C:\Program Files (x86)\Microchip\xc8\v1.45\sources\common\sprcsqrt.c"
 Parameters:    Size  Location     Type
  a               4  122[BANK1 ] PTR inline unsigned char
 Auto vars:     Size  Location     Type
  sqrt            4  147[BANK1 ] unsigned long 
  sqrt            4  143[BANK1 ] struct .
  sqrt            4  137[BANK1 ] unsigned long 
  sqrt            4  132[BANK1 ] unsigned long 
  sqrt            2  141[BANK1 ] int 
  sqrt            1  136[BANK1 ] unsigned char 
  sqrt            1  131[BANK1 ] unsigned char 
  sqrt            1  130[BANK1 ] unsigned char 
 Return value:  Size  Location     Type
                  4  122[BANK1 ] unsigned char 
 Registers used:
		wreg, status,2, status,0
 Tracked objects:
		On entry : 
		On exit  : 
		Unchanged: 
 Data sizes:     COMRAM   BANK0   BANK1   BANK2   BANK3   BANK4   BANK5   BANK6   BANK7   BANK8   BANK9  BANK10  BANK11  BANK12  BANK13
      Params:         0       0       4       0       0       0       0       0       0       0       0       0       0       0       0
      Locals:         0       0      21       0       0       0       0       0       0       0       0       0       0       0       0
      Temps:          0       0       4       0       0       0       0       0       0       0       0       0       0       0       0
      Totals:         0       0      29       0       0       0       0       0       0       0       0       0       0       0       0
Total ram usage:       29 bytes
 Hardware stack levels used:    1
 Hardware stack levels required when called:    9
 This function calls:
		Nothing
 This function is called by:
		i1_asin
 This function uses a non-reentrant model


 *************** function i1_atan *****************
 Defined at:
		line 8 in file "C:\Program Files (x86)\Microchip\xc8\v1.45\sources\common\atan.c"
 Parameters:    Size  Location     Type
  f               4  138[BANK1 ] unsigned char 
 Auto vars:     Size  Location     Type
  atan            4  155[BANK1 ] unsigned char 
  atan            4  151[BANK1 ] unsigned char 
  atan            4  146[BANK1 ] unsigned char 
  atan            4  142[BANK1 ] unsigned char 
  atan            1  150[BANK1 ] unsigned char 
 Return value:  Size  Location     Type
                  4  138[BANK1 ] unsigned char 
 Registers used:
		wreg, status,2, status,0, tblptrl, tblptrh, tblptru, prodl, prodh, cstack
 Tracked objects:
		On entry : 
		On exit  : 
		Unchanged: 
 Data sizes:     COMRAM   BANK0   BANK1   BANK2   BANK3   BANK4   BANK5   BANK6   BANK7   BANK8   BANK9  BANK10  BANK11  BANK12  BANK13
      Params:         0       0       4       0       0       0       0       0       0       0       0       0       0       0       0
      Locals:         0       0      17       0       0       0       0       0       0       0       0       0       0       0       0
      Temps:          0       0       0       0       0       0       0       0       0       0       0       0       0       0       0
      Totals:         0       0      21       0       0       0       0       0       0       0       0       0       0       0       0
Total ram usage:       21 bytes
 Hardware stack levels used:    1
 Hardware stack levels required when called:   11
 This function calls:
		i1___fladd
		i1___fldiv
		i1___flge
		i1___flmul
		i1___flneg
		i1_eval_poly
		i1_fabs
 This function is called by:
		i1_asin
 This function uses a non-reentrant model


 *************** function i1_fabs *****************
 Defined at:
		line 4 in file "C:\Program Files (x86)\Microchip\xc8\v1.45\sources\common\fabs.c"
 Parameters:    Size  Location     Type
  d               4   52[BANK1 ] unsigned char 
 Auto vars:     Size  Location     Type
		None
 Return value:  Size  Location     Type
                  4   52[BANK1 ] unsigned char 
 Registers used:
		wreg, status,2, status,0, cstack
 Tracked objects:
		On entry : 
		On exit  : 
		Unchanged: 
 Data sizes:     COMRAM   BANK0   BANK1   BANK2   BANK3   BANK4   BANK5   BANK6   BANK7   BANK8   BANK9  BANK10  BANK11  BANK12  BANK13
      Params:         0       0       4       0       0       0       0       0       0       0       0       0       0       0       0
      Locals:         0       0       0       0       0       0       0       0       0       0       0       0       0       0       0
      Temps:          0       0       0       0       0       0       0       0       0       0       0       0       0       0       0
      Totals:         0       0       4       0       0       0       0       0       0       0       0       0       0       0       0
Total ram usage:        4 bytes
 Hardware stack levels used:    1
 Hardware stack levels required when called:   10
 This function calls:
		i1___flneg
 This function is called by:
		i1_asin
		i1_atan
 This function uses a non-reentrant model


 *************** function i1___flneg *****************
 Defined at:
		line 15 in file "C:\Program Files (x86)\Microchip\xc8\v1.45\sources\common\flneg.c"
 Parameters:    Size  Location     Type
  f1              4   48[BANK1 ] unsigned char 
 Auto vars:     Size  Location     Type
		None
 Return value:  Size  Location     Type
                  4   48[BANK1 ] unsigned char 
 Registers used:
		wreg, status,2, status,0
 Tracked objects:
		On entry : 
		On exit  : 
		Unchanged: 
 Data sizes:     COMRAM   BANK0   BANK1   BANK2   BANK3   BANK4   BANK5   BANK6   BANK7   BANK8   BANK9  BANK10  BANK11  BANK12  BANK13
      Params:         0       0       4       0       0       0       0       0       0       0       0       0       0       0       0
      Locals:         0       0       0       0       0       0       0       0       0       0       0       0       0       0       0
      Temps:          0       0       0       0       0       0       0       0       0       0       0       0       0       0       0
      Totals:         0       0       4       0       0       0       0       0       0       0       0       0       0       0       0
Total ram usage:        4 bytes
 Hardware stack levels used:    1
 Hardware stack levels required when called:    9
 This function calls:
		Nothing
 This function is called by:
		i1_OLED_updateCallback
		i1__doprnt
		i1_acos
		i1_asin
		i1_atan
		i1_fabs
		i1_round
 This function uses a non-reentrant model


 *************** function i1_eval_poly *****************
 Defined at:
		line 4 in file "C:\Program Files (x86)\Microchip\xc8\v1.45\sources\common\evalpoly.c"
 Parameters:    Size  Location     Type
  x               4  122[BANK1 ] unsigned char 
  d               2  126[BANK1 ] PTR const 
		 -> sin@coeff_a(20), sin@coeff_b(16), atan@coeff_a(24), atan@coeff_b(20), 
  n               2  128[BANK1 ] int 
 Auto vars:     Size  Location     Type
  eval_poly       4  134[BANK1 ] int 
 Return value:  Size  Location     Type
                  4  122[BANK1 ] int 
 Registers used:
		wreg, status,2, status,0, tblptrl, tblptrh, tblptru, prodl, prodh, cstack
 Tracked objects:
		On entry : 
		On exit  : 
		Unchanged: 
 Data sizes:     COMRAM   BANK0   BANK1   BANK2   BANK3   BANK4   BANK5   BANK6   BANK7   BANK8   BANK9  BANK10  BANK11  BANK12  BANK13
      Params:         0       0       8       0       0       0       0       0       0       0       0       0       0       0       0
      Locals:         0       0       4       0       0       0       0       0       0       0       0       0       0       0       0
      Temps:          0       0       4       0       0       0       0       0       0       0       0       0       0       0       0
      Totals:         0       0      16       0       0       0       0       0       0       0       0       0       0       0       0
Total ram usage:       16 bytes
 Hardware stack levels used:    1
 Hardware stack levels required when called:   10
 This function calls:
		i1___fladd
		i1___flmul
 This function is called by:
		i1_atan
 This function uses a non-reentrant model


 *************** function i1___flmul *****************
 Defined at:
		line 8 in file "C:\Program Files (x86)\Microchip\xc8\v1.45\sources\common\sprcmul.c"
 Parameters:    Size  Location     Type
  b               4   97[BANK1 ] int 
  a               4  101[BANK1 ] int 
 Auto vars:     Size  Location     Type
  __flmul         4  116[BANK1 ] struct .
  __flmul         4  111[BANK1 ] unsigned long 
  __flmul         2  120[BANK1 ] struct .
  __flmul         1  115[BANK1 ] unsigned char 
  __flmul         1  110[BANK1 ] unsigned char 
  __flmul         1  109[BANK1 ] unsigned char 
 Return value:  Size  Location     Type
                  4   97[BANK1 ] unsigned char 
 Registers used:
		wreg, status,2, status,0, prodl, prodh
 Tracked objects:
		On entry : 
		On exit  : 
		Unchanged: 
 Data sizes:     COMRAM   BANK0   BANK1   BANK2   BANK3   BANK4   BANK5   BANK6   BANK7   BANK8   BANK9  BANK10  BANK11  BANK12  BANK13
      Params:         0       0       8       0       0       0       0       0       0       0       0       0       0       0       0
      Locals:         0       0      13       0       0       0       0       0       0       0       0       0       0       0       0
      Temps:          0       0       4       0       0       0       0       0       0       0       0       0       0       0       0
      Totals:         0       0      25       0       0       0       0       0       0       0       0       0       0       0       0
Total ram usage:       25 bytes
 Hardware stack levels used:    1
 Hardware stack levels required when called:    9
 This function calls:
		Nothing
 This function is called by:
		i1_OLED_updateCallback
		i1_fround
		i1_scale
		i1__doprnt
		i1_asin
		i1_atan
		i1_eval_poly
 This function uses a non-reentrant model


 *************** function i1___fladd *****************
 Defined at:
		line 10 in file "C:\Program Files (x86)\Microchip\xc8\v1.45\sources\common\sprcadd.c"
 Parameters:    Size  Location     Type
  b               4   52[BANK1 ] unsigned char 
  a               4   56[BANK1 ] unsigned char 
 Auto vars:     Size  Location     Type
  __fladd         1   71[BANK1 ] unsigned char 
  __fladd         1   70[BANK1 ] unsigned char 
  __fladd         1   69[BANK1 ] unsigned char 
  __fladd         1   68[BANK1 ] unsigned char 
 Return value:  Size  Location     Type
                  4   52[BANK1 ] unsigned char 
 Registers used:
		wreg, status,2, status,0
 Tracked objects:
		On entry : 
		On exit  : 
		Unchanged: 
 Data sizes:     COMRAM   BANK0   BANK1   BANK2   BANK3   BANK4   BANK5   BANK6   BANK7   BANK8   BANK9  BANK10  BANK11  BANK12  BANK13
      Params:         0       0       8       0       0       0       0       0       0       0       0       0       0       0       0
      Locals:         0       0       4       0       0       0       0       0       0       0       0       0       0       0       0
      Temps:          0       0       8       0       0       0       0       0       0       0       0       0       0       0       0
      Totals:         0       0      20       0       0       0       0       0       0       0       0       0       0       0       0
Total ram usage:       20 bytes
 Hardware stack levels used:    1
 Hardware stack levels required when called:    9
 This function calls:
		Nothing
 This function is called by:
		i1_OLED_updateCallback
		i1__doprnt
		i1_acos
		i1_asin
		i1_atan
		i1_eval_poly
		i1_round
		i1___flsub
 This function uses a non-reentrant model


 *************** function i1___flge *****************
 Defined at:
		line 4 in file "C:\Program Files (x86)\Microchip\xc8\v1.45\sources\common\flge.c"
 Parameters:    Size  Location     Type
  ff1             4   72[BANK1 ] unsigned char 
  ff2             4   76[BANK1 ] unsigned char 
 Auto vars:     Size  Location     Type
		None
 Return value:  Size  Location     Type
		None               void
 Registers used:
		wreg, status,2, status,0
 Tracked objects:
		On entry : 
		On exit  : 
		Unchanged: 
 Data sizes:     COMRAM   BANK0   BANK1   BANK2   BANK3   BANK4   BANK5   BANK6   BANK7   BANK8   BANK9  BANK10  BANK11  BANK12  BANK13
      Params:         0       0       8       0       0       0       0       0       0       0       0       0       0       0       0
      Locals:         0       0       0       0       0       0       0       0       0       0       0       0       0       0       0
      Temps:          0       0       4       0       0       0       0       0       0       0       0       0       0       0       0
      Totals:         0       0      12       0       0       0       0       0       0       0       0       0       0       0       0
Total ram usage:       12 bytes
 Hardware stack levels used:    1
 Hardware stack levels required when called:    9
 This function calls:
		Nothing
 This function is called by:
		i1_OLED_updateCallback
		i1__doprnt
		i1_asin
		i1_atan
 This function uses a non-reentrant model


 *************** function i1___fldiv *****************
 Defined at:
		line 11 in file "C:\Program Files (x86)\Microchip\xc8\v1.45\sources\common\sprcdiv.c"
 Parameters:    Size  Location     Type
  b               4   72[BANK1 ] unsigned char 
  a               4   76[BANK1 ] unsigned char 
 Auto vars:     Size  Location     Type
  __fldiv         4   91[BANK1 ] unsigned long 
  __fldiv         4   85[BANK1 ] unsigned long 
  __fldiv         2   89[BANK1 ] int 
  __fldiv         1   96[BANK1 ] unsigned char 
  __fldiv         1   95[BANK1 ] unsigned char 
  __fldiv         1   84[BANK1 ] unsigned char 
 Return value:  Size  Location     Type
                  4   72[BANK1 ] unsigned char 
 Registers used:
		wreg, status,2, status,0
 Tracked objects:
		On entry : 
		On exit  : 
		Unchanged: 
 Data sizes:     COMRAM   BANK0   BANK1   BANK2   BANK3   BANK4   BANK5   BANK6   BANK7   BANK8   BANK9  BANK10  BANK11  BANK12  BANK13
      Params:         0       0       8       0       0       0       0       0       0       0       0       0       0       0       0
      Locals:         0       0      13       0       0       0       0       0       0       0       0       0       0       0       0
      Temps:          0       0       4       0       0       0       0       0       0       0       0       0       0       0       0
      Totals:         0       0      25       0       0       0       0       0       0       0       0       0       0       0       0
Total ram usage:       25 bytes
 Hardware stack levels used:    1
 Hardware stack levels required when called:    9
 This function calls:
		Nothing
 This function is called by:
		i1_OLED_updateCallback
		i1__doprnt
		i1_asin
		i1_atan
 This function uses a non-reentrant model


 *************** function i1___lwtoft *****************
 Defined at:
		line 28 in file "C:\Program Files (x86)\Microchip\xc8\v1.45\sources\common\lwtoft.c"
 Parameters:    Size  Location     Type
  c               2    8[BANK1 ] unsigned int 
 Auto vars:     Size  Location     Type
		None
 Return value:  Size  Location     Type
                  3    8[BANK1 ] float 
 Registers used:
		wreg, status,2, status,0, cstack
 Tracked objects:
		On entry : 
		On exit  : 
		Unchanged: 
 Data sizes:     COMRAM   BANK0   BANK1   BANK2   BANK3   BANK4   BANK5   BANK6   BANK7   BANK8   BANK9  BANK10  BANK11  BANK12  BANK13
      Params:         0       0       3       0       0       0       0       0       0       0       0       0       0       0       0
      Locals:         0       0       0       0       0       0       0       0       0       0       0       0       0       0       0
      Temps:          0       0       0       0       0       0       0       0       0       0       0       0       0       0       0
      Totals:         0       0       3       0       0       0       0       0       0       0       0       0       0       0       0
Total ram usage:        3 bytes
 Hardware stack levels used:    1
 Hardware stack levels required when called:   10
 This function calls:
		i1___ftpack
 This function is called by:
		i1_OLED_updateCallback
 This function uses a non-reentrant model


 *************** function i1___ftdiv *****************
 Defined at:
		line 54 in file "C:\Program Files (x86)\Microchip\xc8\v1.45\sources\common\ftdiv.c"
 Parameters:    Size  Location     Type
  f1              3   11[BANK1 ] float 
  f2              3   14[BANK1 ] float 
 Auto vars:     Size  Location     Type
  __ftdiv         3   21[BANK1 ] float 
  __ftdiv         1   25[BANK1 ] unsigned char 
  __ftdiv         1   24[BANK1 ] unsigned char 
  __ftdiv         1   20[BANK1 ] unsigned char 
 Return value:  Size  Location     Type
                  3   11[BANK1 ] float 
 Registers used:
		wreg, status,2, status,0, cstack
 Tracked objects:
		On entry : 
		On exit  : 
		Unchanged: 
 Data sizes:     COMRAM   BANK0   BANK1   BANK2   BANK3   BANK4   BANK5   BANK6   BANK7   BANK8   BANK9  BANK10  BANK11  BANK12  BANK13
      Params:         0       0       6       0       0       0       0       0       0       0       0       0       0       0       0
      Locals:         0       0       6       0       0       0       0       0       0       0       0       0       0       0       0
      Temps:          0       0       3       0       0       0       0       0       0       0       0       0       0       0       0
      Totals:         0       0      15       0       0       0       0       0       0       0       0       0       0       0       0
Total ram usage:       15 bytes
 Hardware stack levels used:    1
 Hardware stack levels required when called:   10
 This function calls:
		i1___ftpack
 This function is called by:
		i1_OLED_updateCallback
 This function uses a non-reentrant model


 *************** function i1___ftpack *****************
 Defined at:
		line 62 in file "C:\Program Files (x86)\Microchip\xc8\v1.45\sources\common\float.c"
 Parameters:    Size  Location     Type
  arg             3    0[BANK1 ] unsigned um
  exp             1    3[BANK1 ] unsigned char 
  sign            1    4[BANK1 ] unsigned char 
 Auto vars:     Size  Location     Type
		None
 Return value:  Size  Location     Type
                  3    0[BANK1 ] float 
 Registers used:
		wreg, status,2, status,0
 Tracked objects:
		On entry : 
		On exit  : 
		Unchanged: 
 Data sizes:     COMRAM   BANK0   BANK1   BANK2   BANK3   BANK4   BANK5   BANK6   BANK7   BANK8   BANK9  BANK10  BANK11  BANK12  BANK13
      Params:         0       0       5       0       0       0       0       0       0       0       0       0       0       0       0
      Locals:         0       0       0       0       0       0       0       0       0       0       0       0       0       0       0
      Temps:          0       0       3       0       0       0       0       0       0       0       0       0       0       0       0
      Totals:         0       0       8       0       0       0       0       0       0       0       0       0       0       0       0
Total ram usage:        8 bytes
 Hardware stack levels used:    1
 Hardware stack levels required when called:    9
 This function calls:
		Nothing
 This function is called by:
		i1___ftdiv
		i1___lwtoft
 This function uses a non-reentrant model


 *************** function i1_TMR2_WriteTimer *****************
 Defined at:
		line 150 in file "mcc_generated_files/tmr2.c"
 Parameters:    Size  Location     Type
  timerVal        1    wreg     unsigned char 
 Auto vars:     Size  Location     Type
  timerVal        1    1[BANK1 ] unsigned char 
 Return value:  Size  Location     Type
                  1    wreg      void 
 Registers used:
		wreg, status,2, cstack
 Tracked objects:
		On entry : 
		On exit  : 
		Unchanged: 
 Data sizes:     COMRAM   BANK0   BANK1   BANK2   BANK3   BANK4   BANK5   BANK6   BANK7   BANK8   BANK9  BANK10  BANK11  BANK12  BANK13
      Params:         0       0       0       0       0       0       0       0       0       0       0       0       0       0       0
      Locals:         0       0       1       0       0       0       0       0       0       0       0       0       0       0       0
      Temps:          0       0       0       0       0       0       0       0       0       0       0       0       0       0       0
      Totals:         0       0       1       0       0       0       0       0       0       0       0       0       0       0       0
Total ram usage:        1 bytes
 Hardware stack levels used:    1
 Hardware stack levels required when called:   10
 This function calls:
		i1_TMR2_Counter8BitSet
 This function is called by:
		i1_OLED_updateCallback
 This function uses a non-reentrant model


 *************** function i1_TMR2_Counter8BitSet *****************
 Defined at:
		line 144 in file "mcc_generated_files/tmr2.c"
 Parameters:    Size  Location     Type
  timerVal        1    wreg     unsigned char 
 Auto vars:     Size  Location     Type
  timerVal        1    0[BANK1 ] unsigned char 
 Return value:  Size  Location     Type
                  1    wreg      void 
 Registers used:
		wreg
 Tracked objects:
		On entry : 
		On exit  : 
		Unchanged: 
 Data sizes:     COMRAM   BANK0   BANK1   BANK2   BANK3   BANK4   BANK5   BANK6   BANK7   BANK8   BANK9  BANK10  BANK11  BANK12  BANK13
      Params:         0       0       0       0       0       0       0       0       0       0       0       0       0       0       0
      Locals:         0       0       1       0       0       0       0       0       0       0       0       0       0       0       0
      Temps:          0       0       0       0       0       0       0       0       0       0       0       0       0       0       0
      Totals:         0       0       1       0       0       0       0       0       0       0       0       0       0       0       0
Total ram usage:        1 bytes
 Hardware stack levels used:    1
 Hardware stack levels required when called:    9
 This function calls:
		Nothing
 This function is called by:
		i1_TMR2_WriteTimer
 This function uses a non-reentrant model


 *************** function i1_TMR2_StopTimer *****************
 Defined at:
		line 125 in file "mcc_generated_files/tmr2.c"
 Parameters:    Size  Location     Type
		None
 Auto vars:     Size  Location     Type
		None
 Return value:  Size  Location     Type
                  1    wreg      void 
 Registers used:
		cstack
 Tracked objects:
		On entry : 
		On exit  : 
		Unchanged: 
 Data sizes:     COMRAM   BANK0   BANK1   BANK2   BANK3   BANK4   BANK5   BANK6   BANK7   BANK8   BANK9  BANK10  BANK11  BANK12  BANK13
      Params:         0       0       0       0       0       0       0       0       0       0       0       0       0       0       0
      Locals:         0       0       0       0       0       0       0       0       0       0       0       0       0       0       0
      Temps:          0       0       0       0       0       0       0       0       0       0       0       0       0       0       0
      Totals:         0       0       0       0       0       0       0       0       0       0       0       0       0       0       0
Total ram usage:        0 bytes
 Hardware stack levels used:    1
 Hardware stack levels required when called:   10
 This function calls:
		i1_TMR2_Stop
 This function is called by:
		i1_OLED_updateCallback
 This function uses a non-reentrant model


 *************** function i1_TMR2_Stop *****************
 Defined at:
		line 119 in file "mcc_generated_files/tmr2.c"
 Parameters:    Size  Location     Type
		None
 Auto vars:     Size  Location     Type
		None
 Return value:  Size  Location     Type
                  1    wreg      void 
 Registers used:
		None
 Tracked objects:
		On entry : 
		On exit  : 
		Unchanged: 
 Data sizes:     COMRAM   BANK0   BANK1   BANK2   BANK3   BANK4   BANK5   BANK6   BANK7   BANK8   BANK9  BANK10  BANK11  BANK12  BANK13
      Params:         0       0       0       0       0       0       0       0       0       0       0       0       0       0       0
      Locals:         0       0       0       0       0       0       0       0       0       0       0       0       0       0       0
      Temps:          0       0       0       0       0       0       0       0       0       0       0       0       0       0       0
      Totals:         0       0       0       0       0       0       0       0       0       0       0       0       0       0       0
Total ram usage:        0 bytes
 Hardware stack levels used:    1
 Hardware stack levels required when called:    9
 This function calls:
		Nothing
 This function is called by:
		i1_TMR2_StopTimer
 This function uses a non-reentrant model


 *************** function i1_TMR2_StartTimer *****************
 Defined at:
		line 114 in file "mcc_generated_files/tmr2.c"
 Parameters:    Size  Location     Type
		None
 Auto vars:     Size  Location     Type
		None
 Return value:  Size  Location     Type
                  1    wreg      void 
 Registers used:
		cstack
 Tracked objects:
		On entry : 
		On exit  : 
		Unchanged: 
 Data sizes:     COMRAM   BANK0   BANK1   BANK2   BANK3   BANK4   BANK5   BANK6   BANK7   BANK8   BANK9  BANK10  BANK11  BANK12  BANK13
      Params:         0       0       0       0       0       0       0       0       0       0       0       0       0       0       0
      Locals:         0       0       0       0       0       0       0       0       0       0       0       0       0       0       0
      Temps:          0       0       0       0       0       0       0       0       0       0       0       0       0       0       0
      Totals:         0       0       0       0       0       0       0       0       0       0       0       0       0       0       0
Total ram usage:        0 bytes
 Hardware stack levels used:    1
 Hardware stack levels required when called:   10
 This function calls:
		i1_TMR2_Start
 This function is called by:
		i1_OLED_updateCallback
 This function uses a non-reentrant model


 *************** function i1_TMR2_Start *****************
 Defined at:
		line 108 in file "mcc_generated_files/tmr2.c"
 Parameters:    Size  Location     Type
		None
 Auto vars:     Size  Location     Type
		None
 Return value:  Size  Location     Type
                  1    wreg      void 
 Registers used:
		None
 Tracked objects:
		On entry : 
		On exit  : 
		Unchanged: 
 Data sizes:     COMRAM   BANK0   BANK1   BANK2   BANK3   BANK4   BANK5   BANK6   BANK7   BANK8   BANK9  BANK10  BANK11  BANK12  BANK13
      Params:         0       0       0       0       0       0       0       0       0       0       0       0       0       0       0
      Locals:         0       0       0       0       0       0       0       0       0       0       0       0       0       0       0
      Temps:          0       0       0       0       0       0       0       0       0       0       0       0       0       0       0
      Totals:         0       0       0       0       0       0       0       0       0       0       0       0       0       0       0
Total ram usage:        0 bytes
 Hardware stack levels used:    1
 Hardware stack levels required when called:    9
 This function calls:
		Nothing
 This function is called by:
		i1_TMR2_StartTimer
 This function uses a non-reentrant model


 *************** function i1_TMR2_Period8BitSet *****************
 Defined at:
		line 155 in file "mcc_generated_files/tmr2.c"
 Parameters:    Size  Location     Type
  periodVal       1    wreg     unsigned char 
 Auto vars:     Size  Location     Type
  periodVal       1    0[BANK1 ] unsigned char 
 Return value:  Size  Location     Type
                  1    wreg      void 
 Registers used:
		wreg
 Tracked objects:
		On entry : 
		On exit  : 
		Unchanged: 
 Data sizes:     COMRAM   BANK0   BANK1   BANK2   BANK3   BANK4   BANK5   BANK6   BANK7   BANK8   BANK9  BANK10  BANK11  BANK12  BANK13
      Params:         0       0       0       0       0       0       0       0       0       0       0       0       0       0       0
      Locals:         0       0       1       0       0       0       0       0       0       0       0       0       0       0       0
      Temps:          0       0       0       0       0       0       0       0       0       0       0       0       0       0       0
      Totals:         0       0       1       0       0       0       0       0       0       0       0       0       0       0       0
Total ram usage:        1 bytes
 Hardware stack levels used:    1
 Hardware stack levels required when called:    9
 This function calls:
		Nothing
 This function is called by:
		i1_OLED_updateCallback
 This function uses a non-reentrant model


 *************** function i1_OLED_UpdateFromRAMBuffer *****************
 Defined at:
		line 313 in file "oled.c"
 Parameters:    Size  Location     Type
		None
 Auto vars:     Size  Location     Type
		None
 Return value:  Size  Location     Type
                  1    wreg      void 
 Registers used:
		wreg, fsr0l, fsr0h, fsr2l, fsr2h, status,2, status,0, tblptrl, tblptrh, tblptru, prodl, prodh, cstack
 Tracked objects:
		On entry : 
		On exit  : 
		Unchanged: 
 Data sizes:     COMRAM   BANK0   BANK1   BANK2   BANK3   BANK4   BANK5   BANK6   BANK7   BANK8   BANK9  BANK10  BANK11  BANK12  BANK13
      Params:         0       0       0       0       0       0       0       0       0       0       0       0       0       0       0
      Locals:         0       0       0       0       0       0       0       0       0       0       0       0       0       0       0
      Temps:          0       0       0       0       0       0       0       0       0       0       0       0       0       0       0
      Totals:         0       0       0       0       0       0       0       0       0       0       0       0       0       0       0
Total ram usage:        0 bytes
 Hardware stack levels used:    1
 Hardware stack levels required when called:   14
 This function calls:
		i1_OLED_Clear
		i1_OLED_WriteString
		i1_OLED_YX
 This function is called by:
		i1_OLED_updateCallback
 This function uses a non-reentrant model


 *************** function i1_OLED_YX *****************
 Defined at:
		line 220 in file "oled.c"
 Parameters:    Size  Location     Type
  Row             1    wreg     unsigned char 
  Column          1   20[BANK1 ] unsigned char 
 Auto vars:     Size  Location     Type
  Row             1   22[BANK1 ] unsigned char 
 Return value:  Size  Location     Type
                  1    wreg      void 
 Registers used:
		wreg, fsr2l, fsr2h, status,2, status,0, prodl, prodh, cstack
 Tracked objects:
		On entry : 
		On exit  : 
		Unchanged: 
 Data sizes:     COMRAM   BANK0   BANK1   BANK2   BANK3   BANK4   BANK5   BANK6   BANK7   BANK8   BANK9  BANK10  BANK11  BANK12  BANK13
      Params:         0       0       1       0       0       0       0       0       0       0       0       0       0       0       0
      Locals:         0       0       1       0       0       0       0       0       0       0       0       0       0       0       0
      Temps:          0       0       1       0       0       0       0       0       0       0       0       0       0       0       0
      Totals:         0       0       3       0       0       0       0       0       0       0       0       0       0       0       0
Total ram usage:        3 bytes
 Hardware stack levels used:    1
 Hardware stack levels required when called:   13
 This function calls:
		i1_OLED_Command
 This function is called by:
		i1_OLED_UpdateFromRAMBuffer
 This function uses a non-reentrant model


 *************** function i1_OLED_Command *****************
 Defined at:
		line 110 in file "oled.c"
 Parameters:    Size  Location     Type
  temp            1    wreg     unsigned char 
 Auto vars:     Size  Location     Type
  temp            1   18[BANK1 ] unsigned char 
  OLED_Command    2   16[BANK1 ] unsigned char [2]
  OLED_Command    1   19[BANK1 ] unsigned char 
 Return value:  Size  Location     Type
                  1    wreg      void 
 Registers used:
		wreg, fsr2l, fsr2h, status,2, status,0, cstack
 Tracked objects:
		On entry : 
		On exit  : 
		Unchanged: 
 Data sizes:     COMRAM   BANK0   BANK1   BANK2   BANK3   BANK4   BANK5   BANK6   BANK7   BANK8   BANK9  BANK10  BANK11  BANK12  BANK13
      Params:         0       0       0       0       0       0       0       0       0       0       0       0       0       0       0
      Locals:         0       0       4       0       0       0       0       0       0       0       0       0       0       0       0
      Temps:          0       0       0       0       0       0       0       0       0       0       0       0       0       0       0
      Totals:         0       0       4       0       0       0       0       0       0       0       0       0       0       0       0
Total ram usage:        4 bytes
 Hardware stack levels used:    1
 Hardware stack levels required when called:   12
 This function calls:
		i1_I2C1_MasterWrite
 This function is called by:
		i1_OLED_YX
 This function uses a non-reentrant model


 *************** function i1_OLED_WriteString *****************
 Defined at:
		line 281 in file "oled.c"
 Parameters:    Size  Location     Type
  s               2   33[BANK1 ] PTR unsigned char 
		 -> ftoa@buf(17), STR_341(1), STR_340(1), OLED_WriteInteger@s(20), 
		 -> OLED_RAM_Buffer(68), 
 Auto vars:     Size  Location     Type
		None
 Return value:  Size  Location     Type
                  1    wreg      void 
 Registers used:
		wreg, fsr0l, fsr0h, fsr2l, fsr2h, status,2, status,0, tblptrl, tblptrh, tblptru, cstack
 Tracked objects:
		On entry : 
		On exit  : 
		Unchanged: 
 Data sizes:     COMRAM   BANK0   BANK1   BANK2   BANK3   BANK4   BANK5   BANK6   BANK7   BANK8   BANK9  BANK10  BANK11  BANK12  BANK13
      Params:         0       0       2       0       0       0       0       0       0       0       0       0       0       0       0
      Locals:         0       0       0       0       0       0       0       0       0       0       0       0       0       0       0
      Temps:          0       0       0       0       0       0       0       0       0       0       0       0       0       0       0
      Totals:         0       0       2       0       0       0       0       0       0       0       0       0       0       0       0
Total ram usage:        2 bytes
 Hardware stack levels used:    1
 Hardware stack levels required when called:   13
 This function calls:
		i1_OLED_PutChar
 This function is called by:
		i1_OLED_UpdateFromRAMBuffer
 This function uses a non-reentrant model


 *************** function i1_OLED_Clear *****************
 Defined at:
		line 266 in file "oled.c"
 Parameters:    Size  Location     Type
		None
 Auto vars:     Size  Location     Type
  OLED_Clear      2   35[BANK1 ] unsigned int 
  OLED_Clear      2   33[BANK1 ] unsigned int 
 Return value:  Size  Location     Type
                  1    wreg      void 
 Registers used:
		wreg, fsr2l, fsr2h, status,2, status,0, tblptrl, tblptrh, tblptru, cstack
 Tracked objects:
		On entry : 
		On exit  : 
		Unchanged: 
 Data sizes:     COMRAM   BANK0   BANK1   BANK2   BANK3   BANK4   BANK5   BANK6   BANK7   BANK8   BANK9  BANK10  BANK11  BANK12  BANK13
      Params:         0       0       0       0       0       0       0       0       0       0       0       0       0       0       0
      Locals:         0       0       4       0       0       0       0       0       0       0       0       0       0       0       0
      Temps:          0       0       0       0       0       0       0       0       0       0       0       0       0       0       0
      Totals:         0       0       4       0       0       0       0       0       0       0       0       0       0       0       0
Total ram usage:        4 bytes
 Hardware stack levels used:    1
 Hardware stack levels required when called:   13
 This function calls:
		i1_OLED_PutChar
 This function is called by:
		i1_OLED_UpdateFromRAMBuffer
 This function uses a non-reentrant model


 *************** function i1_OLED_PutChar *****************
 Defined at:
		line 231 in file "oled.c"
 Parameters:    Size  Location     Type
  ch              1    wreg     unsigned char 
 Auto vars:     Size  Location     Type
  ch              1   32[BANK1 ] unsigned char 
  OLED_PutChar    9   20[BANK1 ] unsigned char [9]
  OLED_PutChar    2   29[BANK1 ] PTR const unsigned char 
		 -> OledFont(768), 
  OLED_PutChar    1   31[BANK1 ] unsigned char 
 Return value:  Size  Location     Type
                  1    wreg      void 
 Registers used:
		wreg, fsr2l, fsr2h, status,2, status,0, tblptrl, tblptrh, tblptru, cstack
 Tracked objects:
		On entry : 
		On exit  : 
		Unchanged: 
 Data sizes:     COMRAM   BANK0   BANK1   BANK2   BANK3   BANK4   BANK5   BANK6   BANK7   BANK8   BANK9  BANK10  BANK11  BANK12  BANK13
      Params:         0       0       0       0       0       0       0       0       0       0       0       0       0       0       0
      Locals:         0       0      13       0       0       0       0       0       0       0       0       0       0       0       0
      Temps:          0       0       4       0       0       0       0       0       0       0       0       0       0       0       0
      Totals:         0       0      17       0       0       0       0       0       0       0       0       0       0       0       0
Total ram usage:       17 bytes
 Hardware stack levels used:    1
 Hardware stack levels required when called:   12
 This function calls:
		i1_I2C1_MasterWrite
		i1_memmove
 This function is called by:
		i1_OLED_Clear
		i1_OLED_WriteString
 This function uses a non-reentrant model


 *************** function i1_memmove *****************
 Defined at:
		line 8 in file "C:\Program Files (x86)\Microchip\xc8\v1.45\sources\common\memmove.c"
 Parameters:    Size  Location     Type
  d1              2    0[BANK1 ] PTR void 
		 -> OLED_PutChar@data_array(9), 
  s1              2    2[BANK1 ] PTR const void 
		 -> OledFont(768), 
  n               2    4[BANK1 ] unsigned int 
 Auto vars:     Size  Location     Type
  memmove         2   10[BANK1 ] PTR const unsigned char 
		 -> OledFont(768), 
  memmove         2    8[BANK1 ] PTR unsigned char 
		 -> OLED_PutChar@data_array(9), 
 Return value:  Size  Location     Type
                  2    0[BANK1 ] PTR void 
 Registers used:
		wreg, fsr2l, fsr2h, status,2, status,0, tblptrl, tblptrh, tblptru
 Tracked objects:
		On entry : 
		On exit  : 
		Unchanged: 
 Data sizes:     COMRAM   BANK0   BANK1   BANK2   BANK3   BANK4   BANK5   BANK6   BANK7   BANK8   BANK9  BANK10  BANK11  BANK12  BANK13
      Params:         0       0       6       0       0       0       0       0       0       0       0       0       0       0       0
      Locals:         0       0       4       0       0       0       0       0       0       0       0       0       0       0       0
      Temps:          0       0       2       0       0       0       0       0       0       0       0       0       0       0       0
      Totals:         0       0      12       0       0       0       0       0       0       0       0       0       0       0       0
Total ram usage:       12 bytes
 Hardware stack levels used:    1
 Hardware stack levels required when called:    9
 This function calls:
		Nothing
 This function is called by:
		i1_OLED_PutChar
 This function uses a non-reentrant model


 *************** function i1_I2C1_MasterWrite *****************
 Defined at:
		line 600 in file "mcc_generated_files/i2c1.c"
 Parameters:    Size  Location     Type
  pdata           2    9[BANK1 ] PTR unsigned char 
		 -> OLED_PutChar@data_array(9), OLED_Data@data_array(2), OLED_Command@data_array(2), 
  length          1   11[BANK1 ] unsigned char 
  address         2   12[BANK1 ] unsigned int 
  pflag           2   14[BANK1 ] PTR enum E17311
		 -> OLED_I2C_Status(1), 
 Auto vars:     Size  Location     Type
		None
 Return value:  Size  Location     Type
                  1    wreg      void 
 Registers used:
		wreg, fsr2l, fsr2h, status,2, status,0, cstack
 Tracked objects:
		On entry : 
		On exit  : 
		Unchanged: 
 Data sizes:     COMRAM   BANK0   BANK1   BANK2   BANK3   BANK4   BANK5   BANK6   BANK7   BANK8   BANK9  BANK10  BANK11  BANK12  BANK13
      Params:         0       0       7       0       0       0       0       0       0       0       0       0       0       0       0
      Locals:         0       0       0       0       0       0       0       0       0       0       0       0       0       0       0
      Temps:          0       0       0       0       0       0       0       0       0       0       0       0       0       0       0
      Totals:         0       0       7       0       0       0       0       0       0       0       0       0       0       0       0
Total ram usage:        7 bytes
 Hardware stack levels used:    1
 Hardware stack levels required when called:   11
 This function calls:
		i1_I2C1_MasterTRBInsert
		i1_I2C1_MasterWriteTRBBuild
 This function is called by:
		i1_OLED_Command
		i1_OLED_PutChar
 This function uses a non-reentrant model


 *************** function i1_I2C1_MasterWriteTRBBuild *****************
 Defined at:
		line 721 in file "mcc_generated_files/i2c1.c"
 Parameters:    Size  Location     Type
  ptrb            2    0[BANK1 ] PTR struct .
		 -> I2C1_MasterWrite@trBlock(5), 
  pdata           2    2[BANK1 ] PTR unsigned char 
		 -> OLED_PutChar@data_array(9), OLED_Data@data_array(2), OLED_Command@data_array(2), 
  length          1    4[BANK1 ] unsigned char 
  address         2    5[BANK1 ] unsigned int 
 Auto vars:     Size  Location     Type
		None
 Return value:  Size  Location     Type
                  1    wreg      void 
 Registers used:
		wreg, fsr2l, fsr2h, status,2, status,0
 Tracked objects:
		On entry : 
		On exit  : 
		Unchanged: 
 Data sizes:     COMRAM   BANK0   BANK1   BANK2   BANK3   BANK4   BANK5   BANK6   BANK7   BANK8   BANK9  BANK10  BANK11  BANK12  BANK13
      Params:         0       0       7       0       0       0       0       0       0       0       0       0       0       0       0
      Locals:         0       0       0       0       0       0       0       0       0       0       0       0       0       0       0
      Temps:          0       0       2       0       0       0       0       0       0       0       0       0       0       0       0
      Totals:         0       0       9       0       0       0       0       0       0       0       0       0       0       0       0
Total ram usage:        9 bytes
 Hardware stack levels used:    1
 Hardware stack levels required when called:    9
 This function calls:
		Nothing
 This function is called by:
		i1_I2C1_MasterWrite
 This function uses a non-reentrant model


 *************** function i1_I2C1_MasterTRBInsert *****************
 Defined at:
		line 654 in file "mcc_generated_files/i2c1.c"
 Parameters:    Size  Location     Type
  count           1    wreg     unsigned char 
  ptrb_list       2    0[BANK1 ] PTR struct .
		 -> I2C1_MasterRead@trBlock(5), I2C1_MasterWrite@trBlock(5), 
  pflag           2    2[BANK1 ] PTR enum E17311
		 -> OLED_I2C_Status(1), 
 Auto vars:     Size  Location     Type
  count           1    5[BANK1 ] unsigned char 
 Return value:  Size  Location     Type
                  1    wreg      void 
 Registers used:
		wreg, fsr2l, fsr2h, status,2, status,0, cstack
 Tracked objects:
		On entry : 
		On exit  : 
		Unchanged: 
 Data sizes:     COMRAM   BANK0   BANK1   BANK2   BANK3   BANK4   BANK5   BANK6   BANK7   BANK8   BANK9  BANK10  BANK11  BANK12  BANK13
      Params:         0       0       4       0       0       0       0       0       0       0       0       0       0       0       0
      Locals:         0       0       1       0       0       0       0       0       0       0       0       0       0       0       0
      Temps:          0       0       1       0       0       0       0       0       0       0       0       0       0       0       0
      Totals:         0       0       6       0       0       0       0       0       0       0       0       0       0       0       0
Total ram usage:        6 bytes
 Hardware stack levels used:    1
 Hardware stack levels required when called:   10
 This function calls:
		i1_I2C1_WaitForLastPacketToComplete
 This function is called by:
		i1_I2C1_MasterWrite
 This function uses a non-reentrant model


 *************** function i1_I2C1_WaitForLastPacketToComplete *****************
 Defined at:
		line 644 in file "mcc_generated_files/i2c1.c"
 Parameters:    Size  Location     Type
		None
 Auto vars:     Size  Location     Type
		None
 Return value:  Size  Location     Type
                  1    wreg      void 
 Registers used:
		wreg, status,2
 Tracked objects:
		On entry : 
		On exit  : 
		Unchanged: 
 Data sizes:     COMRAM   BANK0   BANK1   BANK2   BANK3   BANK4   BANK5   BANK6   BANK7   BANK8   BANK9  BANK10  BANK11  BANK12  BANK13
      Params:         0       0       0       0       0       0       0       0       0       0       0       0       0       0       0
      Locals:         0       0       0       0       0       0       0       0       0       0       0       0       0       0       0
      Temps:          0       0       0       0       0       0       0       0       0       0       0       0       0       0       0
      Totals:         0       0       0       0       0       0       0       0       0       0       0       0       0       0       0
Total ram usage:        0 bytes
 Hardware stack levels used:    1
 Hardware stack levels required when called:    9
 This function calls:
		Nothing
 This function is called by:
		i1_I2C1_MasterTRBInsert
 This function uses a non-reentrant model


 *************** function _INTERRUPT_InterruptManagerHigh *****************
 Defined at:
		line 98 in file "mcc_generated_files/interrupt_manager.c"
 Parameters:    Size  Location     Type
		None
 Auto vars:     Size  Location     Type
		None
 Return value:  Size  Location     Type
                  1    wreg      void 
 Registers used:
		wreg, fsr0l, fsr0h, fsr2l, fsr2h, status,2, status,0, pclath, tosl, tblptrl, tblptrh, tblptru, prodl, prodh, cstack
 Tracked objects:
		On entry : 
		On exit  : 
		Unchanged: 
 Data sizes:     COMRAM   BANK0   BANK1   BANK2   BANK3   BANK4   BANK5   BANK6   BANK7   BANK8   BANK9  BANK10  BANK11  BANK12  BANK13
      Params:         0       0       0       0       0       0       0       0       0       0       0       0       0       0       0
      Locals:         0       0       0       0       0       0       0       0       0       0       0       0       0       0       0
      Temps:          0      18       0       0       0       0       0       0       0       0       0       0       0       0       0
      Totals:         0      18       0       0       0       0       0       0       0       0       0       0       0       0       0
Total ram usage:       18 bytes
 Hardware stack levels used:    1
 Hardware stack levels required when called:    8
 This function calls:
		Absolute function
		_ADCC_ThresholdISR
		_EUSART2_Receive_ISR
		_EUSART2_Transmit_ISR
		_HLVD_ISR
		_I2C1_BusCollisionISR
		_I2C1_ISR
		_INT0_ISR
		_TMR4_ISR
		_TMR5_ISR
 This function is called by:
		Interrupt level 2
 This function uses a non-reentrant model


 *************** function _TMR5_ISR *****************
 Defined at:
		line 164 in file "mcc_generated_files/tmr5.c"
 Parameters:    Size  Location     Type
		None
 Auto vars:     Size  Location     Type
		None
 Return value:  Size  Location     Type
                  1    wreg      void 
 Registers used:
		wreg, status,2, status,0, pclath, tosl, cstack
 Tracked objects:
		On entry : 
		On exit  : 
		Unchanged: 
 Data sizes:     COMRAM   BANK0   BANK1   BANK2   BANK3   BANK4   BANK5   BANK6   BANK7   BANK8   BANK9  BANK10  BANK11  BANK12  BANK13
      Params:         0       0       0       0       0       0       0       0       0       0       0       0       0       0       0
      Locals:         0       0       0       0       0       0       0       0       0       0       0       0       0       0       0
      Temps:          0       0       0       0       0       0       0       0       0       0       0       0       0       0       0
      Totals:         0       0       0       0       0       0       0       0       0       0       0       0       0       0       0
Total ram usage:        0 bytes
 Hardware stack levels used:    1
 Hardware stack levels required when called:    2
 This function calls:
		Absolute function
		_TMR5_DefaultInterruptHandler
		_TMR5_WriteTimer
		_dimmingOnTimeCallback
 This function is called by:
		_INTERRUPT_InterruptManagerHigh
 This function uses a non-reentrant model


 *************** function _TMR5_DefaultInterruptHandler *****************
 Defined at:
		line 182 in file "mcc_generated_files/tmr5.c"
 Parameters:    Size  Location     Type
		None
 Auto vars:     Size  Location     Type
		None
 Return value:  Size  Location     Type
                  1    wreg      void 
 Registers used:
		None
 Tracked objects:
		On entry : 
		On exit  : 
		Unchanged: 
 Data sizes:     COMRAM   BANK0   BANK1   BANK2   BANK3   BANK4   BANK5   BANK6   BANK7   BANK8   BANK9  BANK10  BANK11  BANK12  BANK13
      Params:         0       0       0       0       0       0       0       0       0       0       0       0       0       0       0
      Locals:         0       0       0       0       0       0       0       0       0       0       0       0       0       0       0
      Temps:          0       0       0       0       0       0       0       0       0       0       0       0       0       0       0
      Totals:         0       0       0       0       0       0       0       0       0       0       0       0       0       0       0
Total ram usage:        0 bytes
 Hardware stack levels used:    1
 This function calls:
		Nothing
 This function is called by:
		_TMR5_Initialize
		_TMR5_ISR
 This function uses a non-reentrant model


 *************** function _dimmingOnTimeCallback *****************
 Defined at:
		line 448 in file "main.c"
 Parameters:    Size  Location     Type
		None
 Auto vars:     Size  Location     Type
		None
 Return value:  Size  Location     Type
                  1    wreg      void 
 Registers used:
		wreg, cstack
 Tracked objects:
		On entry : 
		On exit  : 
		Unchanged: 
 Data sizes:     COMRAM   BANK0   BANK1   BANK2   BANK3   BANK4   BANK5   BANK6   BANK7   BANK8   BANK9  BANK10  BANK11  BANK12  BANK13
      Params:         0       0       0       0       0       0       0       0       0       0       0       0       0       0       0
      Locals:         0       0       0       0       0       0       0       0       0       0       0       0       0       0       0
      Temps:          0       0       0       0       0       0       0       0       0       0       0       0       0       0       0
      Totals:         0       0       0       0       0       0       0       0       0       0       0       0       0       0       0
Total ram usage:        0 bytes
 Hardware stack levels used:    1
 Hardware stack levels required when called:    1
 This function calls:
		i2_TMR5_StopTimer
 This function is called by:
		_main
		_TMR5_ISR
 This function uses a non-reentrant model


 *************** function i2_TMR5_StopTimer *****************
 Defined at:
		line 105 in file "mcc_generated_files/tmr5.c"
 Parameters:    Size  Location     Type
		None
 Auto vars:     Size  Location     Type
		None
 Return value:  Size  Location     Type
                  1    wreg      void 
 Registers used:
		None
 Tracked objects:
		On entry : 
		On exit  : 
		Unchanged: 
 Data sizes:     COMRAM   BANK0   BANK1   BANK2   BANK3   BANK4   BANK5   BANK6   BANK7   BANK8   BANK9  BANK10  BANK11  BANK12  BANK13
      Params:         0       0       0       0       0       0       0       0       0       0       0       0       0       0       0
      Locals:         0       0       0       0       0       0       0       0       0       0       0       0       0       0       0
      Temps:          0       0       0       0       0       0       0       0       0       0       0       0       0       0       0
      Totals:         0       0       0       0       0       0       0       0       0       0       0       0       0       0       0
Total ram usage:        0 bytes
 Hardware stack levels used:    1
 This function calls:
		Nothing
 This function is called by:
		_dimmingOnTimeCallback
 This function uses a non-reentrant model


 *************** function _TMR4_ISR *****************
 Defined at:
		line 165 in file "mcc_generated_files/tmr4.c"
 Parameters:    Size  Location     Type
		None
 Auto vars:     Size  Location     Type
		None
 Return value:  Size  Location     Type
                  1    wreg      void 
 Registers used:
		wreg, fsr2l, fsr2h, status,2, status,0, pclath, tosl, tblptrl, tblptrh, tblptru, cstack
 Tracked objects:
		On entry : 
		On exit  : 
		Unchanged: 
 Data sizes:     COMRAM   BANK0   BANK1   BANK2   BANK3   BANK4   BANK5   BANK6   BANK7   BANK8   BANK9  BANK10  BANK11  BANK12  BANK13
      Params:         0       0       0       0       0       0       0       0       0       0       0       0       0       0       0
      Locals:         0       0       0       0       0       0       0       0       0       0       0       0       0       0       0
      Temps:          0       0       0       0       0       0       0       0       0       0       0       0       0       0       0
      Totals:         0       0       0       0       0       0       0       0       0       0       0       0       0       0       0
Total ram usage:        0 bytes
 Hardware stack levels used:    1
 Hardware stack levels required when called:    4
 This function calls:
		_TMR4_CallBack
 This function is called by:
		_INTERRUPT_InterruptManagerHigh
 This function uses a non-reentrant model


 *************** function _TMR4_CallBack *****************
 Defined at:
		line 183 in file "mcc_generated_files/tmr4.c"
 Parameters:    Size  Location     Type
		None
 Auto vars:     Size  Location     Type
		None
 Return value:  Size  Location     Type
                  1    wreg      void 
 Registers used:
		wreg, fsr2l, fsr2h, status,2, status,0, pclath, tosl, tblptrl, tblptrh, tblptru, cstack
 Tracked objects:
		On entry : 
		On exit  : 
		Unchanged: 
 Data sizes:     COMRAM   BANK0   BANK1   BANK2   BANK3   BANK4   BANK5   BANK6   BANK7   BANK8   BANK9  BANK10  BANK11  BANK12  BANK13
      Params:         0       0       0       0       0       0       0       0       0       0       0       0       0       0       0
      Locals:         0       0       0       0       0       0       0       0       0       0       0       0       0       0       0
      Temps:          0       0       0       0       0       0       0       0       0       0       0       0       0       0       0
      Totals:         0       0       0       0       0       0       0       0       0       0       0       0       0       0       0
Total ram usage:        0 bytes
 Hardware stack levels used:    1
 Hardware stack levels required when called:    3
 This function calls:
		Absolute function
		_TMR4_DefaultInterruptHandler
		_writeEnergyToEEPROMCallback
 This function is called by:
		_TMR4_ISR
 This function uses a non-reentrant model


 *************** function _TMR4_DefaultInterruptHandler *****************
 Defined at:
		line 197 in file "mcc_generated_files/tmr4.c"
 Parameters:    Size  Location     Type
		None
 Auto vars:     Size  Location     Type
		None
 Return value:  Size  Location     Type
                  1    wreg      void 
 Registers used:
		None
 Tracked objects:
		On entry : 
		On exit  : 
		Unchanged: 
 Data sizes:     COMRAM   BANK0   BANK1   BANK2   BANK3   BANK4   BANK5   BANK6   BANK7   BANK8   BANK9  BANK10  BANK11  BANK12  BANK13
      Params:         0       0       0       0       0       0       0       0       0       0       0       0       0       0       0
      Locals:         0       0       0       0       0       0       0       0       0       0       0       0       0       0       0
      Temps:          0       0       0       0       0       0       0       0       0       0       0       0       0       0       0
      Totals:         0       0       0       0       0       0       0       0       0       0       0       0       0       0       0
Total ram usage:        0 bytes
 Hardware stack levels used:    1
 This function calls:
		Nothing
 This function is called by:
		_TMR4_Initialize
		_TMR4_CallBack
 This function uses a non-reentrant model


 *************** function _writeEnergyToEEPROMCallback *****************
 Defined at:
		line 473 in file "main.c"
 Parameters:    Size  Location     Type
		None
 Auto vars:     Size  Location     Type
  current_valu    4   41[BANK0 ] void 
 Return value:  Size  Location     Type
                  1    wreg      void 
 Registers used:
		wreg, fsr2l, fsr2h, status,2, status,0, tblptrl, tblptrh, tblptru, cstack
 Tracked objects:
		On entry : 
		On exit  : 
		Unchanged: 
 Data sizes:     COMRAM   BANK0   BANK1   BANK2   BANK3   BANK4   BANK5   BANK6   BANK7   BANK8   BANK9  BANK10  BANK11  BANK12  BANK13
      Params:         0       0       0       0       0       0       0       0       0       0       0       0       0       0       0
      Locals:         0       4       0       0       0       0       0       0       0       0       0       0       0       0       0
      Temps:          0       0       0       0       0       0       0       0       0       0       0       0       0       0       0
      Totals:         0       4       0       0       0       0       0       0       0       0       0       0       0       0       0
Total ram usage:        4 bytes
 Hardware stack levels used:    1
 Hardware stack levels required when called:    2
 This function calls:
		i2___flge
		i2_readDoubleFromEEPROM
		i2_writeDoubleToEEPROM
 This function is called by:
		_main
		_TMR4_CallBack
 This function uses a non-reentrant model


 *************** function i2_readDoubleFromEEPROM *****************
 Defined at:
		line 22 in file "double_to_EEPROM.c"
 Parameters:    Size  Location     Type
  starting_add    2    2[COMRAM] unsigned int 
 Auto vars:     Size  Location     Type
  readDoubleFr    4    6[COMRAM] struct .
  readDoubleFr    2   10[COMRAM] int 
 Return value:  Size  Location     Type
                  4    2[COMRAM] int 
 Registers used:
		wreg, fsr2l, fsr2h, status,2, status,0, cstack
 Tracked objects:
		On entry : 
		On exit  : 
		Unchanged: 
 Data sizes:     COMRAM   BANK0   BANK1   BANK2   BANK3   BANK4   BANK5   BANK6   BANK7   BANK8   BANK9  BANK10  BANK11  BANK12  BANK13
      Params:         4       0       0       0       0       0       0       0       0       0       0       0       0       0       0
      Locals:         6       0       0       0       0       0       0       0       0       0       0       0       0       0       0
      Temps:          0       0       0       0       0       0       0       0       0       0       0       0       0       0       0
      Totals:        10       0       0       0       0       0       0       0       0       0       0       0       0       0       0
Total ram usage:       10 bytes
 Hardware stack levels used:    1
 Hardware stack levels required when called:    1
 This function calls:
		i2_DATAEE_ReadByte
 This function is called by:
		_writeEnergyToEEPROMCallback
 This function uses a non-reentrant model


 *************** function i2_DATAEE_ReadByte *****************
 Defined at:
		line 190 in file "mcc_generated_files/memory.c"
 Parameters:    Size  Location     Type
  bAdd            2    0[COMRAM] unsigned int 
 Auto vars:     Size  Location     Type
		None
 Return value:  Size  Location     Type
                  1    wreg      unsigned char 
 Registers used:
		wreg, status,2, status,0
 Tracked objects:
		On entry : 
		On exit  : 
		Unchanged: 
 Data sizes:     COMRAM   BANK0   BANK1   BANK2   BANK3   BANK4   BANK5   BANK6   BANK7   BANK8   BANK9  BANK10  BANK11  BANK12  BANK13
      Params:         2       0       0       0       0       0       0       0       0       0       0       0       0       0       0
      Locals:         0       0       0       0       0       0       0       0       0       0       0       0       0       0       0
      Temps:          0       0       0       0       0       0       0       0       0       0       0       0       0       0       0
      Totals:         2       0       0       0       0       0       0       0       0       0       0       0       0       0       0
Total ram usage:        2 bytes
 Hardware stack levels used:    1
 This function calls:
		Nothing
 This function is called by:
		i2_readDoubleFromEEPROM
 This function uses a non-reentrant model


 *************** function _INT0_ISR *****************
 Defined at:
		line 32 in file "mcc_generated_files/ext_int.c"
 Parameters:    Size  Location     Type
		None
 Auto vars:     Size  Location     Type
		None
 Return value:  Size  Location     Type
                  1    wreg      void 
 Registers used:
		wreg, status,2, status,0, pclath, tosl, cstack
 Tracked objects:
		On entry : 
		On exit  : 
		Unchanged: 
 Data sizes:     COMRAM   BANK0   BANK1   BANK2   BANK3   BANK4   BANK5   BANK6   BANK7   BANK8   BANK9  BANK10  BANK11  BANK12  BANK13
      Params:         0       0       0       0       0       0       0       0       0       0       0       0       0       0       0
      Locals:         0       0       0       0       0       0       0       0       0       0       0       0       0       0       0
      Temps:          0       0       0       0       0       0       0       0       0       0       0       0       0       0       0
      Totals:         0       0       0       0       0       0       0       0       0       0       0       0       0       0       0
Total ram usage:        0 bytes
 Hardware stack levels used:    1
 Hardware stack levels required when called:    3
 This function calls:
		_INT0_CallBack
 This function is called by:
		_INTERRUPT_InterruptManagerHigh
 This function uses a non-reentrant model


 *************** function _INT0_CallBack *****************
 Defined at:
		line 41 in file "mcc_generated_files/ext_int.c"
 Parameters:    Size  Location     Type
		None
 Auto vars:     Size  Location     Type
		None
 Return value:  Size  Location     Type
                  1    wreg      void 
 Registers used:
		wreg, status,2, status,0, pclath, tosl, cstack
 Tracked objects:
		On entry : 
		On exit  : 
		Unchanged: 
 Data sizes:     COMRAM   BANK0   BANK1   BANK2   BANK3   BANK4   BANK5   BANK6   BANK7   BANK8   BANK9  BANK10  BANK11  BANK12  BANK13
      Params:         0       0       0       0       0       0       0       0       0       0       0       0       0       0       0
      Locals:         0       0       0       0       0       0       0       0       0       0       0       0       0       0       0
      Temps:          0       0       0       0       0       0       0       0       0       0       0       0       0       0       0
      Totals:         0       0       0       0       0       0       0       0       0       0       0       0       0       0       0
Total ram usage:        0 bytes
 Hardware stack levels used:    1
 Hardware stack levels required when called:    2
 This function calls:
		Absolute function
		_INT0_DefaultInterruptHandler
		_dimmingOffTimeCallback
 This function is called by:
		_INT0_ISR
 This function uses a non-reentrant model


 *************** function _INT0_DefaultInterruptHandler *****************
 Defined at:
		line 54 in file "mcc_generated_files/ext_int.c"
 Parameters:    Size  Location     Type
		None
 Auto vars:     Size  Location     Type
		None
 Return value:  Size  Location     Type
                  1    wreg      void 
 Registers used:
		None
 Tracked objects:
		On entry : 
		On exit  : 
		Unchanged: 
 Data sizes:     COMRAM   BANK0   BANK1   BANK2   BANK3   BANK4   BANK5   BANK6   BANK7   BANK8   BANK9  BANK10  BANK11  BANK12  BANK13
      Params:         0       0       0       0       0       0       0       0       0       0       0       0       0       0       0
      Locals:         0       0       0       0       0       0       0       0       0       0       0       0       0       0       0
      Temps:          0       0       0       0       0       0       0       0       0       0       0       0       0       0       0
      Totals:         0       0       0       0       0       0       0       0       0       0       0       0       0       0       0
Total ram usage:        0 bytes
 Hardware stack levels used:    1
 This function calls:
		Nothing
 This function is called by:
		_EXT_INT_Initialize
		_INT0_CallBack
 This function uses a non-reentrant model


 *************** function _dimmingOffTimeCallback *****************
 Defined at:
		line 430 in file "main.c"
 Parameters:    Size  Location     Type
		None
 Auto vars:     Size  Location     Type
		None
 Return value:  Size  Location     Type
                  1    wreg      void 
 Registers used:
		wreg, status,2, cstack
 Tracked objects:
		On entry : 
		On exit  : 
		Unchanged: 
 Data sizes:     COMRAM   BANK0   BANK1   BANK2   BANK3   BANK4   BANK5   BANK6   BANK7   BANK8   BANK9  BANK10  BANK11  BANK12  BANK13
      Params:         0       0       0       0       0       0       0       0       0       0       0       0       0       0       0
      Locals:         0       0       0       0       0       0       0       0       0       0       0       0       0       0       0
      Temps:          0       0       0       0       0       0       0       0       0       0       0       0       0       0       0
      Totals:         0       0       0       0       0       0       0       0       0       0       0       0       0       0       0
Total ram usage:        0 bytes
 Hardware stack levels used:    1
 Hardware stack levels required when called:    1
 This function calls:
		_TMR5_StartTimer
		_TMR5_WriteTimer
 This function is called by:
		_main
		_INT0_CallBack
 This function uses a non-reentrant model


 *************** function _TMR5_WriteTimer *****************
 Defined at:
		line 127 in file "mcc_generated_files/tmr5.c"
 Parameters:    Size  Location     Type
  timerVal        2    0[COMRAM] unsigned int 
 Auto vars:     Size  Location     Type
		None
 Return value:  Size  Location     Type
                  1    wreg      void 
 Registers used:
		wreg, status,2
 Tracked objects:
		On entry : 
		On exit  : 
		Unchanged: 
 Data sizes:     COMRAM   BANK0   BANK1   BANK2   BANK3   BANK4   BANK5   BANK6   BANK7   BANK8   BANK9  BANK10  BANK11  BANK12  BANK13
      Params:         2       0       0       0       0       0       0       0       0       0       0       0       0       0       0
      Locals:         0       0       0       0       0       0       0       0       0       0       0       0       0       0       0
      Temps:          0       0       0       0       0       0       0       0       0       0       0       0       0       0       0
      Totals:         2       0       0       0       0       0       0       0       0       0       0       0       0       0       0
Total ram usage:        2 bytes
 Hardware stack levels used:    1
 This function calls:
		Nothing
 This function is called by:
		_TMR5_ISR
		_dimmingOffTimeCallback
		_TMR5_Reload
 This function uses a non-reentrant model


 *************** function _TMR5_StartTimer *****************
 Defined at:
		line 99 in file "mcc_generated_files/tmr5.c"
 Parameters:    Size  Location     Type
		None
 Auto vars:     Size  Location     Type
		None
 Return value:  Size  Location     Type
                  1    wreg      void 
 Registers used:
		None
 Tracked objects:
		On entry : 
		On exit  : 
		Unchanged: 
 Data sizes:     COMRAM   BANK0   BANK1   BANK2   BANK3   BANK4   BANK5   BANK6   BANK7   BANK8   BANK9  BANK10  BANK11  BANK12  BANK13
      Params:         0       0       0       0       0       0       0       0       0       0       0       0       0       0       0
      Locals:         0       0       0       0       0       0       0       0       0       0       0       0       0       0       0
      Temps:          0       0       0       0       0       0       0       0       0       0       0       0       0       0       0
      Totals:         0       0       0       0       0       0       0       0       0       0       0       0       0       0       0
Total ram usage:        0 bytes
 Hardware stack levels used:    1
 This function calls:
		Nothing
 This function is called by:
		_dimmingOffTimeCallback
 This function uses a non-reentrant model


 *************** function _I2C1_ISR *****************
 Defined at:
		line 235 in file "mcc_generated_files/i2c1.c"
 Parameters:    Size  Location     Type
		None
 Auto vars:     Size  Location     Type
		None
 Return value:  Size  Location     Type
                  1    wreg      void 
 Registers used:
		wreg, fsr2l, fsr2h, status,2, status,0, cstack
 Tracked objects:
		On entry : 
		On exit  : 
		Unchanged: 
 Data sizes:     COMRAM   BANK0   BANK1   BANK2   BANK3   BANK4   BANK5   BANK6   BANK7   BANK8   BANK9  BANK10  BANK11  BANK12  BANK13
      Params:         0       0       0       0       0       0       0       0       0       0       0       0       0       0       0
      Locals:         0       0       0       0       0       0       0       0       0       0       0       0       0       0       0
      Temps:          2       0       0       0       0       0       0       0       0       0       0       0       0       0       0
      Totals:         2       0       0       0       0       0       0       0       0       0       0       0       0       0       0
Total ram usage:        2 bytes
 Hardware stack levels used:    1
 Hardware stack levels required when called:    1
 This function calls:
		_I2C1_FunctionComplete
		_I2C1_Stop
 This function is called by:
		_INTERRUPT_InterruptManagerHigh
 This function uses a non-reentrant model


 *************** function _I2C1_Stop *****************
 Defined at:
		line 583 in file "mcc_generated_files/i2c1.c"
 Parameters:    Size  Location     Type
  completion_c    1    wreg     enum E17311
 Auto vars:     Size  Location     Type
  completion_c    1    2[COMRAM] enum E17311
 Return value:  Size  Location     Type
                  1    wreg      void 
 Registers used:
		wreg, fsr2l, fsr2h, status,2, status,0
 Tracked objects:
		On entry : 
		On exit  : 
		Unchanged: 
 Data sizes:     COMRAM   BANK0   BANK1   BANK2   BANK3   BANK4   BANK5   BANK6   BANK7   BANK8   BANK9  BANK10  BANK11  BANK12  BANK13
      Params:         0       0       0       0       0       0       0       0       0       0       0       0       0       0       0
      Locals:         1       0       0       0       0       0       0       0       0       0       0       0       0       0       0
      Temps:          2       0       0       0       0       0       0       0       0       0       0       0       0       0       0
      Totals:         3       0       0       0       0       0       0       0       0       0       0       0       0       0       0
Total ram usage:        3 bytes
 Hardware stack levels used:    1
 This function calls:
		Nothing
 This function is called by:
		_I2C1_ISR
 This function uses a non-reentrant model


 *************** function _I2C1_FunctionComplete *****************
 Defined at:
		line 565 in file "mcc_generated_files/i2c1.c"
 Parameters:    Size  Location     Type
		None
 Auto vars:     Size  Location     Type
		None
 Return value:  Size  Location     Type
                  1    wreg      void 
 Registers used:
		wreg, status,2, status,0
 Tracked objects:
		On entry : 
		On exit  : 
		Unchanged: 
 Data sizes:     COMRAM   BANK0   BANK1   BANK2   BANK3   BANK4   BANK5   BANK6   BANK7   BANK8   BANK9  BANK10  BANK11  BANK12  BANK13
      Params:         0       0       0       0       0       0       0       0       0       0       0       0       0       0       0
      Locals:         0       0       0       0       0       0       0       0       0       0       0       0       0       0       0
      Temps:          0       0       0       0       0       0       0       0       0       0       0       0       0       0       0
      Totals:         0       0       0       0       0       0       0       0       0       0       0       0       0       0       0
Total ram usage:        0 bytes
 Hardware stack levels used:    1
 This function calls:
		Nothing
 This function is called by:
		_I2C1_ISR
 This function uses a non-reentrant model


 *************** function _I2C1_BusCollisionISR *****************
 Defined at:
		line 742 in file "mcc_generated_files/i2c1.c"
 Parameters:    Size  Location     Type
		None
 Auto vars:     Size  Location     Type
		None
 Return value:  Size  Location     Type
                  1    wreg      void 
 Registers used:
		None
 Tracked objects:
		On entry : 
		On exit  : 
		Unchanged: 
 Data sizes:     COMRAM   BANK0   BANK1   BANK2   BANK3   BANK4   BANK5   BANK6   BANK7   BANK8   BANK9  BANK10  BANK11  BANK12  BANK13
      Params:         0       0       0       0       0       0       0       0       0       0       0       0       0       0       0
      Locals:         0       0       0       0       0       0       0       0       0       0       0       0       0       0       0
      Temps:          0       0       0       0       0       0       0       0       0       0       0       0       0       0       0
      Totals:         0       0       0       0       0       0       0       0       0       0       0       0       0       0       0
Total ram usage:        0 bytes
 Hardware stack levels used:    1
 This function calls:
		Nothing
 This function is called by:
		_INTERRUPT_InterruptManagerHigh
 This function uses a non-reentrant model


 *************** function _HLVD_ISR *****************
 Defined at:
		line 121 in file "mcc_generated_files/hlvd.c"
 Parameters:    Size  Location     Type
		None
 Auto vars:     Size  Location     Type
		None
 Return value:  Size  Location     Type
                  1    wreg      void 
 Registers used:
		wreg, fsr2l, fsr2h, status,2, status,0, tblptrl, tblptrh, tblptru, cstack
 Tracked objects:
		On entry : 
		On exit  : 
		Unchanged: 
 Data sizes:     COMRAM   BANK0   BANK1   BANK2   BANK3   BANK4   BANK5   BANK6   BANK7   BANK8   BANK9  BANK10  BANK11  BANK12  BANK13
      Params:         0       0       0       0       0       0       0       0       0       0       0       0       0       0       0
      Locals:         0       0       0       0       0       0       0       0       0       0       0       0       0       0       0
      Temps:          0       0       0       0       0       0       0       0       0       0       0       0       0       0       0
      Totals:         0       0       0       0       0       0       0       0       0       0       0       0       0       0       0
Total ram usage:        0 bytes
 Hardware stack levels used:    1
 Hardware stack levels required when called:    2
 This function calls:
		i2_writeDoubleToEEPROM
 This function is called by:
		_INTERRUPT_InterruptManagerHigh
 This function uses a non-reentrant model


 *************** function i2_writeDoubleToEEPROM *****************
 Defined at:
		line 6 in file "double_to_EEPROM.c"
 Parameters:    Size  Location     Type
  input_double    4    4[COMRAM] void 
  starting_add    2    8[COMRAM] unsigned int 
 Auto vars:     Size  Location     Type
  writeDoubleT    4   10[COMRAM] struct .
  writeDoubleT    2   14[COMRAM] int 
 Return value:  Size  Location     Type
                  1    wreg      void 
 Registers used:
		wreg, fsr2l, fsr2h, status,2, status,0, cstack
 Tracked objects:
		On entry : 
		On exit  : 
		Unchanged: 
 Data sizes:     COMRAM   BANK0   BANK1   BANK2   BANK3   BANK4   BANK5   BANK6   BANK7   BANK8   BANK9  BANK10  BANK11  BANK12  BANK13
      Params:         6       0       0       0       0       0       0       0       0       0       0       0       0       0       0
      Locals:         6       0       0       0       0       0       0       0       0       0       0       0       0       0       0
      Temps:          0       0       0       0       0       0       0       0       0       0       0       0       0       0       0
      Totals:        12       0       0       0       0       0       0       0       0       0       0       0       0       0       0
Total ram usage:       12 bytes
 Hardware stack levels used:    1
 Hardware stack levels required when called:    1
 This function calls:
		i2_DATAEE_WriteByte
 This function is called by:
		_HLVD_ISR
		_writeEnergyToEEPROMCallback
 This function uses a non-reentrant model


 *************** function i2_DATAEE_WriteByte *****************
 Defined at:
		line 168 in file "mcc_generated_files/memory.c"
 Parameters:    Size  Location     Type
  bAdd            2    0[COMRAM] unsigned int 
  bData           1    2[COMRAM] unsigned char 
 Auto vars:     Size  Location     Type
  DATAEE_Write    1    3[COMRAM] unsigned char 
 Return value:  Size  Location     Type
                  1    wreg      void 
 Registers used:
		wreg, status,2, status,0
 Tracked objects:
		On entry : 
		On exit  : 
		Unchanged: 
 Data sizes:     COMRAM   BANK0   BANK1   BANK2   BANK3   BANK4   BANK5   BANK6   BANK7   BANK8   BANK9  BANK10  BANK11  BANK12  BANK13
      Params:         3       0       0       0       0       0       0       0       0       0       0       0       0       0       0
      Locals:         1       0       0       0       0       0       0       0       0       0       0       0       0       0       0
      Temps:          0       0       0       0       0       0       0       0       0       0       0       0       0       0       0
      Totals:         4       0       0       0       0       0       0       0       0       0       0       0       0       0       0
Total ram usage:        4 bytes
 Hardware stack levels used:    1
 This function calls:
		Nothing
 This function is called by:
		i2_writeDoubleToEEPROM
 This function uses a non-reentrant model


 *************** function _EUSART2_Transmit_ISR *****************
 Defined at:
		line 189 in file "mcc_generated_files/eusart2.c"
 Parameters:    Size  Location     Type
		None
 Auto vars:     Size  Location     Type
		None
 Return value:  Size  Location     Type
                  1    wreg      void 
 Registers used:
		wreg, fsr2l, fsr2h, status,2, status,0, prodl, prodh
 Tracked objects:
		On entry : 
		On exit  : 
		Unchanged: 
 Data sizes:     COMRAM   BANK0   BANK1   BANK2   BANK3   BANK4   BANK5   BANK6   BANK7   BANK8   BANK9  BANK10  BANK11  BANK12  BANK13
      Params:         0       0       0       0       0       0       0       0       0       0       0       0       0       0       0
      Locals:         0       0       0       0       0       0       0       0       0       0       0       0       0       0       0
      Temps:          0       0       0       0       0       0       0       0       0       0       0       0       0       0       0
      Totals:         0       0       0       0       0       0       0       0       0       0       0       0       0       0       0
Total ram usage:        0 bytes
 Hardware stack levels used:    1
 This function calls:
		Nothing
 This function is called by:
		_EUSART2_Initialize
		_INTERRUPT_InterruptManagerHigh
 This function uses a non-reentrant model


 *************** function _EUSART2_Receive_ISR *****************
 Defined at:
		line 208 in file "mcc_generated_files/eusart2.c"
 Parameters:    Size  Location     Type
		None
 Auto vars:     Size  Location     Type
		None
 Return value:  Size  Location     Type
                  1    wreg      void 
 Registers used:
		wreg, fsr0l, fsr0h, fsr2l, fsr2h, status,2, status,0, pclath, tosl, tblptrl, tblptrh, tblptru, prodl, prodh, cstack
 Tracked objects:
		On entry : 
		On exit  : 
		Unchanged: 
 Data sizes:     COMRAM   BANK0   BANK1   BANK2   BANK3   BANK4   BANK5   BANK6   BANK7   BANK8   BANK9  BANK10  BANK11  BANK12  BANK13
      Params:         0       0       0       0       0       0       0       0       0       0       0       0       0       0       0
      Locals:         0       0       0       0       0       0       0       0       0       0       0       0       0       0       0
      Temps:          0       0       0       0       0       0       0       0       0       0       0       0       0       0       0
      Totals:         0       0       0       0       0       0       0       0       0       0       0       0       0       0       0
Total ram usage:        0 bytes
 Hardware stack levels used:    1
 Hardware stack levels required when called:    4
 This function calls:
		i2_printf
 This function is called by:
		_EUSART2_Initialize
		_INTERRUPT_InterruptManagerHigh
 This function uses a non-reentrant model


 *************** function i2_printf *****************
 Defined at:
		line 13 in file "C:\Program Files (x86)\Microchip\xc8\v1.45\sources\common\printf.c"
 Parameters:    Size  Location     Type
  f               2  101[BANK0 ] PTR const unsigned char 
		 -> STR_316(14), STR_315(99), STR_314(30), STR_313(58), 
		 -> STR_312(36), STR_311(36), STR_310(37), STR_309(28), 
		 -> STR_308(38), STR_307(60), STR_306(32), STR_305(23), 
		 -> STR_304(65), STR_303(27), STR_302(48), STR_301(15), 
		 -> STR_300(13), STR_299(12), STR_298(11), STR_297(10), 
		 -> STR_296(11), STR_295(24), STR_294(46), STR_293(25), 
		 -> STR_292(56), STR_291(64), STR_290(59), STR_289(85), 
		 -> STR_288(30), STR_287(55), STR_286(46), STR_285(39), 
		 -> STR_284(62), STR_283(21), STR_282(31), STR_281(49), 
		 -> STR_280(36), STR_279(99), STR_278(88), STR_277(37), 
		 -> STR_276(13), STR_275(29), STR_274(26), STR_273(26), 
		 -> STR_272(426), STR_270(30), STR_269(46), STR_268(39), 
		 -> STR_267(62), STR_266(55), STR_265(470), STR_263(3357), 
		 -> STR_261(492), STR_259(915), STR_257(720), STR_255(1080), 
		 -> STR_253(32), STR_252(36), STR_250(46), STR_249(51), 
		 -> STR_248(73), STR_247(73), STR_246(73), STR_245(56), 
		 -> STR_244(34), STR_243(34), STR_242(53), STR_241(42), 
		 -> STR_240(53), STR_239(39), STR_238(31), STR_236(54), 
		 -> STR_235(45), STR_234(51), STR_233(52), STR_232(30), 
		 -> STR_231(58), STR_230(36), STR_229(36), STR_228(37), 
		 -> STR_227(38), STR_226(60), STR_225(32), STR_224(23), 
		 -> STR_223(65), STR_222(27), STR_221(48), STR_220(15), 
		 -> STR_219(13), STR_218(12), STR_217(11), STR_216(10), 
		 -> STR_215(11), STR_214(24), STR_213(46), STR_212(25), 
		 -> STR_211(58), STR_210(56), STR_209(64), STR_208(59), 
		 -> STR_207(85), STR_206(26), STR_204(54), STR_202(54), 
		 -> STR_200(45), STR_198(51), STR_196(52), STR_194(46), 
		 -> STR_192(51), STR_190(53), STR_188(58), STR_186(71), 
		 -> STR_185(63), STR_184(37), STR_183(46), STR_182(102), 
		 -> STR_181(86), STR_179(25), STR_177(42), STR_176(53), 
		 -> STR_175(31), STR_173(29), STR_172(28), STR_170(42), 
		 -> STR_168(41), STR_166(44), STR_165(19), STR_164(34), 
		 -> STR_162(53), STR_161(50), STR_160(105), STR_159(105), 
		 -> STR_157(59), STR_155(73), STR_154(73), STR_153(73), 
		 -> STR_151(56), STR_149(34), STR_147(34), STR_145(32), 
		 -> STR_143(30), STR_141(58), STR_139(36), STR_137(36), 
		 -> STR_135(37), STR_133(34), STR_131(38), STR_130(60), 
		 -> STR_129(32), STR_128(23), STR_127(65), STR_125(23), 
		 -> STR_123(27), STR_122(48), STR_121(15), STR_120(13), 
		 -> STR_119(12), STR_118(11), STR_117(10), STR_116(11), 
		 -> STR_115(24), STR_114(46), STR_113(25), STR_111(56), 
		 -> STR_110(64), STR_108(59), STR_106(85), STR_104(47), 
		 -> STR_103(17), STR_100(52), STR_98(4), STR_97(5), 
		 -> STR_95(4), STR_94(5), STR_92(3), terminal_textAttributes@output_buff(15), 
		 -> STR_62(4), STR_61(4), STR_60(4), STR_59(4), 
		 -> STR_58(5), STR_57(26), STR_56(46), STR_55(51), 
		 -> STR_54(32), STR_53(63), STR_52(39), STR_51(31), 
		 -> STR_50(73), STR_49(73), STR_48(73), STR_47(56), 
		 -> STR_46(34), STR_45(34), STR_44(53), STR_43(28), 
		 -> STR_1(4), 
 Auto vars:     Size  Location     Type
  printf          5  105[BANK0 ] struct __prbuf
  printf          2  103[BANK0 ] PTR void [1]
		 -> ?i2_printf(2), ?i1_printf(2), ?_sprintf(2), ?_printf(2), 
 Return value:  Size  Location     Type
                  2  101[BANK0 ] int 
 Registers used:
		wreg, fsr0l, fsr0h, fsr2l, fsr2h, status,2, status,0, pclath, tosl, tblptrl, tblptrh, tblptru, prodl, prodh, cstack
 Tracked objects:
		On entry : 
		On exit  : 
		Unchanged: 
 Data sizes:     COMRAM   BANK0   BANK1   BANK2   BANK3   BANK4   BANK5   BANK6   BANK7   BANK8   BANK9  BANK10  BANK11  BANK12  BANK13
      Params:         0       2       0       0       0       0       0       0       0       0       0       0       0       0       0
      Locals:         0       7       0       0       0       0       0       0       0       0       0       0       0       0       0
      Temps:          0       0       0       0       0       0       0       0       0       0       0       0       0       0       0
      Totals:         0       9       0       0       0       0       0       0       0       0       0       0       0       0       0
Total ram usage:        9 bytes
 Hardware stack levels used:    1
 Hardware stack levels required when called:    3
 This function calls:
		i2__doprnt
 This function is called by:
		_EUSART2_Receive_ISR
 This function uses a non-reentrant model


 *************** function i2__doprnt *****************
 Defined at:
		line 458 in file "C:\Program Files (x86)\Microchip\xc8\v1.45\sources\common\doprnt.c"
 Parameters:    Size  Location     Type
  pb              2   59[BANK0 ] PTR struct __prbuf
		 -> sprintf@pb(5), printf@pb(5), 
  f               2   61[BANK0 ] PTR const unsigned char 
		 -> STR_344(11), STR_316(14), STR_315(99), STR_314(30), 
		 -> STR_313(58), STR_312(36), STR_311(36), STR_310(37), 
		 -> STR_309(28), STR_308(38), STR_307(60), STR_306(32), 
		 -> STR_305(23), STR_304(65), STR_303(27), STR_302(48), 
		 -> STR_301(15), STR_300(13), STR_299(12), STR_298(11), 
		 -> STR_297(10), STR_296(11), STR_295(24), STR_294(46), 
		 -> STR_293(25), STR_292(56), STR_291(64), STR_290(59), 
		 -> STR_289(85), STR_288(30), STR_287(55), STR_286(46), 
		 -> STR_285(39), STR_284(62), STR_283(21), STR_282(31), 
		 -> STR_281(49), STR_280(36), STR_279(99), STR_278(88), 
		 -> STR_277(37), STR_276(13), STR_275(29), STR_274(26), 
		 -> STR_273(26), STR_272(426), STR_270(30), STR_269(46), 
		 -> STR_268(39), STR_267(62), STR_266(55), STR_265(470), 
		 -> STR_263(3357), STR_261(492), STR_259(915), STR_257(720), 
		 -> STR_255(1080), STR_253(32), STR_252(36), STR_250(46), 
		 -> STR_249(51), STR_248(73), STR_247(73), STR_246(73), 
		 -> STR_245(56), STR_244(34), STR_243(34), STR_242(53), 
		 -> STR_241(42), STR_240(53), STR_239(39), STR_238(31), 
		 -> STR_236(54), STR_235(45), STR_234(51), STR_233(52), 
		 -> STR_232(30), STR_231(58), STR_230(36), STR_229(36), 
		 -> STR_228(37), STR_227(38), STR_226(60), STR_225(32), 
		 -> STR_224(23), STR_223(65), STR_222(27), STR_221(48), 
		 -> STR_220(15), STR_219(13), STR_218(12), STR_217(11), 
		 -> STR_216(10), STR_215(11), STR_214(24), STR_213(46), 
		 -> STR_212(25), STR_211(58), STR_210(56), STR_209(64), 
		 -> STR_208(59), STR_207(85), STR_206(26), STR_204(54), 
		 -> STR_202(54), STR_200(45), STR_198(51), STR_196(52), 
		 -> STR_194(46), STR_192(51), STR_190(53), STR_188(58), 
		 -> STR_186(71), STR_185(63), STR_184(37), STR_183(46), 
		 -> STR_182(102), STR_181(86), STR_179(25), STR_177(42), 
		 -> STR_176(53), STR_175(31), STR_173(29), STR_172(28), 
		 -> STR_170(42), STR_168(41), STR_166(44), STR_165(19), 
		 -> STR_164(34), STR_162(53), STR_161(50), STR_160(105), 
		 -> STR_159(105), STR_157(59), STR_155(73), STR_154(73), 
		 -> STR_153(73), STR_151(56), STR_149(34), STR_147(34), 
		 -> STR_145(32), STR_143(30), STR_141(58), STR_139(36), 
		 -> STR_137(36), STR_135(37), STR_133(34), STR_131(38), 
		 -> STR_130(60), STR_129(32), STR_128(23), STR_127(65), 
		 -> STR_125(23), STR_123(27), STR_122(48), STR_121(15), 
		 -> STR_120(13), STR_119(12), STR_118(11), STR_117(10), 
		 -> STR_116(11), STR_115(24), STR_114(46), STR_113(25), 
		 -> STR_111(56), STR_110(64), STR_108(59), STR_106(85), 
		 -> STR_104(47), STR_103(17), STR_100(52), STR_98(4), 
		 -> STR_97(5), STR_95(4), STR_94(5), STR_92(3), 
		 -> terminal_textAttributes@output_buff(15), STR_62(4), STR_61(4), STR_60(4), 
		 -> STR_59(4), STR_58(5), STR_57(26), STR_56(46), 
		 -> STR_55(51), STR_54(32), STR_53(63), STR_52(39), 
		 -> STR_51(31), STR_50(73), STR_49(73), STR_48(73), 
		 -> STR_47(56), STR_46(34), STR_45(34), STR_44(53), 
		 -> STR_43(28), STR_42(12), STR_41(12), STR_40(12), 
		 -> STR_39(11), STR_38(10), STR_37(10), STR_36(9), 
		 -> STR_34(13), STR_8(7), STR_6(5), STR_1(4), 
  ap              2   63[BANK0 ] PTR PTR void 
		 -> sprintf@ap(2), printf@ap(2), 
 Auto vars:     Size  Location     Type
  _doprnt         4   94[BANK0 ] PTR PTR void 
  _doprnt         4   86[BANK0 ] unsigned long 
  _doprnt         4   80[BANK0 ] struct .
  _doprnt         2   98[BANK0 ] int 
  _doprnt         2   92[BANK0 ] unsigned short 
  _doprnt         2   90[BANK0 ] int 
  _doprnt         2   84[BANK0 ] int 
  _doprnt         2   78[BANK0 ] unsigned int 
  _doprnt         2   76[BANK0 ] PTR const unsigned char 
		 -> ?_sprintf(2), ?_printf(2), ftoa@buf(17), STR_342(7), 
		 -> _doprnt@c(1), STR_329(16), STR_328(22), STR_327(21), 
		 -> STR_326(27), STR_325(41), STR_324(32), STR_323(19), 
		 -> STR_322(16), STR_321(15), STR_320(16), STR_319(10), 
		 -> STR_318(13), STR_317(12), print_Energy_str(17), print_Power_str(17), 
		 -> print_Vrms_str(17), print_Irms_str(17), OLED_updateCallback@angle_string(17), OLED_updateCallback@percentage_string(17), 
		 -> OLED_updateCallback@rev_id_str(17), OLED_updateCallback@dev_id_str(17), TRIAC_Firing_Angle(4), sp__acos(4), 
		 -> NULL(0), 
  _doprnt         1  100[BANK0 ] char 
  _doprnt         1   75[BANK0 ] unsigned char 
  _doprnt         1    0        unsigned char 
 Return value:  Size  Location     Type
                  2   59[BANK0 ] int 
 Registers used:
		wreg, fsr0l, fsr0h, fsr2l, fsr2h, status,2, status,0, pclath, tosl, tblptrl, tblptrh, tblptru, prodl, prodh, cstack
 Tracked objects:
		On entry : 
		On exit  : 
		Unchanged: 
 Data sizes:     COMRAM   BANK0   BANK1   BANK2   BANK3   BANK4   BANK5   BANK6   BANK7   BANK8   BANK9  BANK10  BANK11  BANK12  BANK13
      Params:         0       6       0       0       0       0       0       0       0       0       0       0       0       0       0
      Locals:         0      30       0       0       0       0       0       0       0       0       0       0       0       0       0
      Temps:          0       6       0       0       0       0       0       0       0       0       0       0       0       0       0
      Totals:         0      42       0       0       0       0       0       0       0       0       0       0       0       0       0
Total ram usage:       42 bytes
 Hardware stack levels used:    1
 Hardware stack levels required when called:    2
 This function calls:
		Absolute function
		i2___awdiv
		i2___awmod
		i2___fladd
		i2___fldiv
		i2___flge
		i2___flmul
		i2___flneg
		i2___flsub
		i2___fltol
		i2___lldiv
		i2___llmod
		i2___wmul
		i2___xxtofl
		i2__div_to_l_
		i2__tdiv_to_l_
		i2_fround
		i2_isdigit
		i2_putch
		i2_scale
 This function is called by:
		i2_printf
 This function uses a non-reentrant model


 *************** function i2_scale *****************
 Defined at:
		line 425 in file "C:\Program Files (x86)\Microchip\xc8\v1.45\sources\common\doprnt.c"
 Parameters:    Size  Location     Type
  scl             1    wreg     char 
 Auto vars:     Size  Location     Type
  scl             1   47[COMRAM] char 
 Return value:  Size  Location     Type
                  4   39[COMRAM] char 
 Registers used:
		wreg, status,2, status,0, tblptrl, tblptrh, tblptru, prodl, prodh, cstack
 Tracked objects:
		On entry : 
		On exit  : 
		Unchanged: 
 Data sizes:     COMRAM   BANK0   BANK1   BANK2   BANK3   BANK4   BANK5   BANK6   BANK7   BANK8   BANK9  BANK10  BANK11  BANK12  BANK13
      Params:         4       0       0       0       0       0       0       0       0       0       0       0       0       0       0
      Locals:         5       0       0       0       0       0       0       0       0       0       0       0       0       0       0
      Temps:          0       0       0       0       0       0       0       0       0       0       0       0       0       0       0
      Totals:         9       0       0       0       0       0       0       0       0       0       0       0       0       0       0
Total ram usage:        9 bytes
 Hardware stack levels used:    1
 Hardware stack levels required when called:    1
 This function calls:
		i2___awdiv
		i2___awmod
		i2___flmul
 This function is called by:
		i2__doprnt
 This function uses a non-reentrant model


 *************** function i2_putch *****************
 Defined at:
		line 184 in file "mcc_generated_files/eusart2.c"
 Parameters:    Size  Location     Type
  txData          1    wreg     unsigned char 
 Auto vars:     Size  Location     Type
  txData          1    1[COMRAM] unsigned char 
 Return value:  Size  Location     Type
                  1    wreg      void 
 Registers used:
		wreg, fsr2l, fsr2h, status,2, status,0, prodl, prodh, cstack
 Tracked objects:
		On entry : 
		On exit  : 
		Unchanged: 
 Data sizes:     COMRAM   BANK0   BANK1   BANK2   BANK3   BANK4   BANK5   BANK6   BANK7   BANK8   BANK9  BANK10  BANK11  BANK12  BANK13
      Params:         0       0       0       0       0       0       0       0       0       0       0       0       0       0       0
      Locals:         1       0       0       0       0       0       0       0       0       0       0       0       0       0       0
      Temps:          0       0       0       0       0       0       0       0       0       0       0       0       0       0       0
      Totals:         1       0       0       0       0       0       0       0       0       0       0       0       0       0       0
Total ram usage:        1 bytes
 Hardware stack levels used:    1
 Hardware stack levels required when called:    1
 This function calls:
		i2_EUSART2_Write
 This function is called by:
		i2_printf
 This function uses a non-reentrant model


 *************** function i2_EUSART2_Write *****************
 Defined at:
		line 155 in file "mcc_generated_files/eusart2.c"
 Parameters:    Size  Location     Type
  txData          1    wreg     unsigned char 
 Auto vars:     Size  Location     Type
  txData          1    0[COMRAM] unsigned char 
 Return value:  Size  Location     Type
                  1    wreg      void 
 Registers used:
		wreg, fsr2l, fsr2h, status,2, status,0, prodl, prodh
 Tracked objects:
		On entry : 
		On exit  : 
		Unchanged: 
 Data sizes:     COMRAM   BANK0   BANK1   BANK2   BANK3   BANK4   BANK5   BANK6   BANK7   BANK8   BANK9  BANK10  BANK11  BANK12  BANK13
      Params:         0       0       0       0       0       0       0       0       0       0       0       0       0       0       0
      Locals:         1       0       0       0       0       0       0       0       0       0       0       0       0       0       0
      Temps:          0       0       0       0       0       0       0       0       0       0       0       0       0       0       0
      Totals:         1       0       0       0       0       0       0       0       0       0       0       0       0       0       0
Total ram usage:        1 bytes
 Hardware stack levels used:    1
 This function calls:
		Nothing
 This function is called by:
		i2_putch
 This function uses a non-reentrant model


 *************** function i2_isdigit *****************
 Defined at:
		line 8 in file "C:\Program Files (x86)\Microchip\xc8\v1.45\sources\common\isdigit.c"
 Parameters:    Size  Location     Type
  c               1    wreg     unsigned char 
 Auto vars:     Size  Location     Type
  c               1    2[COMRAM] unsigned char 
 Return value:  Size  Location     Type
		None               void
 Registers used:
		wreg, status,2, status,0
 Tracked objects:
		On entry : 
		On exit  : 
		Unchanged: 
 Data sizes:     COMRAM   BANK0   BANK1   BANK2   BANK3   BANK4   BANK5   BANK6   BANK7   BANK8   BANK9  BANK10  BANK11  BANK12  BANK13
      Params:         0       0       0       0       0       0       0       0       0       0       0       0       0       0       0
      Locals:         2       0       0       0       0       0       0       0       0       0       0       0       0       0       0
      Temps:          1       0       0       0       0       0       0       0       0       0       0       0       0       0       0
      Totals:         3       0       0       0       0       0       0       0       0       0       0       0       0       0       0
Total ram usage:        3 bytes
 Hardware stack levels used:    1
 This function calls:
		Nothing
 This function is called by:
		i2__doprnt
 This function uses a non-reentrant model


 *************** function i2_fround *****************
 Defined at:
		line 409 in file "C:\Program Files (x86)\Microchip\xc8\v1.45\sources\common\doprnt.c"
 Parameters:    Size  Location     Type
  prec            1    wreg     unsigned char 
 Auto vars:     Size  Location     Type
  prec            1   51[COMRAM] unsigned char 
 Return value:  Size  Location     Type
                  4   39[COMRAM] unsigned char 
 Registers used:
		wreg, status,2, status,0, tblptrl, tblptrh, tblptru, prodl, prodh, cstack
 Tracked objects:
		On entry : 
		On exit  : 
		Unchanged: 
 Data sizes:     COMRAM   BANK0   BANK1   BANK2   BANK3   BANK4   BANK5   BANK6   BANK7   BANK8   BANK9  BANK10  BANK11  BANK12  BANK13
      Params:         4       0       0       0       0       0       0       0       0       0       0       0       0       0       0
      Locals:         9       0       0       0       0       0       0       0       0       0       0       0       0       0       0
      Temps:          0       0       0       0       0       0       0       0       0       0       0       0       0       0       0
      Totals:        13       0       0       0       0       0       0       0       0       0       0       0       0       0       0
Total ram usage:       13 bytes
 Hardware stack levels used:    1
 Hardware stack levels required when called:    1
 This function calls:
		i2___awdiv
		i2___awmod
		i2___flmul
 This function is called by:
		i2__doprnt
 This function uses a non-reentrant model


 *************** function i2___awmod *****************
 Defined at:
		line 8 in file "C:\Program Files (x86)\Microchip\xc8\v1.45\sources\common\awmod.c"
 Parameters:    Size  Location     Type
  dividend        2    0[COMRAM] int 
  divisor         2    2[COMRAM] int 
 Auto vars:     Size  Location     Type
  __awmod         1    5[COMRAM] unsigned char 
  __awmod         1    4[COMRAM] unsigned char 
 Return value:  Size  Location     Type
                  2    0[COMRAM] int 
 Registers used:
		wreg, status,2, status,0
 Tracked objects:
		On entry : 
		On exit  : 
		Unchanged: 
 Data sizes:     COMRAM   BANK0   BANK1   BANK2   BANK3   BANK4   BANK5   BANK6   BANK7   BANK8   BANK9  BANK10  BANK11  BANK12  BANK13
      Params:         4       0       0       0       0       0       0       0       0       0       0       0       0       0       0
      Locals:         2       0       0       0       0       0       0       0       0       0       0       0       0       0       0
      Temps:          0       0       0       0       0       0       0       0       0       0       0       0       0       0       0
      Totals:         6       0       0       0       0       0       0       0       0       0       0       0       0       0       0
Total ram usage:        6 bytes
 Hardware stack levels used:    1
 This function calls:
		Nothing
 This function is called by:
		i2_fround
		i2_scale
		i2__doprnt
 This function uses a non-reentrant model


 *************** function i2___awdiv *****************
 Defined at:
		line 8 in file "C:\Program Files (x86)\Microchip\xc8\v1.45\sources\common\awdiv.c"
 Parameters:    Size  Location     Type
  dividend        2    6[COMRAM] int 
  divisor         2    8[COMRAM] int 
 Auto vars:     Size  Location     Type
  __awdiv         2   12[COMRAM] int 
  __awdiv         1   11[COMRAM] unsigned char 
  __awdiv         1   10[COMRAM] unsigned char 
 Return value:  Size  Location     Type
                  2    6[COMRAM] int 
 Registers used:
		wreg, status,2, status,0
 Tracked objects:
		On entry : 
		On exit  : 
		Unchanged: 
 Data sizes:     COMRAM   BANK0   BANK1   BANK2   BANK3   BANK4   BANK5   BANK6   BANK7   BANK8   BANK9  BANK10  BANK11  BANK12  BANK13
      Params:         4       0       0       0       0       0       0       0       0       0       0       0       0       0       0
      Locals:         4       0       0       0       0       0       0       0       0       0       0       0       0       0       0
      Temps:          0       0       0       0       0       0       0       0       0       0       0       0       0       0       0
      Totals:         8       0       0       0       0       0       0       0       0       0       0       0       0       0       0
Total ram usage:        8 bytes
 Hardware stack levels used:    1
 This function calls:
		Nothing
 This function is called by:
		i2_fround
		i2_scale
		i2__doprnt
 This function uses a non-reentrant model


 *************** function i2__tdiv_to_l_ *****************
 Defined at:
		line 60 in file "C:\Program Files (x86)\Microchip\xc8\v1.45\sources\common\ftdivl.c"
 Parameters:    Size  Location     Type
  f1              3    0[COMRAM] float 
  f2              3    3[COMRAM] float 
 Auto vars:     Size  Location     Type
  _tdiv_to_l_     4    9[COMRAM] unsigned long 
  _tdiv_to_l_     1   14[COMRAM] unsigned char 
  _tdiv_to_l_     1   13[COMRAM] unsigned char 
 Return value:  Size  Location     Type
                  4    0[COMRAM] unsigned long 
 Registers used:
		wreg, status,2, status,0
 Tracked objects:
		On entry : 
		On exit  : 
		Unchanged: 
 Data sizes:     COMRAM   BANK0   BANK1   BANK2   BANK3   BANK4   BANK5   BANK6   BANK7   BANK8   BANK9  BANK10  BANK11  BANK12  BANK13
      Params:         6       0       0       0       0       0       0       0       0       0       0       0       0       0       0
      Locals:         6       0       0       0       0       0       0       0       0       0       0       0       0       0       0
      Temps:          3       0       0       0       0       0       0       0       0       0       0       0       0       0       0
      Totals:        15       0       0       0       0       0       0       0       0       0       0       0       0       0       0
Total ram usage:       15 bytes
 Hardware stack levels used:    1
 This function calls:
		Nothing
 This function is called by:
		i2__doprnt
 This function uses a non-reentrant model


 *************** function i2__div_to_l_ *****************
 Defined at:
		line 60 in file "C:\Program Files (x86)\Microchip\xc8\v1.45\sources\common\fldivl.c"
 Parameters:    Size  Location     Type
  f1              4    0[COMRAM] unsigned long 
  f2              4    4[COMRAM] unsigned long 
 Auto vars:     Size  Location     Type
  _div_to_l_      4    8[COMRAM] unsigned long 
  _div_to_l_      1   13[COMRAM] unsigned char 
  _div_to_l_      1   12[COMRAM] unsigned char 
 Return value:  Size  Location     Type
                  4    0[COMRAM] unsigned long 
 Registers used:
		wreg, status,2, status,0
 Tracked objects:
		On entry : 
		On exit  : 
		Unchanged: 
 Data sizes:     COMRAM   BANK0   BANK1   BANK2   BANK3   BANK4   BANK5   BANK6   BANK7   BANK8   BANK9  BANK10  BANK11  BANK12  BANK13
      Params:         8       0       0       0       0       0       0       0       0       0       0       0       0       0       0
      Locals:         6       0       0       0       0       0       0       0       0       0       0       0       0       0       0
      Temps:          0       0       0       0       0       0       0       0       0       0       0       0       0       0       0
      Totals:        14       0       0       0       0       0       0       0       0       0       0       0       0       0       0
Total ram usage:       14 bytes
 Hardware stack levels used:    1
 This function calls:
		Nothing
 This function is called by:
		i2__doprnt
 This function uses a non-reentrant model


 *************** function i2___wmul *****************
 Defined at:
		line 15 in file "C:\Program Files (x86)\Microchip\xc8\v1.45\sources\common\Umul16.c"
 Parameters:    Size  Location     Type
  multiplier      2    0[COMRAM] unsigned int 
  multiplicand    2    2[COMRAM] unsigned int 
 Auto vars:     Size  Location     Type
  __wmul          2    4[COMRAM] unsigned int 
 Return value:  Size  Location     Type
                  2    0[COMRAM] unsigned int 
 Registers used:
		wreg, status,2, status,0, prodl, prodh
 Tracked objects:
		On entry : 
		On exit  : 
		Unchanged: 
 Data sizes:     COMRAM   BANK0   BANK1   BANK2   BANK3   BANK4   BANK5   BANK6   BANK7   BANK8   BANK9  BANK10  BANK11  BANK12  BANK13
      Params:         4       0       0       0       0       0       0       0       0       0       0       0       0       0       0
      Locals:         2       0       0       0       0       0       0       0       0       0       0       0       0       0       0
      Temps:          0       0       0       0       0       0       0       0       0       0       0       0       0       0       0
      Totals:         6       0       0       0       0       0       0       0       0       0       0       0       0       0       0
Total ram usage:        6 bytes
 Hardware stack levels used:    1
 This function calls:
		Nothing
 This function is called by:
		i2__doprnt
 This function uses a non-reentrant model


 *************** function i2___llmod *****************
 Defined at:
		line 8 in file "C:\Program Files (x86)\Microchip\xc8\v1.45\sources\common\llmod.c"
 Parameters:    Size  Location     Type
  dividend        4   13[COMRAM] unsigned long 
  divisor         4   17[COMRAM] unsigned long 
 Auto vars:     Size  Location     Type
  __llmod         1   21[COMRAM] unsigned char 
 Return value:  Size  Location     Type
                  4   13[COMRAM] unsigned long 
 Registers used:
		wreg, status,2, status,0
 Tracked objects:
		On entry : 
		On exit  : 
		Unchanged: 
 Data sizes:     COMRAM   BANK0   BANK1   BANK2   BANK3   BANK4   BANK5   BANK6   BANK7   BANK8   BANK9  BANK10  BANK11  BANK12  BANK13
      Params:         8       0       0       0       0       0       0       0       0       0       0       0       0       0       0
      Locals:         1       0       0       0       0       0       0       0       0       0       0       0       0       0       0
      Temps:          0       0       0       0       0       0       0       0       0       0       0       0       0       0       0
      Totals:         9       0       0       0       0       0       0       0       0       0       0       0       0       0       0
Total ram usage:        9 bytes
 Hardware stack levels used:    1
 This function calls:
		Nothing
 This function is called by:
		i2__doprnt
 This function uses a non-reentrant model


 *************** function i2___lldiv *****************
 Defined at:
		line 8 in file "C:\Program Files (x86)\Microchip\xc8\v1.45\sources\common\lldiv.c"
 Parameters:    Size  Location     Type
  dividend        4    0[COMRAM] unsigned long 
  divisor         4    4[COMRAM] unsigned long 
 Auto vars:     Size  Location     Type
  __lldiv         4    8[COMRAM] unsigned long 
  __lldiv         1   12[COMRAM] unsigned char 
 Return value:  Size  Location     Type
                  4    0[COMRAM] unsigned long 
 Registers used:
		wreg, status,2, status,0
 Tracked objects:
		On entry : 
		On exit  : 
		Unchanged: 
 Data sizes:     COMRAM   BANK0   BANK1   BANK2   BANK3   BANK4   BANK5   BANK6   BANK7   BANK8   BANK9  BANK10  BANK11  BANK12  BANK13
      Params:         8       0       0       0       0       0       0       0       0       0       0       0       0       0       0
      Locals:         5       0       0       0       0       0       0       0       0       0       0       0       0       0       0
      Temps:          0       0       0       0       0       0       0       0       0       0       0       0       0       0       0
      Totals:        13       0       0       0       0       0       0       0       0       0       0       0       0       0       0
Total ram usage:       13 bytes
 Hardware stack levels used:    1
 This function calls:
		Nothing
 This function is called by:
		i2__doprnt
 This function uses a non-reentrant model


 *************** function _ADCC_ThresholdISR *****************
 Defined at:
		line 301 in file "mcc_generated_files/adcc.c"
 Parameters:    Size  Location     Type
		None
 Auto vars:     Size  Location     Type
		None
 Return value:  Size  Location     Type
                  1    wreg      void 
 Registers used:
		wreg, fsr2l, fsr2h, status,2, status,0, pclath, tosl, tblptrl, tblptrh, tblptru, prodl, prodh, cstack
 Tracked objects:
		On entry : 
		On exit  : 
		Unchanged: 
 Data sizes:     COMRAM   BANK0   BANK1   BANK2   BANK3   BANK4   BANK5   BANK6   BANK7   BANK8   BANK9  BANK10  BANK11  BANK12  BANK13
      Params:         0       0       0       0       0       0       0       0       0       0       0       0       0       0       0
      Locals:         0       0       0       0       0       0       0       0       0       0       0       0       0       0       0
      Temps:          0       0       0       0       0       0       0       0       0       0       0       0       0       0       0
      Totals:         0       0       0       0       0       0       0       0       0       0       0       0       0       0       0
Total ram usage:        0 bytes
 Hardware stack levels used:    1
 Hardware stack levels required when called:    7
 This function calls:
		Absolute function
		_ADCC_DefaultInterruptHandler
		_ADC_PostProcessingCallback
 This function is called by:
		_INTERRUPT_InterruptManagerHigh
 This function uses a non-reentrant model


 *************** function _ADCC_DefaultInterruptHandler *****************
 Defined at:
		line 313 in file "mcc_generated_files/adcc.c"
 Parameters:    Size  Location     Type
		None
 Auto vars:     Size  Location     Type
		None
 Return value:  Size  Location     Type
                  1    wreg      void 
 Registers used:
		None
 Tracked objects:
		On entry : 
		On exit  : 
		Unchanged: 
 Data sizes:     COMRAM   BANK0   BANK1   BANK2   BANK3   BANK4   BANK5   BANK6   BANK7   BANK8   BANK9  BANK10  BANK11  BANK12  BANK13
      Params:         0       0       0       0       0       0       0       0       0       0       0       0       0       0       0
      Locals:         0       0       0       0       0       0       0       0       0       0       0       0       0       0       0
      Temps:          0       0       0       0       0       0       0       0       0       0       0       0       0       0       0
      Totals:         0       0       0       0       0       0       0       0       0       0       0       0       0       0       0
Total ram usage:        0 bytes
 Hardware stack levels used:    1
 This function calls:
		Nothing
 This function is called by:
		_ADCC_Initialize
		_ADCC_ThresholdISR
 This function uses a non-reentrant model


 *************** function _ADC_PostProcessingCallback *****************
 Defined at:
		line 242 in file "main.c"
 Parameters:    Size  Location     Type
		None
 Auto vars:     Size  Location     Type
  current_adc_    1  134[BANK0 ] enum E17657
 Return value:  Size  Location     Type
                  1    wreg      void 
 Registers used:
		wreg, fsr2l, fsr2h, status,2, status,0, tblptrl, tblptrh, tblptru, prodl, prodh, cstack
 Tracked objects:
		On entry : 
		On exit  : 
		Unchanged: 
 Data sizes:     COMRAM   BANK0   BANK1   BANK2   BANK3   BANK4   BANK5   BANK6   BANK7   BANK8   BANK9  BANK10  BANK11  BANK12  BANK13
      Params:         0       0       0       0       0       0       0       0       0       0       0       0       0       0       0
      Locals:         0      17       0       0       0       0       0       0       0       0       0       0       0       0       0
      Temps:          0       0       0       0       0       0       0       0       0       0       0       0       0       0       0
      Totals:         0      17       0       0       0       0       0       0       0       0       0       0       0       0       0
Total ram usage:       17 bytes
 Hardware stack levels used:    1
 Hardware stack levels required when called:    6
 This function calls:
		_ADCC_GetConversionResult
		_ADCC_GetCurrentCountofConversions
		_ADCC_GetFilterValue
		_ADCC_HasAccumulatorOverflowed
		_ADCC_StopConversion
		_currentMeasuredToPeak
		_peakToRMS
		i2___fladd
		i2___fldiv
		i2___flge
		i2___flmul
		i2___flneg
		i2___xxtofl
		i2_sqrt
 This function is called by:
		_main
		_ADCC_ThresholdISR
 This function uses a non-reentrant model


 *************** function _peakToRMS *****************
 Defined at:
		line 131 in file "main.c"
 Parameters:    Size  Location     Type
  Peak            4   98[BANK0 ] void 
  Angle           4  102[BANK0 ] void 
 Auto vars:     Size  Location     Type
  RMS             4  118[BANK0 ] void 
 Return value:  Size  Location     Type
                  4   98[BANK0 ] void 
 Registers used:
		wreg, fsr2l, fsr2h, status,2, status,0, tblptrl, tblptrh, tblptru, prodl, prodh, cstack
 Tracked objects:
		On entry : 
		On exit  : 
		Unchanged: 
 Data sizes:     COMRAM   BANK0   BANK1   BANK2   BANK3   BANK4   BANK5   BANK6   BANK7   BANK8   BANK9  BANK10  BANK11  BANK12  BANK13
      Params:         0       8       0       0       0       0       0       0       0       0       0       0       0       0       0
      Locals:         0      16       0       0       0       0       0       0       0       0       0       0       0       0       0
      Temps:          0       0       0       0       0       0       0       0       0       0       0       0       0       0       0
      Totals:         0      24       0       0       0       0       0       0       0       0       0       0       0       0       0
Total ram usage:       24 bytes
 Hardware stack levels used:    1
 Hardware stack levels required when called:    5
 This function calls:
		_sin
		i2___fladd
		i2___fldiv
		i2___flmul
		i2___flneg
		i2_acos
		i2_sqrt
 This function is called by:
		_ADC_PostProcessingCallback
 This function uses a non-reentrant model


 *************** function i2_acos *****************
 Defined at:
		line 8 in file "C:\Program Files (x86)\Microchip\xc8\v1.45\sources\common\acos.c"
 Parameters:    Size  Location     Type
  x               4   90[BANK0 ] void 
 Auto vars:     Size  Location     Type
		None
 Return value:  Size  Location     Type
                  4   90[BANK0 ] void 
 Registers used:
		wreg, status,2, status,0, tblptrl, tblptrh, tblptru, prodl, prodh, cstack
 Tracked objects:
		On entry : 
		On exit  : 
		Unchanged: 
 Data sizes:     COMRAM   BANK0   BANK1   BANK2   BANK3   BANK4   BANK5   BANK6   BANK7   BANK8   BANK9  BANK10  BANK11  BANK12  BANK13
      Params:         0       4       0       0       0       0       0       0       0       0       0       0       0       0       0
      Locals:         0       4       0       0       0       0       0       0       0       0       0       0       0       0       0
      Temps:          0       0       0       0       0       0       0       0       0       0       0       0       0       0       0
      Totals:         0       8       0       0       0       0       0       0       0       0       0       0       0       0       0
Total ram usage:        8 bytes
 Hardware stack levels used:    1
 Hardware stack levels required when called:    4
 This function calls:
		i2___fladd
		i2___flneg
		i2_asin
 This function is called by:
		_peakToRMS
 This function uses a non-reentrant model


 *************** function i2_asin *****************
 Defined at:
		line 9 in file "C:\Program Files (x86)\Microchip\xc8\v1.45\sources\common\asin.c"
 Parameters:    Size  Location     Type
  x               4   66[BANK0 ] void 
 Auto vars:     Size  Location     Type
  asin            4   82[BANK0 ] void 
  asin            4   70[BANK0 ] void 
 Return value:  Size  Location     Type
                  4   66[BANK0 ] void 
 Registers used:
		wreg, status,2, status,0, tblptrl, tblptrh, tblptru, prodl, prodh, cstack
 Tracked objects:
		On entry : 
		On exit  : 
		Unchanged: 
 Data sizes:     COMRAM   BANK0   BANK1   BANK2   BANK3   BANK4   BANK5   BANK6   BANK7   BANK8   BANK9  BANK10  BANK11  BANK12  BANK13
      Params:         0       4       0       0       0       0       0       0       0       0       0       0       0       0       0
      Locals:         0      20       0       0       0       0       0       0       0       0       0       0       0       0       0
      Temps:          0       0       0       0       0       0       0       0       0       0       0       0       0       0       0
      Totals:         0      24       0       0       0       0       0       0       0       0       0       0       0       0       0
Total ram usage:       24 bytes
 Hardware stack levels used:    1
 Hardware stack levels required when called:    3
 This function calls:
		i2___fladd
		i2___fldiv
		i2___flge
		i2___flmul
		i2___flneg
		i2_atan
		i2_fabs
		i2_sqrt
 This function is called by:
		i2_acos
 This function uses a non-reentrant model


 *************** function i2_sqrt *****************
 Defined at:
		line 9 in file "C:\Program Files (x86)\Microchip\xc8\v1.45\sources\common\sprcsqrt.c"
 Parameters:    Size  Location     Type
  a               4   39[COMRAM] void 
 Auto vars:     Size  Location     Type
  sqrt            4   64[COMRAM] unsigned long 
  sqrt            4   60[COMRAM] struct .
  sqrt            4   54[COMRAM] unsigned long 
  sqrt            4   49[COMRAM] unsigned long 
  sqrt            2   58[COMRAM] int 
  sqrt            1   53[COMRAM] unsigned char 
  sqrt            1   48[COMRAM] unsigned char 
  sqrt            1   47[COMRAM] unsigned char 
 Return value:  Size  Location     Type
                  4   39[COMRAM] unsigned char 
 Registers used:
		wreg, status,2, status,0
 Tracked objects:
		On entry : 
		On exit  : 
		Unchanged: 
 Data sizes:     COMRAM   BANK0   BANK1   BANK2   BANK3   BANK4   BANK5   BANK6   BANK7   BANK8   BANK9  BANK10  BANK11  BANK12  BANK13
      Params:         4       0       0       0       0       0       0       0       0       0       0       0       0       0       0
      Locals:        21       0       0       0       0       0       0       0       0       0       0       0       0       0       0
      Temps:          4       0       0       0       0       0       0       0       0       0       0       0       0       0       0
      Totals:        29       0       0       0       0       0       0       0       0       0       0       0       0       0       0
Total ram usage:       29 bytes
 Hardware stack levels used:    1
 This function calls:
		Nothing
 This function is called by:
		_peakToRMS
		_ADC_PostProcessingCallback
		i2_asin
 This function uses a non-reentrant model


 *************** function i2_atan *****************
 Defined at:
		line 8 in file "C:\Program Files (x86)\Microchip\xc8\v1.45\sources\common\atan.c"
 Parameters:    Size  Location     Type
  f               4   45[BANK0 ] unsigned char 
 Auto vars:     Size  Location     Type
  atan            4   62[BANK0 ] unsigned char 
  atan            4   58[BANK0 ] unsigned char 
  atan            4   53[BANK0 ] unsigned char 
  atan            4   49[BANK0 ] unsigned char 
  atan            1   57[BANK0 ] unsigned char 
 Return value:  Size  Location     Type
                  4   45[BANK0 ] unsigned char 
 Registers used:
		wreg, status,2, status,0, tblptrl, tblptrh, tblptru, prodl, prodh, cstack
 Tracked objects:
		On entry : 
		On exit  : 
		Unchanged: 
 Data sizes:     COMRAM   BANK0   BANK1   BANK2   BANK3   BANK4   BANK5   BANK6   BANK7   BANK8   BANK9  BANK10  BANK11  BANK12  BANK13
      Params:         0       4       0       0       0       0       0       0       0       0       0       0       0       0       0
      Locals:         0      17       0       0       0       0       0       0       0       0       0       0       0       0       0
      Temps:          0       0       0       0       0       0       0       0       0       0       0       0       0       0       0
      Totals:         0      21       0       0       0       0       0       0       0       0       0       0       0       0       0
Total ram usage:       21 bytes
 Hardware stack levels used:    1
 Hardware stack levels required when called:    2
 This function calls:
		i2___fladd
		i2___fldiv
		i2___flge
		i2___flmul
		i2___flneg
		i2_eval_poly
		i2_fabs
 This function is called by:
		i2_asin
 This function uses a non-reentrant model


 *************** function i2_fabs *****************
 Defined at:
		line 4 in file "C:\Program Files (x86)\Microchip\xc8\v1.45\sources\common\fabs.c"
 Parameters:    Size  Location     Type
  d               4   88[COMRAM] unsigned char 
 Auto vars:     Size  Location     Type
		None
 Return value:  Size  Location     Type
                  4   88[COMRAM] unsigned char 
 Registers used:
		wreg, status,2, status,0, cstack
 Tracked objects:
		On entry : 
		On exit  : 
		Unchanged: 
 Data sizes:     COMRAM   BANK0   BANK1   BANK2   BANK3   BANK4   BANK5   BANK6   BANK7   BANK8   BANK9  BANK10  BANK11  BANK12  BANK13
      Params:         4       0       0       0       0       0       0       0       0       0       0       0       0       0       0
      Locals:         0       0       0       0       0       0       0       0       0       0       0       0       0       0       0
      Temps:          0       0       0       0       0       0       0       0       0       0       0       0       0       0       0
      Totals:         4       0       0       0       0       0       0       0       0       0       0       0       0       0       0
Total ram usage:        4 bytes
 Hardware stack levels used:    1
 Hardware stack levels required when called:    1
 This function calls:
		i2___flneg
 This function is called by:
		i2_asin
		i2_atan
 This function uses a non-reentrant model


 *************** function _currentMeasuredToPeak *****************
 Defined at:
		line 148 in file "main.c"
 Parameters:    Size  Location     Type
  Measured        4   76[BANK0 ] unsigned char 
  Angle           4   80[BANK0 ] unsigned char 
 Auto vars:     Size  Location     Type
  Peak            4   84[BANK0 ] unsigned char 
 Return value:  Size  Location     Type
                  4   76[BANK0 ] unsigned char 
 Registers used:
		wreg, fsr2l, fsr2h, status,2, status,0, tblptrl, tblptrh, tblptru, prodl, prodh, cstack
 Tracked objects:
		On entry : 
		On exit  : 
		Unchanged: 
 Data sizes:     COMRAM   BANK0   BANK1   BANK2   BANK3   BANK4   BANK5   BANK6   BANK7   BANK8   BANK9  BANK10  BANK11  BANK12  BANK13
      Params:         0       8       0       0       0       0       0       0       0       0       0       0       0       0       0
      Locals:         0       4       0       0       0       0       0       0       0       0       0       0       0       0       0
      Temps:          0       0       0       0       0       0       0       0       0       0       0       0       0       0       0
      Totals:         0      12       0       0       0       0       0       0       0       0       0       0       0       0       0
Total ram usage:       12 bytes
 Hardware stack levels used:    1
 Hardware stack levels required when called:    3
 This function calls:
		_sin
		i2___fldiv
 This function is called by:
		_ADC_PostProcessingCallback
 This function uses a non-reentrant model


 *************** function _sin *****************
 Defined at:
		line 13 in file "C:\Program Files (x86)\Microchip\xc8\v1.45\sources\common\sin.c"
 Parameters:    Size  Location     Type
  f               4   59[BANK0 ] unsigned char 
 Auto vars:     Size  Location     Type
  x2              4   71[BANK0 ] unsigned char 
  y               4   63[BANK0 ] unsigned char 
  sgn             1   75[BANK0 ] unsigned char 
 Return value:  Size  Location     Type
                  4   59[BANK0 ] unsigned char 
 Registers used:
		wreg, fsr2l, fsr2h, status,2, status,0, tblptrl, tblptrh, tblptru, prodl, prodh, cstack
 Tracked objects:
		On entry : 
		On exit  : 
		Unchanged: 
 Data sizes:     COMRAM   BANK0   BANK1   BANK2   BANK3   BANK4   BANK5   BANK6   BANK7   BANK8   BANK9  BANK10  BANK11  BANK12  BANK13
      Params:         0       4       0       0       0       0       0       0       0       0       0       0       0       0       0
      Locals:         0      13       0       0       0       0       0       0       0       0       0       0       0       0       0
      Temps:          0       0       0       0       0       0       0       0       0       0       0       0       0       0       0
      Totals:         0      17       0       0       0       0       0       0       0       0       0       0       0       0       0
Total ram usage:       17 bytes
 Hardware stack levels used:    1
 Hardware stack levels required when called:    2
 This function calls:
		_floor
		i2___fladd
		i2___fldiv
		i2___flge
		i2___flmul
		i2___flneg
		i2___flsub
		i2_eval_poly
 This function is called by:
		_peakToRMS
		_currentMeasuredToPeak
 This function uses a non-reentrant model


 *************** function i2_eval_poly *****************
 Defined at:
		line 4 in file "C:\Program Files (x86)\Microchip\xc8\v1.45\sources\common\evalpoly.c"
 Parameters:    Size  Location     Type
  x               4   29[BANK0 ] unsigned char 
  d               2   33[BANK0 ] PTR const 
		 -> sin@coeff_a(20), sin@coeff_b(16), atan@coeff_a(24), atan@coeff_b(20), 
  n               2   35[BANK0 ] int 
 Auto vars:     Size  Location     Type
  eval_poly       4   41[BANK0 ] int 
 Return value:  Size  Location     Type
                  4   29[BANK0 ] int 
 Registers used:
		wreg, status,2, status,0, tblptrl, tblptrh, tblptru, prodl, prodh, cstack
 Tracked objects:
		On entry : 
		On exit  : 
		Unchanged: 
 Data sizes:     COMRAM   BANK0   BANK1   BANK2   BANK3   BANK4   BANK5   BANK6   BANK7   BANK8   BANK9  BANK10  BANK11  BANK12  BANK13
      Params:         0       8       0       0       0       0       0       0       0       0       0       0       0       0       0
      Locals:         0       4       0       0       0       0       0       0       0       0       0       0       0       0       0
      Temps:          0       4       0       0       0       0       0       0       0       0       0       0       0       0       0
      Totals:         0      16       0       0       0       0       0       0       0       0       0       0       0       0       0
Total ram usage:       16 bytes
 Hardware stack levels used:    1
 Hardware stack levels required when called:    1
 This function calls:
		i2___fladd
		i2___flmul
 This function is called by:
		_sin
		i2_atan
 This function uses a non-reentrant model


 *************** function i2___flmul *****************
 Defined at:
		line 8 in file "C:\Program Files (x86)\Microchip\xc8\v1.45\sources\common\sprcmul.c"
 Parameters:    Size  Location     Type
  b               4   14[COMRAM] int 
  a               4   18[COMRAM] int 
 Auto vars:     Size  Location     Type
  __flmul         4   33[COMRAM] struct .
  __flmul         4   28[COMRAM] unsigned long 
  __flmul         2   37[COMRAM] struct .
  __flmul         1   32[COMRAM] unsigned char 
  __flmul         1   27[COMRAM] unsigned char 
  __flmul         1   26[COMRAM] unsigned char 
 Return value:  Size  Location     Type
                  4   14[COMRAM] unsigned char 
 Registers used:
		wreg, status,2, status,0, prodl, prodh
 Tracked objects:
		On entry : 
		On exit  : 
		Unchanged: 
 Data sizes:     COMRAM   BANK0   BANK1   BANK2   BANK3   BANK4   BANK5   BANK6   BANK7   BANK8   BANK9  BANK10  BANK11  BANK12  BANK13
      Params:         8       0       0       0       0       0       0       0       0       0       0       0       0       0       0
      Locals:        13       0       0       0       0       0       0       0       0       0       0       0       0       0       0
      Temps:          4       0       0       0       0       0       0       0       0       0       0       0       0       0       0
      Totals:        25       0       0       0       0       0       0       0       0       0       0       0       0       0       0
Total ram usage:       25 bytes
 Hardware stack levels used:    1
 This function calls:
		Nothing
 This function is called by:
		_peakToRMS
		_ADC_PostProcessingCallback
		_sin
		i2_fround
		i2_scale
		i2__doprnt
		i2_asin
		i2_atan
		i2_eval_poly
 This function uses a non-reentrant model


 *************** function i2___flsub *****************
 Defined at:
		line 245 in file "C:\Program Files (x86)\Microchip\xc8\v1.45\sources\common\sprcadd.c"
 Parameters:    Size  Location     Type
  b               4   51[BANK0 ] unsigned char 
  a               4   55[BANK0 ] unsigned char 
 Auto vars:     Size  Location     Type
		None
 Return value:  Size  Location     Type
                  4   51[BANK0 ] unsigned char 
 Registers used:
		wreg, status,2, status,0, cstack
 Tracked objects:
		On entry : 
		On exit  : 
		Unchanged: 
 Data sizes:     COMRAM   BANK0   BANK1   BANK2   BANK3   BANK4   BANK5   BANK6   BANK7   BANK8   BANK9  BANK10  BANK11  BANK12  BANK13
      Params:         0       8       0       0       0       0       0       0       0       0       0       0       0       0       0
      Locals:         0       0       0       0       0       0       0       0       0       0       0       0       0       0       0
      Temps:          0       0       0       0       0       0       0       0       0       0       0       0       0       0       0
      Totals:         0       8       0       0       0       0       0       0       0       0       0       0       0       0       0
Total ram usage:        8 bytes
 Hardware stack levels used:    1
 Hardware stack levels required when called:    1
 This function calls:
		i2___fladd
 This function is called by:
		_sin
		i2__doprnt
 This function uses a non-reentrant model


 *************** function i2___flneg *****************
 Defined at:
		line 15 in file "C:\Program Files (x86)\Microchip\xc8\v1.45\sources\common\flneg.c"
 Parameters:    Size  Location     Type
  f1              4   84[COMRAM] unsigned char 
 Auto vars:     Size  Location     Type
		None
 Return value:  Size  Location     Type
                  4   84[COMRAM] unsigned char 
 Registers used:
		wreg, status,2, status,0
 Tracked objects:
		On entry : 
		On exit  : 
		Unchanged: 
 Data sizes:     COMRAM   BANK0   BANK1   BANK2   BANK3   BANK4   BANK5   BANK6   BANK7   BANK8   BANK9  BANK10  BANK11  BANK12  BANK13
      Params:         4       0       0       0       0       0       0       0       0       0       0       0       0       0       0
      Locals:         0       0       0       0       0       0       0       0       0       0       0       0       0       0       0
      Temps:          0       0       0       0       0       0       0       0       0       0       0       0       0       0       0
      Totals:         4       0       0       0       0       0       0       0       0       0       0       0       0       0       0
Total ram usage:        4 bytes
 Hardware stack levels used:    1
 This function calls:
		Nothing
 This function is called by:
		_peakToRMS
		_ADC_PostProcessingCallback
		_sin
		i2__doprnt
		i2_acos
		i2_asin
		i2_atan
		i2_fabs
 This function uses a non-reentrant model


 *************** function i2___fldiv *****************
 Defined at:
		line 11 in file "C:\Program Files (x86)\Microchip\xc8\v1.45\sources\common\sprcdiv.c"
 Parameters:    Size  Location     Type
  b               4   72[COMRAM] unsigned char 
  a               4   76[COMRAM] unsigned char 
 Auto vars:     Size  Location     Type
  __fldiv         4    7[BANK0 ] unsigned long 
  __fldiv         4    1[BANK0 ] unsigned long 
  __fldiv         2    5[BANK0 ] int 
  __fldiv         1   12[BANK0 ] unsigned char 
  __fldiv         1   11[BANK0 ] unsigned char 
  __fldiv         1    0[BANK0 ] unsigned char 
 Return value:  Size  Location     Type
                  4   72[COMRAM] unsigned char 
 Registers used:
		wreg, status,2, status,0
 Tracked objects:
		On entry : 
		On exit  : 
		Unchanged: 
 Data sizes:     COMRAM   BANK0   BANK1   BANK2   BANK3   BANK4   BANK5   BANK6   BANK7   BANK8   BANK9  BANK10  BANK11  BANK12  BANK13
      Params:         8       0       0       0       0       0       0       0       0       0       0       0       0       0       0
      Locals:         0      13       0       0       0       0       0       0       0       0       0       0       0       0       0
      Temps:          4       0       0       0       0       0       0       0       0       0       0       0       0       0       0
      Totals:        12      13       0       0       0       0       0       0       0       0       0       0       0       0       0
Total ram usage:       25 bytes
 Hardware stack levels used:    1
 This function calls:
		Nothing
 This function is called by:
		_peakToRMS
		_currentMeasuredToPeak
		_ADC_PostProcessingCallback
		_sin
		i2__doprnt
		i2_asin
		i2_atan
 This function uses a non-reentrant model


 *************** function _floor *****************
 Defined at:
		line 13 in file "C:\Program Files (x86)\Microchip\xc8\v1.45\sources\common\floor.c"
 Parameters:    Size  Location     Type
  x               4   41[BANK0 ] unsigned char 
 Auto vars:     Size  Location     Type
  i               4   45[BANK0 ] unsigned char 
  expon           2   49[BANK0 ] int 
 Return value:  Size  Location     Type
                  4   41[BANK0 ] int 
 Registers used:
		wreg, fsr2l, fsr2h, status,2, status,0, cstack
 Tracked objects:
		On entry : 
		On exit  : 
		Unchanged: 
 Data sizes:     COMRAM   BANK0   BANK1   BANK2   BANK3   BANK4   BANK5   BANK6   BANK7   BANK8   BANK9  BANK10  BANK11  BANK12  BANK13
      Params:         0       4       0       0       0       0       0       0       0       0       0       0       0       0       0
      Locals:         0       6       0       0       0       0       0       0       0       0       0       0       0       0       0
      Temps:          0       0       0       0       0       0       0       0       0       0       0       0       0       0       0
      Totals:         0      10       0       0       0       0       0       0       0       0       0       0       0       0       0
Total ram usage:       10 bytes
 Hardware stack levels used:    1
 Hardware stack levels required when called:    1
 This function calls:
		i2___fladd
		i2___flge
		i2___fltol
		i2___xxtofl
		i2_frexp
 This function is called by:
		_sin
 This function uses a non-reentrant model


 *************** function i2_frexp *****************
 Defined at:
		line 254 in file "C:\Program Files (x86)\Microchip\xc8\v1.45\sources\common\frexp.c"
 Parameters:    Size  Location     Type
  value           4    0[COMRAM] int 
  eptr            2    4[COMRAM] PTR int 
		 -> floor@expon(2), trunc@expon(2), 
 Auto vars:     Size  Location     Type
		None
 Return value:  Size  Location     Type
                  4    0[COMRAM] PTR int 
 Registers used:
		wreg, fsr2l, fsr2h, status,2, status,0
 Tracked objects:
		On entry : 
		On exit  : 
		Unchanged: 
 Data sizes:     COMRAM   BANK0   BANK1   BANK2   BANK3   BANK4   BANK5   BANK6   BANK7   BANK8   BANK9  BANK10  BANK11  BANK12  BANK13
      Params:         6       0       0       0       0       0       0       0       0       0       0       0       0       0       0
      Locals:         0       0       0       0       0       0       0       0       0       0       0       0       0       0       0
      Temps:          2       0       0       0       0       0       0       0       0       0       0       0       0       0       0
      Totals:         8       0       0       0       0       0       0       0       0       0       0       0       0       0       0
Total ram usage:        8 bytes
 Hardware stack levels used:    1
 This function calls:
		Nothing
 This function is called by:
		_floor
 This function uses a non-reentrant model


 *************** function i2___xxtofl *****************
 Defined at:
		line 10 in file "C:\Program Files (x86)\Microchip\xc8\v1.45\sources\common\xxtofl.c"
 Parameters:    Size  Location     Type
  sign            1    wreg     unsigned char 
  val             4   58[COMRAM] long 
 Auto vars:     Size  Location     Type
  sign            1   66[COMRAM] unsigned char 
  __xxtofl        4   68[COMRAM] unsigned long 
  __xxtofl        1   67[COMRAM] unsigned char 
 Return value:  Size  Location     Type
                  4   58[COMRAM] unsigned char 
 Registers used:
		wreg, status,2, status,0
 Tracked objects:
		On entry : 
		On exit  : 
		Unchanged: 
 Data sizes:     COMRAM   BANK0   BANK1   BANK2   BANK3   BANK4   BANK5   BANK6   BANK7   BANK8   BANK9  BANK10  BANK11  BANK12  BANK13
      Params:         4       0       0       0       0       0       0       0       0       0       0       0       0       0       0
      Locals:         6       0       0       0       0       0       0       0       0       0       0       0       0       0       0
      Temps:          4       0       0       0       0       0       0       0       0       0       0       0       0       0       0
      Totals:        14       0       0       0       0       0       0       0       0       0       0       0       0       0       0
Total ram usage:       14 bytes
 Hardware stack levels used:    1
 This function calls:
		Nothing
 This function is called by:
		_ADC_PostProcessingCallback
		_floor
		i2__doprnt
 This function uses a non-reentrant model


 *************** function i2___fltol *****************
 Defined at:
		line 43 in file "C:\Program Files (x86)\Microchip\xc8\v1.45\sources\common\fltol.c"
 Parameters:    Size  Location     Type
  f1              4   48[COMRAM] unsigned char 
 Auto vars:     Size  Location     Type
  __fltol         1   57[COMRAM] unsigned char 
  __fltol         1   56[COMRAM] unsigned char 
 Return value:  Size  Location     Type
                  4   48[COMRAM] long 
 Registers used:
		wreg, status,2, status,0
 Tracked objects:
		On entry : 
		On exit  : 
		Unchanged: 
 Data sizes:     COMRAM   BANK0   BANK1   BANK2   BANK3   BANK4   BANK5   BANK6   BANK7   BANK8   BANK9  BANK10  BANK11  BANK12  BANK13
      Params:         4       0       0       0       0       0       0       0       0       0       0       0       0       0       0
      Locals:         2       0       0       0       0       0       0       0       0       0       0       0       0       0       0
      Temps:          4       0       0       0       0       0       0       0       0       0       0       0       0       0       0
      Totals:        10       0       0       0       0       0       0       0       0       0       0       0       0       0       0
Total ram usage:       10 bytes
 Hardware stack levels used:    1
 This function calls:
		Nothing
 This function is called by:
		_floor
		i2__doprnt
 This function uses a non-reentrant model


 *************** function i2___flge *****************
 Defined at:
		line 4 in file "C:\Program Files (x86)\Microchip\xc8\v1.45\sources\common\flge.c"
 Parameters:    Size  Location     Type
  ff1             4   29[BANK0 ] long 
  ff2             4   33[BANK0 ] long 
 Auto vars:     Size  Location     Type
		None
 Return value:  Size  Location     Type
		None               void
 Registers used:
		wreg, status,2, status,0
 Tracked objects:
		On entry : 
		On exit  : 
		Unchanged: 
 Data sizes:     COMRAM   BANK0   BANK1   BANK2   BANK3   BANK4   BANK5   BANK6   BANK7   BANK8   BANK9  BANK10  BANK11  BANK12  BANK13
      Params:         0       8       0       0       0       0       0       0       0       0       0       0       0       0       0
      Locals:         0       0       0       0       0       0       0       0       0       0       0       0       0       0       0
      Temps:          0       4       0       0       0       0       0       0       0       0       0       0       0       0       0
      Totals:         0      12       0       0       0       0       0       0       0       0       0       0       0       0       0
Total ram usage:       12 bytes
 Hardware stack levels used:    1
 This function calls:
		Nothing
 This function is called by:
		_ADC_PostProcessingCallback
		_writeEnergyToEEPROMCallback
		_sin
		_floor
		i2__doprnt
		i2_asin
		i2_atan
 This function uses a non-reentrant model


 *************** function i2___fladd *****************
 Defined at:
		line 10 in file "C:\Program Files (x86)\Microchip\xc8\v1.45\sources\common\sprcadd.c"
 Parameters:    Size  Location     Type
  b               4   13[BANK0 ] long 
  a               4   17[BANK0 ] long 
 Auto vars:     Size  Location     Type
  __fladd         1   91[COMRAM] unsigned char 
  __fladd         1   90[COMRAM] unsigned char 
  __fladd         1   89[COMRAM] unsigned char 
  __fladd         1   88[COMRAM] unsigned char 
 Return value:  Size  Location     Type
                  4   13[BANK0 ] unsigned char 
 Registers used:
		wreg, status,2, status,0
 Tracked objects:
		On entry : 
		On exit  : 
		Unchanged: 
 Data sizes:     COMRAM   BANK0   BANK1   BANK2   BANK3   BANK4   BANK5   BANK6   BANK7   BANK8   BANK9  BANK10  BANK11  BANK12  BANK13
      Params:         0       8       0       0       0       0       0       0       0       0       0       0       0       0       0
      Locals:         4       0       0       0       0       0       0       0       0       0       0       0       0       0       0
      Temps:          0       8       0       0       0       0       0       0       0       0       0       0       0       0       0
      Totals:         4      16       0       0       0       0       0       0       0       0       0       0       0       0       0
Total ram usage:       20 bytes
 Hardware stack levels used:    1
 This function calls:
		Nothing
 This function is called by:
		_peakToRMS
		_ADC_PostProcessingCallback
		_sin
		_floor
		i2__doprnt
		i2_acos
		i2_asin
		i2_atan
		i2_eval_poly
		i2___flsub
 This function uses a non-reentrant model


 *************** function _ADCC_StopConversion *****************
 Defined at:
		line 165 in file "mcc_generated_files/adcc.c"
 Parameters:    Size  Location     Type
		None
 Auto vars:     Size  Location     Type
		None
 Return value:  Size  Location     Type
                  1    wreg      void 
 Registers used:
		None
 Tracked objects:
		On entry : 
		On exit  : 
		Unchanged: 
 Data sizes:     COMRAM   BANK0   BANK1   BANK2   BANK3   BANK4   BANK5   BANK6   BANK7   BANK8   BANK9  BANK10  BANK11  BANK12  BANK13
      Params:         0       0       0       0       0       0       0       0       0       0       0       0       0       0       0
      Locals:         0       0       0       0       0       0       0       0       0       0       0       0       0       0       0
      Temps:          0       0       0       0       0       0       0       0       0       0       0       0       0       0       0
      Totals:         0       0       0       0       0       0       0       0       0       0       0       0       0       0       0
Total ram usage:        0 bytes
 Hardware stack levels used:    1
 This function calls:
		Nothing
 This function is called by:
		_ADC_PostProcessingCallback
 This function uses a non-reentrant model


 *************** function _ADCC_HasAccumulatorOverflowed *****************
 Defined at:
		line 219 in file "mcc_generated_files/adcc.c"
 Parameters:    Size  Location     Type
		None
 Auto vars:     Size  Location     Type
		None
 Return value:  Size  Location     Type
                  1    wreg      unsigned char 
 Registers used:
		wreg
 Tracked objects:
		On entry : 
		On exit  : 
		Unchanged: 
 Data sizes:     COMRAM   BANK0   BANK1   BANK2   BANK3   BANK4   BANK5   BANK6   BANK7   BANK8   BANK9  BANK10  BANK11  BANK12  BANK13
      Params:         0       0       0       0       0       0       0       0       0       0       0       0       0       0       0
      Locals:         0       0       0       0       0       0       0       0       0       0       0       0       0       0       0
      Temps:          0       0       0       0       0       0       0       0       0       0       0       0       0       0       0
      Totals:         0       0       0       0       0       0       0       0       0       0       0       0       0       0       0
Total ram usage:        0 bytes
 Hardware stack levels used:    1
 This function calls:
		Nothing
 This function is called by:
		_ADC_PostProcessingCallback
 This function uses a non-reentrant model


 *************** function _ADCC_GetFilterValue *****************
 Defined at:
		line 225 in file "mcc_generated_files/adcc.c"
 Parameters:    Size  Location     Type
		None
 Auto vars:     Size  Location     Type
		None
 Return value:  Size  Location     Type
                  2    0[COMRAM] unsigned int 
 Registers used:
		wreg, status,2, status,0
 Tracked objects:
		On entry : 
		On exit  : 
		Unchanged: 
 Data sizes:     COMRAM   BANK0   BANK1   BANK2   BANK3   BANK4   BANK5   BANK6   BANK7   BANK8   BANK9  BANK10  BANK11  BANK12  BANK13
      Params:         2       0       0       0       0       0       0       0       0       0       0       0       0       0       0
      Locals:         0       0       0       0       0       0       0       0       0       0       0       0       0       0       0
      Temps:          2       0       0       0       0       0       0       0       0       0       0       0       0       0       0
      Totals:         4       0       0       0       0       0       0       0       0       0       0       0       0       0       0
Total ram usage:        4 bytes
 Hardware stack levels used:    1
 This function calls:
		Nothing
 This function is called by:
		_ADC_PostProcessingCallback
 This function uses a non-reentrant model


 *************** function _ADCC_GetCurrentCountofConversions *****************
 Defined at:
		line 201 in file "mcc_generated_files/adcc.c"
 Parameters:    Size  Location     Type
		None
 Auto vars:     Size  Location     Type
		None
 Return value:  Size  Location     Type
                  1    wreg      unsigned char 
 Registers used:
		wreg, status,2
 Tracked objects:
		On entry : 
		On exit  : 
		Unchanged: 
 Data sizes:     COMRAM   BANK0   BANK1   BANK2   BANK3   BANK4   BANK5   BANK6   BANK7   BANK8   BANK9  BANK10  BANK11  BANK12  BANK13
      Params:         0       0       0       0       0       0       0       0       0       0       0       0       0       0       0
      Locals:         0       0       0       0       0       0       0       0       0       0       0       0       0       0       0
      Temps:          0       0       0       0       0       0       0       0       0       0       0       0       0       0       0
      Totals:         0       0       0       0       0       0       0       0       0       0       0       0       0       0       0
Total ram usage:        0 bytes
 Hardware stack levels used:    1
 This function calls:
		Nothing
 This function is called by:
		_ADC_PostProcessingCallback
 This function uses a non-reentrant model


 *************** function _ADCC_GetConversionResult *****************
 Defined at:
		line 133 in file "mcc_generated_files/adcc.c"
 Parameters:    Size  Location     Type
		None
 Auto vars:     Size  Location     Type
		None
 Return value:  Size  Location     Type
                  2    0[COMRAM] unsigned int 
 Registers used:
		wreg, status,2, status,0
 Tracked objects:
		On entry : 
		On exit  : 
		Unchanged: 
 Data sizes:     COMRAM   BANK0   BANK1   BANK2   BANK3   BANK4   BANK5   BANK6   BANK7   BANK8   BANK9  BANK10  BANK11  BANK12  BANK13
      Params:         2       0       0       0       0       0       0       0       0       0       0       0       0       0       0
      Locals:         0       0       0       0       0       0       0       0       0       0       0       0       0       0       0
      Temps:          2       0       0       0       0       0       0       0       0       0       0       0       0       0       0
      Totals:         4       0       0       0       0       0       0       0       0       0       0       0       0       0       0
Total ram usage:        4 bytes
 Hardware stack levels used:    1
 This function calls:
		Nothing
 This function is called by:
		_ADC_PostProcessingCallback
 This function uses a non-reentrant model



MODULE INFORMATION

Module		Function		Class		Link	Load	Size
C:\Program Files (x86)\Microchip\xc8\v1.45\sources\common\asin.c
		_asin          		CODE           	1CEC4	0000	785

C:\Program Files (x86)\Microchip\xc8\v1.45\sources\common\asin.c estimated size: 785

C:\Program Files (x86)\Microchip\xc8\v1.45\sources\common\sprcdiv.c
		___fldiv       		CODE           	1E8D4	0000	695

C:\Program Files (x86)\Microchip\xc8\v1.45\sources\common\sprcdiv.c estimated size: 695

C:\Program Files (x86)\Microchip\xc8\v1.45\sources\common\sprcsqrt.c
		_sqrt          		CODE           	1DAF4	0000	713

C:\Program Files (x86)\Microchip\xc8\v1.45\sources\common\sprcsqrt.c estimated size: 713

C:\Program Files (x86)\Microchip\xc8\v1.45\sources\common\memmove.c
		_memmove       		CODE           	2490	0000	175

C:\Program Files (x86)\Microchip\xc8\v1.45\sources\common\memmove.c estimated size: 175

C:\Program Files (x86)\Microchip\xc8\v1.45\sources\common\float.c
		___ftpack      		CODE           	2330	0000	177

C:\Program Files (x86)\Microchip\xc8\v1.45\sources\common\float.c estimated size: 177

C:\Program Files (x86)\Microchip\xc8\v1.45\sources\common\flge.c
		___flge        		CODE           	10A4	0000	291

C:\Program Files (x86)\Microchip\xc8\v1.45\sources\common\flge.c estimated size: 291

mcc_generated_files/tmr6.c
		_TMR6_ISR      		CODE           	48A2	0000	41
		_TMR6_Initialize		CODE           	46CA	0000	51
		_TMR6_SetInterruptHandler		CODE           	4E30	0000	15
		_TMR6_DefaultInterruptHandler		CODE           	4F82	0000	3

mcc_generated_files/tmr6.c estimated size: 110

mcc_generated_files/eusart2.c
		_putch         		CODE           	4C2E	0000	27
		_EUSART2_Read  		CODE           	3B94	0000	79
		_EUSART2_Write 		CODE           	3DA4	0000	73
		_EUSART2_Receive_ISR		CODE           	25EC	0000	169
		_EUSART2_Transmit_ISR		CODE           	45F8	0000	55
		_EUSART2_SetRxInterruptHandler		CODE           	4E84	0000	15
		_EUSART2_SetTxInterruptHandler		CODE           	4E76	0000	15
		_EUSART2_Initialize		CODE           	36D0	0000	103

mcc_generated_files/eusart2.c estimated size: 536

C:\Program Files (x86)\Microchip\xc8\v1.45\sources\common\doprnt.c
		_scale         		CODE           	1A67E	0000	1189
		_fround        		CODE           	1E084	0000	711
		__doprnt       		CODE           	12196	0000	7997

C:\Program Files (x86)\Microchip\xc8\v1.45\sources\common\doprnt.c estimated size: 9897

mcc_generated_files/fvr.c
		_FVR_Initialize		CODE           	4F12	0000	9

mcc_generated_files/fvr.c estimated size: 9

error_handling.c
		_updateErrorLEDs		CODE           	4CE4	0000	25
		_getADCError   		CODE           	462E	0000	53
		_clearADCErrors		CODE           	4ADA	0000	35
		_getCOMMError  		CODE           	4D14	0000	23
		_clearCOMMErrors		CODE           	4E06	0000	15

error_handling.c estimated size: 151

mcc_generated_files/tmr4.c
		_TMR4_ISR      		CODE           	49FE	0000	39
		_TMR4_Initialize		CODE           	478C	0000	49
		_TMR4_SetInterruptHandler		CODE           	4E4C	0000	15
		_TMR4_DefaultInterruptHandler		CODE           	4F88	0000	3
		_TMR4_CallBack 		CODE           	4A92	0000	37

mcc_generated_files/tmr4.c estimated size: 143

C:\Program Files (x86)\Microchip\xc8\v1.45\sources\common\round.c
		_round         		CODE           	21C4	0000	183

C:\Program Files (x86)\Microchip\xc8\v1.45\sources\common\round.c estimated size: 183

mcc_generated_files/tmr2.c
		_TMR2_ISR      		CODE           	498C	0000	39
		_TMR2_Initialize		CODE           	47BC	0000	49
		_TMR2_Stop     		CODE           	4F5E	0000	5
		_TMR2_Start    		CODE           	4F62	0000	5
		_TMR2_SetInterruptHandler		CODE           	4E5A	0000	15
		_TMR2_Counter8BitSet		CODE           	4ED6	0000	11
		_TMR2_Period8BitSet		CODE           	4EE0	0000	11
		_TMR2_StopTimer		CODE           	4F32	0000	7
		_TMR2_DefaultInterruptHandler		CODE           	4F84	0000	3
		_TMR2_CallBack 		CODE           	4A6E	0000	37
		_TMR2_WriteTimer		CODE           	4E14	0000	15
		_TMR2_StartTimer		CODE           	4F38	0000	7

mcc_generated_files/tmr2.c estimated size: 204

mcc_generated_files/interrupt_manager.c
		_INTERRUPT_Initialize		CODE           	4B80	0000	31
		_INTERRUPT_InterruptManagerLow		CODE           	0018	0000	211
		_INTERRUPT_InterruptManagerHigh		CODE           	0008	0000	299

mcc_generated_files/interrupt_manager.c estimated size: 541

C:\Program Files (x86)\Microchip\xc8\v1.45\sources\common\Umul16.c
		___wmul        		CODE           	487A	0000	41

C:\Program Files (x86)\Microchip\xc8\v1.45\sources\common\Umul16.c estimated size: 41

mcc_generated_files/i2c1.c
		_I2C1_BusCollisionISR		CODE           	4F50	0000	7
		_I2C1_FunctionComplete		CODE           	4CCA	0000	27
		_I2C1_MasterWriteTRBBuild		CODE           	3F9C	0000	71
		_I2C1_ISR      		CODE           	1F60A	0000	609
		_I2C1_MasterWrite		CODE           	3AF4	0000	81
		_I2C1_Initialize		CODE           	45C2	0000	55
		_I2C1_Stop     		CODE           	41F8	0000	65
		_I2C1_WaitForLastPacketToComplete		CODE           	4F1A	0000	9
		_I2C1_MasterTRBInsert		CODE           	2694	0000	163

mcc_generated_files/i2c1.c estimated size: 1087

double_to_EEPROM.c
		_readDoubleFromEEPROM		CODE           	39B2	0000	83
		_writeDoubleToEEPROM		CODE           	3A54	0000	81

double_to_EEPROM.c estimated size: 164

C:\Program Files (x86)\Microchip\xc8\v1.45\sources\common\frexp.c
		_frexp         		CODE           	2E6C	0000	127

C:\Program Files (x86)\Microchip\xc8\v1.45\sources\common\frexp.c estimated size: 127

mcc_generated_files/pin_manager.c
		_PIN_MANAGER_Initialize		CODE           	1F6C	0000	205

mcc_generated_files/pin_manager.c estimated size: 205

C:\Program Files (x86)\Microchip\xc8\v1.45\sources\common\fabs.c
		_fabs          		CODE           	4278	0000	63

C:\Program Files (x86)\Microchip\xc8\v1.45\sources\common\fabs.c estimated size: 63

C:\Program Files (x86)\Microchip\xc8\v1.45\sources\common\isdigit.c
		_isdigit       		CODE           	4AFC	0000	35

C:\Program Files (x86)\Microchip\xc8\v1.45\sources\common\isdigit.c estimated size: 35

C:\Program Files (x86)\Microchip\xc8\v1.45\sources\common\sprcadd.c
		___flsub       		CODE           	3DEC	0000	73
		___fladd       		CODE           	1C50A	0000	831

C:\Program Files (x86)\Microchip\xc8\v1.45\sources\common\sprcadd.c estimated size: 904

C:\Program Files (x86)\Microchip\xc8\v1.45\sources\common\floor.c
		_floor         		CODE           	1522	0000	277

C:\Program Files (x86)\Microchip\xc8\v1.45\sources\common\floor.c estimated size: 277

C:\Program Files (x86)\Microchip\xc8\v1.45\sources\common\ftdivl.c
		__tdiv_to_l_   		CODE           	086A	0000	309

C:\Program Files (x86)\Microchip\xc8\v1.45\sources\common\ftdivl.c estimated size: 309

C:\Program Files (x86)\Microchip\xc8\v1.45\sources\common\awmod.c
		___awmod       		CODE           	3152	0000	115

C:\Program Files (x86)\Microchip\xc8\v1.45\sources\common\awmod.c estimated size: 115

C:\Program Files (x86)\Microchip\xc8\v1.45\sources\common\strstr.c
		_strstr        		CODE           	2A42	0000	141

C:\Program Files (x86)\Microchip\xc8\v1.45\sources\common\strstr.c estimated size: 141

C:\Program Files (x86)\Microchip\xc8\v1.45\sources\common\ftdiv.c
		___ftdiv       		CODE           	1A2C	0000	233

C:\Program Files (x86)\Microchip\xc8\v1.45\sources\common\ftdiv.c estimated size: 233

device_IDs.c
		_getDeviceID   		CODE           	4B40	0000	33
		_getUserID     		CODE           	406E	0000	69
		_getMinorRevisionID		CODE           	4940	0000	39
		_getDeviceIDString		CODE           	379C	0000	97
		_getMajorRevisionID		CODE           	43E8	0000	61

device_IDs.c estimated size: 299

C:\Program Files (x86)\Microchip\xc8\v1.45\sources\common\acos.c
		_acos          		CODE           	3236	0000	113

C:\Program Files (x86)\Microchip\xc8\v1.45\sources\common\acos.c estimated size: 113

C:\Program Files (x86)\Microchip\xc8\v1.45\sources\common\llmod.c
		___llmod       		CODE           	34C8	0000	105

C:\Program Files (x86)\Microchip\xc8\v1.45\sources\common\llmod.c estimated size: 105

C:\Program Files (x86)\Microchip\xc8\v1.45\sources\common\fldivl.c
		__div_to_l_    		CODE           	0C04	0000	299

C:\Program Files (x86)\Microchip\xc8\v1.45\sources\common\fldivl.c estimated size: 299

C:\Program Files (x86)\Microchip\xc8\v1.45\sources\common\sprintf.c
		_sprintf       		CODE           	3D5C	0000	73

C:\Program Files (x86)\Microchip\xc8\v1.45\sources\common\sprintf.c estimated size: 73

C:\Program Files (x86)\Microchip\xc8\v1.45\sources\common\fltol.c
		___fltol       		CODE           	1BFC	0000	223

C:\Program Files (x86)\Microchip\xc8\v1.45\sources\common\fltol.c estimated size: 223

mcc_generated_files/ext_int.c
		_INT0_SetInterruptHandler		CODE           	4E68	0000	15
		_EXT_INT_Initialize		CODE           	4B9E	0000	31
		_INT0_DefaultInterruptHandler		CODE           	4F8A	0000	3
		_INT0_CallBack 		CODE           	4AB6	0000	37
		_INT0_ISR      		CODE           	4EFE	0000	11

mcc_generated_files/ext_int.c estimated size: 97

C:\Program Files (x86)\Microchip\xc8\v1.45\sources\common\atoi.c
		_atoi          		CODE           	1E94	0000	217

C:\Program Files (x86)\Microchip\xc8\v1.45\sources\common\atoi.c estimated size: 217

mcc_generated_files/tmr7.c
		_TMR7_DefaultInterruptHandler		CODE           	4F80	0000	3
		_TMR7_WriteTimer		CODE           	4966	0000	39
		_TMR7_ISR      		CODE           	4662	0000	53
		_TMR7_Initialize		CODE           	395E	0000	85
		_TMR7_SetInterruptHandler		CODE           	4E22	0000	15

mcc_generated_files/tmr7.c estimated size: 195

mcc_generated_files/hlvd.c
		_HLVD_ISR      		CODE           	4238	0000	65
		_HLVD_Initialize		CODE           	4DB8	0000	17

mcc_generated_files/hlvd.c estimated size: 82

C:\Program Files (x86)\Microchip\xc8\v1.45\sources\common\printf.c
		_printf        		CODE           	43AC	0000	61

C:\Program Files (x86)\Microchip\xc8\v1.45\sources\common\printf.c estimated size: 61

mcc_generated_files/tmr5.c
		_TMR5_ISR      		CODE           	4696	0000	53
		_TMR5_Initialize		CODE           	3AA4	0000	81
		_TMR5_SetInterruptHandler		CODE           	4E3E	0000	15
		_TMR5_StopTimer		CODE           	4F5A	0000	5
		_TMR5_DefaultInterruptHandler		CODE           	4F86	0000	3
		_TMR5_WriteTimer		CODE           	4C12	0000	29
		_TMR5_StartTimer		CODE           	4F72	0000	5

mcc_generated_files/tmr5.c estimated size: 191

shared
		i1_strcat      		CODE           	3C7C	0000	77
		i2_writeDoubleToEEPROM		CODE           	3CC8	0000	77
		i1_printf      		CODE           	4424	0000	61
		i2_DATAEE_WriteByte		CODE           	4550	0000	59
		i1_acos        		CODE           	32A6	0000	113
		i2_printf      		CODE           	44D8	0000	61
		i2_acos        		CODE           	3386	0000	113
		_OledFont      		MEDIUMCONST    	C9F1	0000	769
		i2_readDoubleFromEEPROM		CODE           	3BE2	0000	79
		i1_putch       		CODE           	4EAE	0000	15
		i2_putch       		CODE           	4F08	0000	11
		i1_strncpy     		CODE           	3598	0000	105
		i1_getMinorRevisionID		CODE           	49B2	0000	39
		i1___ftdiv     		CODE           	1B14	0000	233
		__powers_      		MEDIUMCONST    	C933	0000	53
		i1_TMR2_Counter8BitSet		CODE           	4EEA	0000	11
		i1_OLED_YX     		CODE           	449C	0000	61
		i1_I2C1_WaitForLastPacketToComplete		CODE           	4F2A	0000	9
		i1_terminal_textAttributes		CODE           	1B7AE	0000	873
		_dpowers       		MEDIUMCONST    	C99B	0000	41
		i1___lwtoft    		CODE           	49D8	0000	39
		i1_isdigit     		CODE           	4B1E	0000	35
		i2_isdigit     		CODE           	4BBC	0000	31
		i1_getCauseOfResetStringSmall		CODE           	47EC	0000	49
		i1_OLED_Clear  		CODE           	41B8	0000	65
		i1___flneg     		CODE           	481C	0000	49
		i1_strcpy      		CODE           	3E34	0000	73
		i2___flneg     		CODE           	484C	0000	47
		i1_atan        		CODE           	1FCEC	0000	569
		i1___awdiv     		CODE           	2B54	0000	135
		i2_atan        		CODE           	00EE	0000	569
		atan@coeff_a   		MEDIUMCONST    	CCF1	0000	25
		atan@coeff_b   		MEDIUMCONST    	CD1D	0000	21
		i2___awdiv     		CODE           	2D66	0000	133
		i1___fladd     		CODE           	1C848	0000	831
		i1__tdiv_to_l_ 		CODE           	099E	0000	309
		i2___fladd     		CODE           	1CB86	0000	831
		i2__tdiv_to_l_ 		CODE           	0AD2	0000	307
		i1___wmul      		CODE           	48CA	0000	41
		i1_eval_poly   		CODE           	1736	0000	257
		i2___wmul      		CODE           	4A24	0000	39
		i1_I2C1_MasterWrite		CODE           	3B44	0000	81
		i2_eval_poly   		CODE           	1836	0000	257
		i1__doprnt     		CODE           	140D2	0000	7997
		i2__doprnt     		CODE           	1600E	0000	7969
		i1___fldiv     		CODE           	1EB8A	0000	695
		i1__div_to_l_  		CODE           	0D2E	0000	299
		i1___fltol     		CODE           	1CDA	0000	223
		i2___fldiv     		CODE           	1EE40	0000	695
		i2__div_to_l_  		CODE           	0E58	0000	297
		i1___ftpack    		CODE           	23E0	0000	177
		__npowers_     		MEDIUMCONST    	C967	0000	53
		i2___fltol     		CODE           	1DB8	0000	221
		i1_scale       		CODE           	1AB22	0000	1189
		i1___lldiv     		CODE           	2C5E	0000	133
		i2_scale       		CODE           	1AFC6	0000	1153
		i2___lldiv     		CODE           	2DEA	0000	131
		__initialization		CODE           	1FF24	0000	211
		i1___flge      		CODE           	11C6	0000	291
		i2___flge      		CODE           	12E8	0000	291
		i1_OLED_Command		CODE           	3668	0000	105
		i1_OLED_UpdateFromRAMBuffer		CODE           	305E	0000	123
		i1_OLED_PutChar		CODE           	20FE	0000	199
		i1_terminal_textAttributesReset		CODE           	4D76	0000	19
		i1_trunc       		CODE           	2878	0000	161
		i1___awmod     		CODE           	31C4	0000	115
		i2___awmod     		CODE           	3316	0000	113
		i1_EUSART2_Write		CODE           	3EC4	0000	73
		i1_frexp       		CODE           	2EEA	0000	127
		i2_EUSART2_Write		CODE           	4028	0000	71
		i2_frexp       		CODE           	30D8	0000	123
		_max_Temp_ADC_Result_address		MEDIUMCONST    	C9E5	0000	3
		i1_FLASH_ReadWord		CODE           	4136	0000	67
		_max_Irms_address		MEDIUMCONST    	C9ED	0000	3
		i1_TMR2_Stop   		CODE           	4F66	0000	5
		_max_POS12_ADC_Result_address		MEDIUMCONST    	C9E7	0000	3
		i1_FLASH_ReadByte		CODE           	4C7C	0000	27
		i1___flmul     		CODE           	1BE68	0000	851
		i1_terminal_setCursorHome		CODE           	4DC8	0000	17
		i1_I2C1_MasterWriteTRBBuild		CODE           	3FE2	0000	71
		i2___flmul     		CODE           	1C1BA	0000	849
		i1_asin        		CODE           	1D1D4	0000	785
		i1_TMR2_Start  		CODE           	4F6A	0000	5
		i2_asin        		CODE           	1D4E4	0000	785
		i1_OLED_updateCallback		CODE           	18BA8	0000	3191
		i1___llmod     		CODE           	3600	0000	105
		_hexpowers     		MEDIUMCONST    	C9C3	0000	33
		i1_memmove     		CODE           	253E	0000	175
		i1_sprintf     		CODE           	3E7C	0000	73
		i2___llmod     		CODE           	3736	0000	103
		i1_getMajorRevisionID		CODE           	4460	0000	61
		i1___xxtofl    		CODE           	047A	0000	341
		i2___xxtofl    		CODE           	05CE	0000	337
		i1_terminal_printNewline		CODE           	4DD8	0000	17
		_Total_Energy_address		MEDIUMCONST    	C9EF	0000	3
		i1_getDeviceID 		CODE           	4B60	0000	33
		i2_DATAEE_ReadByte		CODE           	4CFC	0000	25
		i1_TMR2_StopTimer		CODE           	4F44	0000	7
		i1___flsub     		CODE           	3F0C	0000	73
		i2___flsub     		CODE           	3F54	0000	73
		i1_OLED_WriteString		CODE           	3906	0000	89
		i2_TMR5_StopTimer		CODE           	4F6E	0000	5
		i1_fabs        		CODE           	4332	0000	63
		i1_terminal_clearTerminal		CODE           	4DE8	0000	17
		i2_fabs        		CODE           	4514	0000	61
		i1_sqrt        		CODE           	1DDBC	0000	713
		i2_sqrt        		CODE           	1E610	0000	709
		_max_Power_address		MEDIUMCONST    	C9EB	0000	3
		i1_TMR2_Period8BitSet		CODE           	4EF4	0000	11
		i1_fround      		CODE           	1E34A	0000	711
		i1_round       		CODE           	227A	0000	183
		i2_fround      		CODE           	1F0F6	0000	687
		i1_TMR2_WriteTimer		CODE           	4EBC	0000	15
		i1_TMR2_StartTimer		CODE           	4F4A	0000	7
		sin@coeff_a    		MEDIUMCONST    	CD09	0000	21
		sin@coeff_b    		MEDIUMCONST    	CD31	0000	17
		_max_POS3P3_ADC_Result_address		MEDIUMCONST    	C9E9	0000	3
		i1_I2C1_MasterTRBInsert		CODE           	2736	0000	163
		_max_FVR_ADC_Result_address		MEDIUMCONST    	C9E3	0000	3

shared estimated size: 42509

mcc_generated_files/mcc.c
		_PMD_Initialize		CODE           	4BDA	0000	29
		_OSCILLATOR_Initialize		CODE           	4BF6	0000	29
		_SYSTEM_Initialize		CODE           	42F4	0000	63

mcc_generated_files/mcc.c estimated size: 121

ring_buffer_interface.c
		_terminal_ringBufferPull		CODE           	140A	0000	281
		_terminal_textAttributes		CODE           	1B446	0000	873
		_terminal_textAttributesReset		CODE           	4D52	0000	19
		_terminal_setCursorHome		CODE           	4D88	0000	17
		_terminal_printNewline		CODE           	4DA8	0000	17
		_terminal_clearTerminal		CODE           	4D98	0000	17

ring_buffer_interface.c estimated size: 1224

C:\Program Files (x86)\Microchip\xc8\v1.45\sources\common\atan.c
		_atan          		CODE           	1FAB4	0000	569

C:\Program Files (x86)\Microchip\xc8\v1.45\sources\common\atan.c estimated size: 569

cause_of_reset.c
		_getCauseOfResetStringSmall		CODE           	46FC	0000	49
		_getCauseOfResetString		CODE           	475C	0000	49
		_getCauseOfReset		CODE           	37FC	0000	91

cause_of_reset.c estimated size: 189

C:\Program Files (x86)\Microchip\xc8\v1.45\sources\common\awdiv.c
		___awdiv       		CODE           	2ACE	0000	135

C:\Program Files (x86)\Microchip\xc8\v1.45\sources\common\awdiv.c estimated size: 135

C:\Program Files (x86)\Microchip\xc8\v1.45\sources\common\strcat.c
		_strcat        		CODE           	3C30	0000	77

C:\Program Files (x86)\Microchip\xc8\v1.45\sources\common\strcat.c estimated size: 77

oled.c
		_OLED_Clear    		CODE           	4178	0000	65
		_OLED_Command  		CODE           	3530	0000	105
		_OLED_WriteString		CODE           	38AE	0000	89
		_OLED_UpdateFromRAMBuffer		CODE           	2FE4	0000	123
		_OLED_Init     		CODE           	2918	0000	155
		_OLED_PutChar  		CODE           	2038	0000	199
		_OLED_YX       		CODE           	4370	0000	61

oled.c estimated size: 797

C:\Program Files (x86)\Microchip\xc8\v1.45\sources\common\evalpoly.c
		_eval_poly     		CODE           	1636	0000	257

C:\Program Files (x86)\Microchip\xc8\v1.45\sources\common\evalpoly.c estimated size: 257

mcc_generated_files/memory.c
		_FLASH_ReadWord		CODE           	40B2	0000	67
		_FLASH_ReadByte		CODE           	4C48	0000	27
		_DATAEE_WriteByte		CODE           	42B6	0000	63
		_DATAEE_ReadByte		CODE           	4C62	0000	27

mcc_generated_files/memory.c estimated size: 184

C:\Program Files (x86)\Microchip\xc8\v1.45\sources\common\sin.c
		_sin           		CODE           	1D7F4	0000	769

C:\Program Files (x86)\Microchip\xc8\v1.45\sources\common\sin.c estimated size: 769

C:\Program Files (x86)\Microchip\xc8\v1.45\sources\common\lldiv.c
		___lldiv       		CODE           	2BDA	0000	133

C:\Program Files (x86)\Microchip\xc8\v1.45\sources\common\lldiv.c estimated size: 133

ring_buffer_LUT.c
		_ringBufferLUT 		CODE           	10000	0000	8599
		_terminal_printResetMessage		CODE           	1A190	0000	1263

ring_buffer_LUT.c estimated size: 9862

C:\Program Files (x86)\Microchip\xc8\v1.45\sources\common\xxtofl.c
		___xxtofl      		CODE           	0326	0000	341

C:\Program Files (x86)\Microchip\xc8\v1.45\sources\common\xxtofl.c estimated size: 341

C:\Program Files (x86)\Microchip\xc8\v1.45\sources\common\trunc.c
		_trunc         		CODE           	27D8	0000	161

C:\Program Files (x86)\Microchip\xc8\v1.45\sources\common\trunc.c estimated size: 161

mcc_generated_files/adcc.c
		_ADCC_StopConversion		CODE           	4F76	0000	5
		_ADCC_DefaultInterruptHandler		CODE           	4F8C	0000	3
		_ADCC_ClearAccumulator		CODE           	4F3E	0000	7
		_ADCC_GetFilterValue		CODE           	4D2A	0000	21
		_ADCC_GetCurrentCountofConversions		CODE           	4F7A	0000	5
		_ADCC_SetADTIInterruptHandler		CODE           	4E92	0000	15
		_ADCC_GetConversionResult		CODE           	4D3E	0000	21
		_ADCC_ThresholdISR		CODE           	48F2	0000	41
		_ADCC_StartConversion		CODE           	4EA0	0000	15
		_ADCC_Initialize		CODE           	33F6	0000	107
		_ADCC_HasAccumulatorOverflowed		CODE           	4ECA	0000	13
		_ADCC_DischargeSampleCapacitor		CODE           	4F22	0000	9

mcc_generated_files/adcc.c estimated size: 262

C:\Program Files (x86)\Microchip\xc8\v1.45\sources\common\flneg.c
		___flneg       		CODE           	472C	0000	49

C:\Program Files (x86)\Microchip\xc8\v1.45\sources\common\flneg.c estimated size: 49

main.c
		_dimmingOffTimeCallback		CODE           	4CB0	0000	27
		_saveSRAMMaxToEEPROM		CODE           	1F3A4	0000	615
		_acquisitionTimerCallback		CODE           	4D64	0000	19
		_ADC_PostProcessingCallback		CODE           	1981E	0000	2419
		_main          		CODE           	1936	0000	247
		_heartbeatTimerCallback		CODE           	40F4	0000	67
		_currentMeasuredToPeak		CODE           	2F68	0000	125
		_recoverSRAMMaxFromEEPROM		CODE           	071E	0000	333
		_dimmingOnTimeCallback		CODE           	4C96	0000	27
		_writeEnergyToEEPROMCallback		CODE           	2CE2	0000	133
		_OLED_updateCallback		CODE           	17F2E	0000	3195
		_peakToRMS     		CODE           	1F86A	0000	587

main.c estimated size: 7794

C:\Program Files (x86)\Microchip\xc8\v1.45\sources\common\strlen.c
		_strlen        		CODE           	3856	0000	89

C:\Program Files (x86)\Microchip\xc8\v1.45\sources\common\strlen.c estimated size: 89

C:\Program Files (x86)\Microchip\xc8\v1.45\sources\common\lwtoft.c
		___lwtoft      		CODE           	491A	0000	39

C:\Program Files (x86)\Microchip\xc8\v1.45\sources\common\lwtoft.c estimated size: 39

C:\Program Files (x86)\Microchip\xc8\v1.45\sources\common\strcmp.c
		_strcmp        		CODE           	3A04	0000	81

C:\Program Files (x86)\Microchip\xc8\v1.45\sources\common\strcmp.c estimated size: 81

C:\Program Files (x86)\Microchip\xc8\v1.45\sources\common\strchr.c
		_strchr        		CODE           	458A	0000	57

C:\Program Files (x86)\Microchip\xc8\v1.45\sources\common\strchr.c estimated size: 57

C:\Program Files (x86)\Microchip\xc8\v1.45\sources\common\strcpy.c
		_strcpy        		CODE           	3D14	0000	73

C:\Program Files (x86)\Microchip\xc8\v1.45\sources\common\strcpy.c estimated size: 73

C:\Program Files (x86)\Microchip\xc8\v1.45\sources\common\strncmp.c
		_strncmp       		CODE           	29B2	0000	145

C:\Program Files (x86)\Microchip\xc8\v1.45\sources\common\strncmp.c estimated size: 145

C:\Program Files (x86)\Microchip\xc8\v1.45\sources\common\sprcmul.c
		___flmul       		CODE           	1BB16	0000	851

C:\Program Files (x86)\Microchip\xc8\v1.45\sources\common\sprcmul.c estimated size: 851

C:\Program Files (x86)\Microchip\xc8\v1.45\sources\common\strncpy.c
		_strncpy       		CODE           	3460	0000	105

C:\Program Files (x86)\Microchip\xc8\v1.45\sources\common\strncpy.c estimated size: 105

